ARM GAS  C:\Users\VINCIU~1\AppData\Local\Temp\cco4z3dl.s 			page 1


   1              		.cpu cortex-m7
   2              		.eabi_attribute 28, 1
   3              		.eabi_attribute 20, 1
   4              		.eabi_attribute 21, 1
   5              		.eabi_attribute 23, 3
   6              		.eabi_attribute 24, 1
   7              		.eabi_attribute 25, 1
   8              		.eabi_attribute 26, 1
   9              		.eabi_attribute 30, 2
  10              		.eabi_attribute 34, 1
  11              		.eabi_attribute 18, 4
  12              		.file	"globalFunc.cpp"
  13              		.text
  14              	.Ltext0:
  15              		.cfi_sections	.debug_frame
  16              		.section	.text._Z17HandleMidiMessage9MidiEventPN7daisysp10OscillatorE,"ax",%progbits
  17              		.align	1
  18              		.p2align 2,,3
  19              		.global	_Z17HandleMidiMessage9MidiEventPN7daisysp10OscillatorE
  20              		.arch armv7e-m
  21              		.syntax unified
  22              		.thumb
  23              		.thumb_func
  24              		.fpu fpv5-d16
  26              	_Z17HandleMidiMessage9MidiEventPN7daisysp10OscillatorE:
  27              	.LVL0:
  28              	.LFB4038:
  29              		.file 1 "globalFunc.cpp"
   1:globalFunc.cpp **** #include "globalFunc.h"
   2:globalFunc.cpp **** 
   3:globalFunc.cpp **** void SynthInit(
   4:globalFunc.cpp ****     DaisySeed*                                       seed,
   5:globalFunc.cpp ****     OledDisplay<SSD130x4WireSpi128x64Driver>* oledScreen,
   6:globalFunc.cpp ****     Oscillator*                                    osc,
   7:globalFunc.cpp ****     MidiHandler<MidiUartTransport>*                         midi)
   8:globalFunc.cpp **** {
   9:globalFunc.cpp ****     MidiHandler<MidiUartTransport>::Config midi_cfg;
  10:globalFunc.cpp ****     seed->Configure();
  11:globalFunc.cpp ****     seed->Init();
  12:globalFunc.cpp ****     /** Configure the Display */
  13:globalFunc.cpp ****     OledDisplay<SSD130x4WireSpi128x64Driver>::Config disp_cfg;
  14:globalFunc.cpp ****     disp_cfg.driver_config.transport_config.pin_config.dc    = seed->GetPin(9);
  15:globalFunc.cpp ****     disp_cfg.driver_config.transport_config.pin_config.reset = seed->GetPin(30);
  16:globalFunc.cpp ****     /** And Initialize */
  17:globalFunc.cpp ****     oledScreen->Init(disp_cfg);
  18:globalFunc.cpp ****     osc->Init(seed->AudioSampleRate());
  19:globalFunc.cpp ****     osc->SetWaveform(osc->WAVE_SAW);
  20:globalFunc.cpp ****     osc->SetAmp(0.5);
  21:globalFunc.cpp ****     osc->SetFreq(440);
  22:globalFunc.cpp ****     midi->Init(midi_cfg);
  23:globalFunc.cpp ****     midi->StartReceive();
  24:globalFunc.cpp **** }
  25:globalFunc.cpp **** 
  26:globalFunc.cpp **** void HandleMidiMessage(MidiEvent m, Oscillator* osc)
  27:globalFunc.cpp **** {
  30              		.loc 1 27 1 view -0
  31              		.cfi_startproc
ARM GAS  C:\Users\VINCIU~1\AppData\Local\Temp\cco4z3dl.s 			page 2


  32              		@ args = 120, pretend = 16, frame = 0
  33              		@ frame_needed = 0, uses_anonymous_args = 0
  34              		.loc 1 27 1 is_stmt 0 view .LVU1
  35 0000 84B0     		sub	sp, sp, #16
  36              		.cfi_def_cfa_offset 16
  37 0002 08B5     		push	{r3, lr}
  38              		.cfi_def_cfa_offset 24
  39              		.cfi_offset 3, -24
  40              		.cfi_offset 14, -20
  41              		.loc 1 27 1 view .LVU2
  42 0004 0DF1080C 		add	ip, sp, #8
  43 0008 8CE80F00 		stm	ip, {r0, r1, r2, r3}
  44              	.LBB51:
  28:globalFunc.cpp ****     switch(m.type)
  45              		.loc 1 28 14 view .LVU3
  46 000c 9DF80830 		ldrb	r3, [sp, #8]	@ zero_extendqisi2
  47 0010 9DF81120 		ldrb	r2, [sp, #17]	@ zero_extendqisi2
  48              	.LVL1:
  49              		.loc 1 28 14 view .LVU4
  50              	.LBE51:
  51              		.loc 1 28 5 is_stmt 1 view .LVU5
  52              	.LBB79:
  53 0014 33B1     		cbz	r3, .L2
  54 0016 012B     		cmp	r3, #1
  55 0018 00D1     		bne	.L1
  56              	.LBB52:
  29:globalFunc.cpp ****     {
  30:globalFunc.cpp ****         case NoteOn:
  57              		.loc 1 30 9 view .LVU6
  31:globalFunc.cpp **** 
  32:globalFunc.cpp ****         {
  58              		.loc 1 32 9 view .LVU7
  59              	.LBB53:
  33:globalFunc.cpp ****             NoteOnEvent p = m.AsNoteOn();
  60              		.loc 1 33 13 view .LVU8
  61              	.LVL2:
  62              	.LBB54:
  63              	.LBI54:
  64              		.file 2 "../../libdaisy/src/hid/MidiEvent.h"
   1:../../libdaisy/src/hid/MidiEvent.h **** /** Parsed from the Status Byte, these are the common Midi Messages that can be handled. \n
   2:../../libdaisy/src/hid/MidiEvent.h **** At this time only 3-byte messages are correctly parsed into MidiEvents.
   3:../../libdaisy/src/hid/MidiEvent.h **** */
   4:../../libdaisy/src/hid/MidiEvent.h **** enum MidiMessageType
   5:../../libdaisy/src/hid/MidiEvent.h **** {
   6:../../libdaisy/src/hid/MidiEvent.h ****     NoteOff,               /**< & */
   7:../../libdaisy/src/hid/MidiEvent.h ****     NoteOn,                /**< & */
   8:../../libdaisy/src/hid/MidiEvent.h ****     PolyphonicKeyPressure, /**< & */
   9:../../libdaisy/src/hid/MidiEvent.h ****     ControlChange,         /**< & */
  10:../../libdaisy/src/hid/MidiEvent.h ****     ProgramChange,         /**< & */
  11:../../libdaisy/src/hid/MidiEvent.h ****     ChannelPressure,       /**< & */
  12:../../libdaisy/src/hid/MidiEvent.h ****     PitchBend,             /**< & */
  13:../../libdaisy/src/hid/MidiEvent.h ****     SystemCommon,          /**< & */
  14:../../libdaisy/src/hid/MidiEvent.h ****     SystemRealTime,        /**< & */
  15:../../libdaisy/src/hid/MidiEvent.h ****     ChannelMode,           /**< & */
  16:../../libdaisy/src/hid/MidiEvent.h ****     MessageLast,           /**< & */
  17:../../libdaisy/src/hid/MidiEvent.h **** };
  18:../../libdaisy/src/hid/MidiEvent.h **** 
ARM GAS  C:\Users\VINCIU~1\AppData\Local\Temp\cco4z3dl.s 			page 3


  19:../../libdaisy/src/hid/MidiEvent.h **** enum SystemCommonType
  20:../../libdaisy/src/hid/MidiEvent.h **** {
  21:../../libdaisy/src/hid/MidiEvent.h ****     SystemExclusive,     /**< & */
  22:../../libdaisy/src/hid/MidiEvent.h ****     MTCQuarterFrame,     /**< & */
  23:../../libdaisy/src/hid/MidiEvent.h ****     SongPositionPointer, /**< & */
  24:../../libdaisy/src/hid/MidiEvent.h ****     SongSelect,          /**< & */
  25:../../libdaisy/src/hid/MidiEvent.h ****     SCUndefined0,        /**< & */
  26:../../libdaisy/src/hid/MidiEvent.h ****     SCUndefined1,        /**< & */
  27:../../libdaisy/src/hid/MidiEvent.h ****     TuneRequest,         /**< & */
  28:../../libdaisy/src/hid/MidiEvent.h ****     SysExEnd,            /**< & */
  29:../../libdaisy/src/hid/MidiEvent.h ****     SystemCommonLast,    /**< & */
  30:../../libdaisy/src/hid/MidiEvent.h **** };
  31:../../libdaisy/src/hid/MidiEvent.h **** 
  32:../../libdaisy/src/hid/MidiEvent.h **** enum SystemRealTimeType
  33:../../libdaisy/src/hid/MidiEvent.h **** {
  34:../../libdaisy/src/hid/MidiEvent.h ****     TimingClock,        /**< & */
  35:../../libdaisy/src/hid/MidiEvent.h ****     SRTUndefined0,      /**< & */
  36:../../libdaisy/src/hid/MidiEvent.h ****     Start,              /**< & */
  37:../../libdaisy/src/hid/MidiEvent.h ****     Continue,           /**< & */
  38:../../libdaisy/src/hid/MidiEvent.h ****     Stop,               /**< & */
  39:../../libdaisy/src/hid/MidiEvent.h ****     SRTUndefined1,      /**< & */
  40:../../libdaisy/src/hid/MidiEvent.h ****     ActiveSensing,      /**< & */
  41:../../libdaisy/src/hid/MidiEvent.h ****     Reset,              /**< & */
  42:../../libdaisy/src/hid/MidiEvent.h ****     SystemRealTimeLast, /**< & */
  43:../../libdaisy/src/hid/MidiEvent.h **** };
  44:../../libdaisy/src/hid/MidiEvent.h **** 
  45:../../libdaisy/src/hid/MidiEvent.h **** enum ChannelModeType
  46:../../libdaisy/src/hid/MidiEvent.h **** {
  47:../../libdaisy/src/hid/MidiEvent.h ****     AllSoundOff,         /**< & */
  48:../../libdaisy/src/hid/MidiEvent.h ****     ResetAllControllers, /**< & */
  49:../../libdaisy/src/hid/MidiEvent.h ****     LocalControl,        /**< & */
  50:../../libdaisy/src/hid/MidiEvent.h ****     AllNotesOff,         /**< & */
  51:../../libdaisy/src/hid/MidiEvent.h ****     OmniModeOff,         /**< & */
  52:../../libdaisy/src/hid/MidiEvent.h ****     OmniModeOn,          /**< & */
  53:../../libdaisy/src/hid/MidiEvent.h ****     MonoModeOn,          /**< & */
  54:../../libdaisy/src/hid/MidiEvent.h ****     PolyModeOn,          /**< & */
  55:../../libdaisy/src/hid/MidiEvent.h ****     ChannelModeLast,     /**< & */
  56:../../libdaisy/src/hid/MidiEvent.h **** };
  57:../../libdaisy/src/hid/MidiEvent.h **** 
  58:../../libdaisy/src/hid/MidiEvent.h **** /** Struct containing note, and velocity data for a given channel.
  59:../../libdaisy/src/hid/MidiEvent.h **** Can be made from MidiEvent
  60:../../libdaisy/src/hid/MidiEvent.h **** */
  61:../../libdaisy/src/hid/MidiEvent.h **** struct NoteOffEvent
  62:../../libdaisy/src/hid/MidiEvent.h **** {
  63:../../libdaisy/src/hid/MidiEvent.h ****     int     channel;  /**< & */
  64:../../libdaisy/src/hid/MidiEvent.h ****     uint8_t note;     /**< & */
  65:../../libdaisy/src/hid/MidiEvent.h ****     uint8_t velocity; /**< & */
  66:../../libdaisy/src/hid/MidiEvent.h **** };
  67:../../libdaisy/src/hid/MidiEvent.h **** 
  68:../../libdaisy/src/hid/MidiEvent.h **** 
  69:../../libdaisy/src/hid/MidiEvent.h **** /** Struct containing note, and velocity data for a given channel.
  70:../../libdaisy/src/hid/MidiEvent.h **** Can be made from MidiEvent
  71:../../libdaisy/src/hid/MidiEvent.h **** */
  72:../../libdaisy/src/hid/MidiEvent.h **** struct NoteOnEvent
  73:../../libdaisy/src/hid/MidiEvent.h **** {
  74:../../libdaisy/src/hid/MidiEvent.h ****     int     channel;  /**< & */
  75:../../libdaisy/src/hid/MidiEvent.h ****     uint8_t note;     /**< & */
ARM GAS  C:\Users\VINCIU~1\AppData\Local\Temp\cco4z3dl.s 			page 4


  76:../../libdaisy/src/hid/MidiEvent.h ****     uint8_t velocity; /**< & */
  77:../../libdaisy/src/hid/MidiEvent.h **** };
  78:../../libdaisy/src/hid/MidiEvent.h **** /** Struct containing note, and pressure data for a given channel.
  79:../../libdaisy/src/hid/MidiEvent.h **** Can be made from MidiEvent
  80:../../libdaisy/src/hid/MidiEvent.h **** */
  81:../../libdaisy/src/hid/MidiEvent.h **** struct PolyphonicKeyPressureEvent
  82:../../libdaisy/src/hid/MidiEvent.h **** {
  83:../../libdaisy/src/hid/MidiEvent.h ****     int     channel;
  84:../../libdaisy/src/hid/MidiEvent.h ****     uint8_t note;
  85:../../libdaisy/src/hid/MidiEvent.h ****     uint8_t pressure;
  86:../../libdaisy/src/hid/MidiEvent.h **** };
  87:../../libdaisy/src/hid/MidiEvent.h **** /** Struct containing control number, and value for a given channel.
  88:../../libdaisy/src/hid/MidiEvent.h **** Can be made from MidiEvent
  89:../../libdaisy/src/hid/MidiEvent.h **** */
  90:../../libdaisy/src/hid/MidiEvent.h **** struct ControlChangeEvent
  91:../../libdaisy/src/hid/MidiEvent.h **** {
  92:../../libdaisy/src/hid/MidiEvent.h ****     int     channel;        /**< & */
  93:../../libdaisy/src/hid/MidiEvent.h ****     uint8_t control_number; /**< & */
  94:../../libdaisy/src/hid/MidiEvent.h ****     uint8_t value;          /**< & */
  95:../../libdaisy/src/hid/MidiEvent.h **** };
  96:../../libdaisy/src/hid/MidiEvent.h **** /** Struct containing new program number, for a given channel.
  97:../../libdaisy/src/hid/MidiEvent.h **** Can be made from MidiEvent
  98:../../libdaisy/src/hid/MidiEvent.h **** */
  99:../../libdaisy/src/hid/MidiEvent.h **** struct ProgramChangeEvent
 100:../../libdaisy/src/hid/MidiEvent.h **** {
 101:../../libdaisy/src/hid/MidiEvent.h ****     int     channel; /**< & */
 102:../../libdaisy/src/hid/MidiEvent.h ****     uint8_t program; /**< & */
 103:../../libdaisy/src/hid/MidiEvent.h **** };
 104:../../libdaisy/src/hid/MidiEvent.h **** /** Struct containing pressure (aftertouch), for a given channel.
 105:../../libdaisy/src/hid/MidiEvent.h **** Can be made from MidiEvent
 106:../../libdaisy/src/hid/MidiEvent.h **** */
 107:../../libdaisy/src/hid/MidiEvent.h **** struct ChannelPressureEvent
 108:../../libdaisy/src/hid/MidiEvent.h **** {
 109:../../libdaisy/src/hid/MidiEvent.h ****     int     channel;  /**< & */
 110:../../libdaisy/src/hid/MidiEvent.h ****     uint8_t pressure; /**< & */
 111:../../libdaisy/src/hid/MidiEvent.h **** };
 112:../../libdaisy/src/hid/MidiEvent.h **** /** Struct containing pitch bend value for a given channel.
 113:../../libdaisy/src/hid/MidiEvent.h **** Can be made from MidiEvent
 114:../../libdaisy/src/hid/MidiEvent.h **** */
 115:../../libdaisy/src/hid/MidiEvent.h **** struct PitchBendEvent
 116:../../libdaisy/src/hid/MidiEvent.h **** {
 117:../../libdaisy/src/hid/MidiEvent.h ****     int     channel; /**< & */
 118:../../libdaisy/src/hid/MidiEvent.h ****     int16_t value;   /**< & */
 119:../../libdaisy/src/hid/MidiEvent.h **** };
 120:../../libdaisy/src/hid/MidiEvent.h **** /** Struct containing sysex data.
 121:../../libdaisy/src/hid/MidiEvent.h **** Can be made from MidiEvent
 122:../../libdaisy/src/hid/MidiEvent.h **** */
 123:../../libdaisy/src/hid/MidiEvent.h **** struct SystemExclusiveEvent
 124:../../libdaisy/src/hid/MidiEvent.h **** {
 125:../../libdaisy/src/hid/MidiEvent.h ****     int     length;
 126:../../libdaisy/src/hid/MidiEvent.h ****     uint8_t data[SYSEX_BUFFER_LEN]; /**< & */
 127:../../libdaisy/src/hid/MidiEvent.h **** };
 128:../../libdaisy/src/hid/MidiEvent.h **** /** Struct containing QuarterFrame data.
 129:../../libdaisy/src/hid/MidiEvent.h **** Can be made from MidiEvent
 130:../../libdaisy/src/hid/MidiEvent.h **** */
 131:../../libdaisy/src/hid/MidiEvent.h **** struct MTCQuarterFrameEvent
 132:../../libdaisy/src/hid/MidiEvent.h **** {
ARM GAS  C:\Users\VINCIU~1\AppData\Local\Temp\cco4z3dl.s 			page 5


 133:../../libdaisy/src/hid/MidiEvent.h ****     uint8_t message_type; /**< & */
 134:../../libdaisy/src/hid/MidiEvent.h ****     uint8_t value;        /**< & */
 135:../../libdaisy/src/hid/MidiEvent.h **** };
 136:../../libdaisy/src/hid/MidiEvent.h **** /** Struct containing song position data.
 137:../../libdaisy/src/hid/MidiEvent.h **** Can be made from MidiEvent
 138:../../libdaisy/src/hid/MidiEvent.h **** */
 139:../../libdaisy/src/hid/MidiEvent.h **** struct SongPositionPointerEvent
 140:../../libdaisy/src/hid/MidiEvent.h **** {
 141:../../libdaisy/src/hid/MidiEvent.h ****     uint16_t position; /**< & */
 142:../../libdaisy/src/hid/MidiEvent.h **** };
 143:../../libdaisy/src/hid/MidiEvent.h **** /** Struct containing song select data.
 144:../../libdaisy/src/hid/MidiEvent.h **** Can be made from MidiEvent
 145:../../libdaisy/src/hid/MidiEvent.h **** */
 146:../../libdaisy/src/hid/MidiEvent.h **** struct SongSelectEvent
 147:../../libdaisy/src/hid/MidiEvent.h **** {
 148:../../libdaisy/src/hid/MidiEvent.h ****     uint8_t song; /**< & */
 149:../../libdaisy/src/hid/MidiEvent.h **** };
 150:../../libdaisy/src/hid/MidiEvent.h **** /** Struct containing sound off data.
 151:../../libdaisy/src/hid/MidiEvent.h **** Can be made from MidiEvent
 152:../../libdaisy/src/hid/MidiEvent.h **** */
 153:../../libdaisy/src/hid/MidiEvent.h **** struct AllSoundOffEvent
 154:../../libdaisy/src/hid/MidiEvent.h **** {
 155:../../libdaisy/src/hid/MidiEvent.h ****     int channel; /**< & */
 156:../../libdaisy/src/hid/MidiEvent.h **** };
 157:../../libdaisy/src/hid/MidiEvent.h **** /** Struct containing ResetAllControllersEvent data.
 158:../../libdaisy/src/hid/MidiEvent.h **** Can be made from MidiEvent
 159:../../libdaisy/src/hid/MidiEvent.h **** */
 160:../../libdaisy/src/hid/MidiEvent.h **** struct ResetAllControllersEvent
 161:../../libdaisy/src/hid/MidiEvent.h **** {
 162:../../libdaisy/src/hid/MidiEvent.h ****     int     channel; /**< & */
 163:../../libdaisy/src/hid/MidiEvent.h ****     uint8_t value;   /**< & */
 164:../../libdaisy/src/hid/MidiEvent.h **** };
 165:../../libdaisy/src/hid/MidiEvent.h **** /** Struct containing LocalControlEvent data.
 166:../../libdaisy/src/hid/MidiEvent.h **** Can be made from MidiEvent
 167:../../libdaisy/src/hid/MidiEvent.h **** */
 168:../../libdaisy/src/hid/MidiEvent.h **** struct LocalControlEvent
 169:../../libdaisy/src/hid/MidiEvent.h **** {
 170:../../libdaisy/src/hid/MidiEvent.h ****     int  channel;           /**< & */
 171:../../libdaisy/src/hid/MidiEvent.h ****     bool local_control_off; /**< & */
 172:../../libdaisy/src/hid/MidiEvent.h ****     bool local_control_on;  /**< & */
 173:../../libdaisy/src/hid/MidiEvent.h **** };
 174:../../libdaisy/src/hid/MidiEvent.h **** /** Struct containing AllNotesOffEvent data.
 175:../../libdaisy/src/hid/MidiEvent.h **** Can be made from MidiEvent
 176:../../libdaisy/src/hid/MidiEvent.h **** */
 177:../../libdaisy/src/hid/MidiEvent.h **** struct AllNotesOffEvent
 178:../../libdaisy/src/hid/MidiEvent.h **** {
 179:../../libdaisy/src/hid/MidiEvent.h ****     int channel; /**< & */
 180:../../libdaisy/src/hid/MidiEvent.h **** };
 181:../../libdaisy/src/hid/MidiEvent.h **** /** Struct containing OmniModeOffEvent data. 
 182:../../libdaisy/src/hid/MidiEvent.h ****  * Can be made from MidiEvent
 183:../../libdaisy/src/hid/MidiEvent.h **** */
 184:../../libdaisy/src/hid/MidiEvent.h **** struct OmniModeOffEvent
 185:../../libdaisy/src/hid/MidiEvent.h **** {
 186:../../libdaisy/src/hid/MidiEvent.h ****     int channel; /**< & */
 187:../../libdaisy/src/hid/MidiEvent.h **** };
 188:../../libdaisy/src/hid/MidiEvent.h **** /** Struct containing OmniModeOnEvent data.
 189:../../libdaisy/src/hid/MidiEvent.h **** Can be made from MidiEvent
ARM GAS  C:\Users\VINCIU~1\AppData\Local\Temp\cco4z3dl.s 			page 6


 190:../../libdaisy/src/hid/MidiEvent.h **** */
 191:../../libdaisy/src/hid/MidiEvent.h **** struct OmniModeOnEvent
 192:../../libdaisy/src/hid/MidiEvent.h **** {
 193:../../libdaisy/src/hid/MidiEvent.h ****     int channel; /**< & */
 194:../../libdaisy/src/hid/MidiEvent.h **** };
 195:../../libdaisy/src/hid/MidiEvent.h **** /** Struct containing MonoModeOnEvent data.
 196:../../libdaisy/src/hid/MidiEvent.h **** Can be made from MidiEvent
 197:../../libdaisy/src/hid/MidiEvent.h **** */
 198:../../libdaisy/src/hid/MidiEvent.h **** struct MonoModeOnEvent
 199:../../libdaisy/src/hid/MidiEvent.h **** {
 200:../../libdaisy/src/hid/MidiEvent.h ****     int     channel;      /**< & */
 201:../../libdaisy/src/hid/MidiEvent.h ****     uint8_t num_channels; /**< & */
 202:../../libdaisy/src/hid/MidiEvent.h **** };
 203:../../libdaisy/src/hid/MidiEvent.h **** /** Struct containing PolyModeOnEvent data.
 204:../../libdaisy/src/hid/MidiEvent.h **** Can be made from MidiEvent
 205:../../libdaisy/src/hid/MidiEvent.h **** */
 206:../../libdaisy/src/hid/MidiEvent.h **** struct PolyModeOnEvent
 207:../../libdaisy/src/hid/MidiEvent.h **** {
 208:../../libdaisy/src/hid/MidiEvent.h ****     int channel; /**< & */
 209:../../libdaisy/src/hid/MidiEvent.h **** };
 210:../../libdaisy/src/hid/MidiEvent.h **** 
 211:../../libdaisy/src/hid/MidiEvent.h **** 
 212:../../libdaisy/src/hid/MidiEvent.h **** /** Simple MidiEvent with message type, channel, and data[2] members.
 213:../../libdaisy/src/hid/MidiEvent.h **** */
 214:../../libdaisy/src/hid/MidiEvent.h **** struct MidiEvent
 215:../../libdaisy/src/hid/MidiEvent.h **** {
 216:../../libdaisy/src/hid/MidiEvent.h ****     // Newer ish.
 217:../../libdaisy/src/hid/MidiEvent.h ****     MidiMessageType    type;                         /**< & */
 218:../../libdaisy/src/hid/MidiEvent.h ****     int                channel;                      /**< & */
 219:../../libdaisy/src/hid/MidiEvent.h ****     uint8_t            data[2];                      /**< & */
 220:../../libdaisy/src/hid/MidiEvent.h ****     uint8_t            sysex_data[SYSEX_BUFFER_LEN]; /**< & */
 221:../../libdaisy/src/hid/MidiEvent.h ****     uint8_t            sysex_message_len;
 222:../../libdaisy/src/hid/MidiEvent.h ****     SystemCommonType   sc_type;
 223:../../libdaisy/src/hid/MidiEvent.h ****     SystemRealTimeType srt_type;
 224:../../libdaisy/src/hid/MidiEvent.h ****     ChannelModeType    cm_type;
 225:../../libdaisy/src/hid/MidiEvent.h **** 
 226:../../libdaisy/src/hid/MidiEvent.h ****     /** Returns the data within the MidiEvent as a NoteOffEvent struct */
 227:../../libdaisy/src/hid/MidiEvent.h ****     NoteOffEvent AsNoteOff()
 228:../../libdaisy/src/hid/MidiEvent.h ****     {
 229:../../libdaisy/src/hid/MidiEvent.h ****         NoteOffEvent m;
 230:../../libdaisy/src/hid/MidiEvent.h ****         m.channel  = channel;
 231:../../libdaisy/src/hid/MidiEvent.h ****         m.note     = data[0];
 232:../../libdaisy/src/hid/MidiEvent.h ****         m.velocity = data[1];
 233:../../libdaisy/src/hid/MidiEvent.h ****         return m;
 234:../../libdaisy/src/hid/MidiEvent.h ****     }
 235:../../libdaisy/src/hid/MidiEvent.h **** 
 236:../../libdaisy/src/hid/MidiEvent.h ****     /** Returns the data within the MidiEvent as a NoteOnEvent struct */
 237:../../libdaisy/src/hid/MidiEvent.h ****     NoteOnEvent AsNoteOn()
  65              		.loc 2 237 17 view .LVU9
  66              	.LBB55:
 238:../../libdaisy/src/hid/MidiEvent.h ****     {
 239:../../libdaisy/src/hid/MidiEvent.h ****         NoteOnEvent m;
  67              		.loc 2 239 9 view .LVU10
 240:../../libdaisy/src/hid/MidiEvent.h ****         m.channel  = channel;
  68              		.loc 2 240 9 view .LVU11
 241:../../libdaisy/src/hid/MidiEvent.h ****         m.note     = data[0];
  69              		.loc 2 241 9 view .LVU12
ARM GAS  C:\Users\VINCIU~1\AppData\Local\Temp\cco4z3dl.s 			page 7


 242:../../libdaisy/src/hid/MidiEvent.h ****         m.velocity = data[1];
  70              		.loc 2 242 9 view .LVU13
 243:../../libdaisy/src/hid/MidiEvent.h ****         return m;
  71              		.loc 2 243 9 view .LVU14
  72              		.loc 2 243 9 is_stmt 0 view .LVU15
  73              	.LBE55:
  74              	.LBE54:
  34:globalFunc.cpp ****             if(m.data[1] != 0)
  75              		.loc 1 34 13 is_stmt 1 view .LVU16
  76 001a 62B9     		cbnz	r2, .L12
  77              	.LVL3:
  78              	.L1:
  79              		.loc 1 34 13 is_stmt 0 view .LVU17
  80              	.LBE53:
  81              	.LBE52:
  82              	.LBE79:
  35:globalFunc.cpp ****             {
  36:globalFunc.cpp ****                 osc->SetFreq(mtof(p.note));
  37:globalFunc.cpp ****                 osc->SetAmp(0.7);
  38:globalFunc.cpp ****             }
  39:globalFunc.cpp ****         }
  40:globalFunc.cpp ****         break;
  41:globalFunc.cpp **** 
  42:globalFunc.cpp ****         case NoteOff:
  43:globalFunc.cpp ****         {
  44:globalFunc.cpp ****             if(m.data[1] != 0)
  45:globalFunc.cpp ****             {
  46:globalFunc.cpp ****                 osc->SetAmp(0);
  47:globalFunc.cpp ****             }
  48:globalFunc.cpp ****         }
  49:globalFunc.cpp ****         break;
  50:globalFunc.cpp ****         default: break;
  51:globalFunc.cpp ****     }
  52:globalFunc.cpp **** }...
  83              		.loc 1 52 1 view .LVU18
  84 001c BDE80840 		pop	{r3, lr}
  85              		.cfi_remember_state
  86              		.cfi_restore 14
  87              		.cfi_restore 3
  88              		.cfi_def_cfa_offset 16
  89 0020 04B0     		add	sp, sp, #16
  90              		.cfi_def_cfa_offset 0
  91 0022 7047     		bx	lr
  92              	.L2:
  93              		.cfi_restore_state
  94              	.LBB80:
  95              	.LBB77:
  42:globalFunc.cpp ****         case NoteOff:
  96              		.loc 1 42 9 is_stmt 1 view .LVU19
  43:globalFunc.cpp ****         {
  97              		.loc 1 43 9 view .LVU20
  44:globalFunc.cpp ****             if(m.data[1] != 0)
  98              		.loc 1 44 13 view .LVU21
  99 0024 002A     		cmp	r2, #0
 100 0026 F9D0     		beq	.L1
  46:globalFunc.cpp ****                 osc->SetAmp(0);
 101              		.loc 1 46 17 view .LVU22
ARM GAS  C:\Users\VINCIU~1\AppData\Local\Temp\cco4z3dl.s 			page 8


 102              	.LVL4:
 103              	.LBB74:
 104              	.LBI74:
 105              		.file 3 "../../DaisySP/Source/Synthesis/oscillator.h"
   1:../../DaisySP/Source/Synthesis/oscillator.h **** #pragma once
   2:../../DaisySP/Source/Synthesis/oscillator.h **** #ifndef DSY_OSCILLATOR_H
   3:../../DaisySP/Source/Synthesis/oscillator.h **** #define DSY_OSCILLATOR_H
   4:../../DaisySP/Source/Synthesis/oscillator.h **** #include <stdint.h>
   5:../../DaisySP/Source/Synthesis/oscillator.h **** #include "Utility/dsp.h"
   6:../../DaisySP/Source/Synthesis/oscillator.h **** #ifdef __cplusplus
   7:../../DaisySP/Source/Synthesis/oscillator.h **** 
   8:../../DaisySP/Source/Synthesis/oscillator.h **** namespace daisysp
   9:../../DaisySP/Source/Synthesis/oscillator.h **** {
  10:../../DaisySP/Source/Synthesis/oscillator.h **** /** Synthesis of several waveforms, including polyBLEP bandlimited waveforms.
  11:../../DaisySP/Source/Synthesis/oscillator.h **** */
  12:../../DaisySP/Source/Synthesis/oscillator.h **** class Oscillator
  13:../../DaisySP/Source/Synthesis/oscillator.h **** {
  14:../../DaisySP/Source/Synthesis/oscillator.h ****   public:
  15:../../DaisySP/Source/Synthesis/oscillator.h ****     Oscillator() {}
  16:../../DaisySP/Source/Synthesis/oscillator.h ****     ~Oscillator() {}
  17:../../DaisySP/Source/Synthesis/oscillator.h ****     /** Choices for output waveforms, POLYBLEP are appropriately labeled. Others are naive forms.
  18:../../DaisySP/Source/Synthesis/oscillator.h ****     */
  19:../../DaisySP/Source/Synthesis/oscillator.h ****     enum
  20:../../DaisySP/Source/Synthesis/oscillator.h ****     {
  21:../../DaisySP/Source/Synthesis/oscillator.h ****         WAVE_SIN,
  22:../../DaisySP/Source/Synthesis/oscillator.h ****         WAVE_TRI,
  23:../../DaisySP/Source/Synthesis/oscillator.h ****         WAVE_SAW,
  24:../../DaisySP/Source/Synthesis/oscillator.h ****         WAVE_RAMP,
  25:../../DaisySP/Source/Synthesis/oscillator.h ****         WAVE_SQUARE,
  26:../../DaisySP/Source/Synthesis/oscillator.h ****         WAVE_POLYBLEP_TRI,
  27:../../DaisySP/Source/Synthesis/oscillator.h ****         WAVE_POLYBLEP_SAW,
  28:../../DaisySP/Source/Synthesis/oscillator.h ****         WAVE_POLYBLEP_SQUARE,
  29:../../DaisySP/Source/Synthesis/oscillator.h ****         WAVE_LAST,
  30:../../DaisySP/Source/Synthesis/oscillator.h ****     };
  31:../../DaisySP/Source/Synthesis/oscillator.h **** 
  32:../../DaisySP/Source/Synthesis/oscillator.h **** 
  33:../../DaisySP/Source/Synthesis/oscillator.h ****     /** Initializes the Oscillator
  34:../../DaisySP/Source/Synthesis/oscillator.h **** 
  35:../../DaisySP/Source/Synthesis/oscillator.h ****         \param sample_rate - sample rate of the audio engine being run, and the frequency that the 
  36:../../DaisySP/Source/Synthesis/oscillator.h **** 
  37:../../DaisySP/Source/Synthesis/oscillator.h ****         Defaults:
  38:../../DaisySP/Source/Synthesis/oscillator.h ****         - freq_ = 100 Hz
  39:../../DaisySP/Source/Synthesis/oscillator.h ****         - amp_ = 0.5
  40:../../DaisySP/Source/Synthesis/oscillator.h ****         - waveform_ = sine wave.
  41:../../DaisySP/Source/Synthesis/oscillator.h ****     */
  42:../../DaisySP/Source/Synthesis/oscillator.h ****     void Init(float sample_rate)
  43:../../DaisySP/Source/Synthesis/oscillator.h ****     {
  44:../../DaisySP/Source/Synthesis/oscillator.h ****         sr_        = sample_rate;
  45:../../DaisySP/Source/Synthesis/oscillator.h ****         sr_recip_  = 1.0f / sample_rate;
  46:../../DaisySP/Source/Synthesis/oscillator.h ****         freq_      = 100.0f;
  47:../../DaisySP/Source/Synthesis/oscillator.h ****         amp_       = 0.5f;
  48:../../DaisySP/Source/Synthesis/oscillator.h ****         phase_     = 0.0f;
  49:../../DaisySP/Source/Synthesis/oscillator.h ****         phase_inc_ = CalcPhaseInc(freq_);
  50:../../DaisySP/Source/Synthesis/oscillator.h ****         waveform_  = WAVE_SIN;
  51:../../DaisySP/Source/Synthesis/oscillator.h ****         eoc_       = true;
  52:../../DaisySP/Source/Synthesis/oscillator.h ****         eor_       = true;
  53:../../DaisySP/Source/Synthesis/oscillator.h ****     }
ARM GAS  C:\Users\VINCIU~1\AppData\Local\Temp\cco4z3dl.s 			page 9


  54:../../DaisySP/Source/Synthesis/oscillator.h **** 
  55:../../DaisySP/Source/Synthesis/oscillator.h **** 
  56:../../DaisySP/Source/Synthesis/oscillator.h ****     /** Changes the frequency of the Oscillator, and recalculates phase increment.
  57:../../DaisySP/Source/Synthesis/oscillator.h ****     */
  58:../../DaisySP/Source/Synthesis/oscillator.h ****     inline void SetFreq(const float f)
  59:../../DaisySP/Source/Synthesis/oscillator.h ****     {
  60:../../DaisySP/Source/Synthesis/oscillator.h ****         freq_      = f;
  61:../../DaisySP/Source/Synthesis/oscillator.h ****         phase_inc_ = CalcPhaseInc(f);
  62:../../DaisySP/Source/Synthesis/oscillator.h ****     }
  63:../../DaisySP/Source/Synthesis/oscillator.h **** 
  64:../../DaisySP/Source/Synthesis/oscillator.h **** 
  65:../../DaisySP/Source/Synthesis/oscillator.h ****     /** Sets the amplitude of the waveform.
  66:../../DaisySP/Source/Synthesis/oscillator.h ****     */
  67:../../DaisySP/Source/Synthesis/oscillator.h ****     inline void SetAmp(const float a) { amp_ = a; }
 106              		.loc 3 67 17 view .LVU23
 107              	.LBB75:
 108              		.loc 3 67 41 view .LVU24
 109              		.loc 3 67 46 is_stmt 0 view .LVU25
 110 0028 0023     		movs	r3, #0
 111 002a 1F9A     		ldr	r2, [sp, #124]
 112              	.LVL5:
 113              		.loc 3 67 46 view .LVU26
 114 002c 5360     		str	r3, [r2, #4]	@ float
 115              	.LVL6:
 116              		.loc 3 67 46 view .LVU27
 117              	.LBE75:
 118              	.LBE74:
 119              	.LBE77:
 120              	.LBE80:
 121              		.loc 1 52 1 view .LVU28
 122 002e BDE80840 		pop	{r3, lr}
 123              		.cfi_remember_state
 124              		.cfi_restore 14
 125              		.cfi_restore 3
 126              		.cfi_def_cfa_offset 16
 127 0032 04B0     		add	sp, sp, #16
 128              		.cfi_def_cfa_offset 0
 129 0034 7047     		bx	lr
 130              	.LVL7:
 131              	.L12:
 132              		.cfi_restore_state
 133              	.LBB81:
 134              	.LBB78:
 135              	.LBB76:
  36:globalFunc.cpp ****                 osc->SetFreq(mtof(p.note));
 136              		.loc 1 36 17 is_stmt 1 view .LVU29
 137              	.LBB56:
 138              	.LBI56:
 139              		.file 4 "../../DaisySP/Source/Utility/dsp.h"
   1:../../DaisySP/Source/Utility/dsp.h **** /** Helpful defines, functions, and other utilities for use in/with daisysp modules.
   2:../../DaisySP/Source/Utility/dsp.h **** */
   3:../../DaisySP/Source/Utility/dsp.h **** #pragma once
   4:../../DaisySP/Source/Utility/dsp.h **** #ifndef DSY_CORE_DSP
   5:../../DaisySP/Source/Utility/dsp.h **** #define DSY_CORE_DSP
   6:../../DaisySP/Source/Utility/dsp.h **** #include <cassert>
   7:../../DaisySP/Source/Utility/dsp.h **** #include <cstdint>
   8:../../DaisySP/Source/Utility/dsp.h **** #include <random>
ARM GAS  C:\Users\VINCIU~1\AppData\Local\Temp\cco4z3dl.s 			page 10


   9:../../DaisySP/Source/Utility/dsp.h **** #include <cmath>
  10:../../DaisySP/Source/Utility/dsp.h **** 
  11:../../DaisySP/Source/Utility/dsp.h **** /** PIs
  12:../../DaisySP/Source/Utility/dsp.h **** */
  13:../../DaisySP/Source/Utility/dsp.h **** #define PI_F 3.1415927410125732421875f
  14:../../DaisySP/Source/Utility/dsp.h **** #define TWOPI_F (2.0f * PI_F)
  15:../../DaisySP/Source/Utility/dsp.h **** #define HALFPI_F (PI_F * 0.5f)
  16:../../DaisySP/Source/Utility/dsp.h **** #define DSY_MIN(in, mn) (in < mn ? in : mn)
  17:../../DaisySP/Source/Utility/dsp.h **** #define DSY_MAX(in, mx) (in > mx ? in : mx)
  18:../../DaisySP/Source/Utility/dsp.h **** #define DSY_CLAMP(in, mn, mx) (DSY_MIN(DSY_MAX(in, mn), mx))
  19:../../DaisySP/Source/Utility/dsp.h **** #define DSY_COUNTOF(_arr) (sizeof(_arr) / sizeof(_arr[0]))
  20:../../DaisySP/Source/Utility/dsp.h **** 
  21:../../DaisySP/Source/Utility/dsp.h **** namespace daisysp
  22:../../DaisySP/Source/Utility/dsp.h **** {
  23:../../DaisySP/Source/Utility/dsp.h **** //Avoids division for random floats. e.g. rand() * kRandFrac
  24:../../DaisySP/Source/Utility/dsp.h **** static constexpr float kRandFrac = 1.f / (float)RAND_MAX;
  25:../../DaisySP/Source/Utility/dsp.h **** 
  26:../../DaisySP/Source/Utility/dsp.h **** //Convert from semitones to other units. e.g. 2 ^ (kOneTwelfth * x)
  27:../../DaisySP/Source/Utility/dsp.h **** static constexpr float kOneTwelfth = 1.f / 12.f;
  28:../../DaisySP/Source/Utility/dsp.h **** 
  29:../../DaisySP/Source/Utility/dsp.h **** /** efficient floating point min/max
  30:../../DaisySP/Source/Utility/dsp.h **** c/o stephen mccaul
  31:../../DaisySP/Source/Utility/dsp.h **** */
  32:../../DaisySP/Source/Utility/dsp.h **** inline float fmax(float a, float b)
  33:../../DaisySP/Source/Utility/dsp.h **** {
  34:../../DaisySP/Source/Utility/dsp.h ****     float r;
  35:../../DaisySP/Source/Utility/dsp.h **** #ifdef __arm__
  36:../../DaisySP/Source/Utility/dsp.h ****     asm("vmaxnm.f32 %[d], %[n], %[m]" : [d] "=t"(r) : [n] "t"(a), [m] "t"(b) :);
  37:../../DaisySP/Source/Utility/dsp.h **** #else
  38:../../DaisySP/Source/Utility/dsp.h ****     r = (a > b) ? a : b;
  39:../../DaisySP/Source/Utility/dsp.h **** #endif // __arm__
  40:../../DaisySP/Source/Utility/dsp.h ****     return r;
  41:../../DaisySP/Source/Utility/dsp.h **** }
  42:../../DaisySP/Source/Utility/dsp.h **** 
  43:../../DaisySP/Source/Utility/dsp.h **** inline float fmin(float a, float b)
  44:../../DaisySP/Source/Utility/dsp.h **** {
  45:../../DaisySP/Source/Utility/dsp.h ****     float r;
  46:../../DaisySP/Source/Utility/dsp.h **** #ifdef __arm__
  47:../../DaisySP/Source/Utility/dsp.h ****     asm("vminnm.f32 %[d], %[n], %[m]" : [d] "=t"(r) : [n] "t"(a), [m] "t"(b) :);
  48:../../DaisySP/Source/Utility/dsp.h **** #else
  49:../../DaisySP/Source/Utility/dsp.h ****     r = (a < b) ? a : b;
  50:../../DaisySP/Source/Utility/dsp.h **** #endif // __arm__
  51:../../DaisySP/Source/Utility/dsp.h ****     return r;
  52:../../DaisySP/Source/Utility/dsp.h **** }
  53:../../DaisySP/Source/Utility/dsp.h **** 
  54:../../DaisySP/Source/Utility/dsp.h **** /** quick fp clamp
  55:../../DaisySP/Source/Utility/dsp.h **** */
  56:../../DaisySP/Source/Utility/dsp.h **** inline float fclamp(float in, float min, float max)
  57:../../DaisySP/Source/Utility/dsp.h **** {
  58:../../DaisySP/Source/Utility/dsp.h ****     return fmin(fmax(in, min), max);
  59:../../DaisySP/Source/Utility/dsp.h **** }
  60:../../DaisySP/Source/Utility/dsp.h **** 
  61:../../DaisySP/Source/Utility/dsp.h **** /** From Musicdsp.org "Fast power and root estimates for 32bit floats)
  62:../../DaisySP/Source/Utility/dsp.h **** Original code by Stefan Stenzel
  63:../../DaisySP/Source/Utility/dsp.h **** These are approximations
  64:../../DaisySP/Source/Utility/dsp.h **** */
  65:../../DaisySP/Source/Utility/dsp.h **** inline float fastpower(float f, int n)
ARM GAS  C:\Users\VINCIU~1\AppData\Local\Temp\cco4z3dl.s 			page 11


  66:../../DaisySP/Source/Utility/dsp.h **** {
  67:../../DaisySP/Source/Utility/dsp.h ****     long *lp, l;
  68:../../DaisySP/Source/Utility/dsp.h ****     lp = (long *)(&f);
  69:../../DaisySP/Source/Utility/dsp.h ****     l  = *lp;
  70:../../DaisySP/Source/Utility/dsp.h ****     l -= 0x3F800000;
  71:../../DaisySP/Source/Utility/dsp.h ****     l <<= (n - 1);
  72:../../DaisySP/Source/Utility/dsp.h ****     l += 0x3F800000;
  73:../../DaisySP/Source/Utility/dsp.h ****     *lp = l;
  74:../../DaisySP/Source/Utility/dsp.h ****     return f;
  75:../../DaisySP/Source/Utility/dsp.h **** }
  76:../../DaisySP/Source/Utility/dsp.h **** 
  77:../../DaisySP/Source/Utility/dsp.h **** inline float fastroot(float f, int n)
  78:../../DaisySP/Source/Utility/dsp.h **** {
  79:../../DaisySP/Source/Utility/dsp.h ****     long *lp, l;
  80:../../DaisySP/Source/Utility/dsp.h ****     lp = (long *)(&f);
  81:../../DaisySP/Source/Utility/dsp.h ****     l  = *lp;
  82:../../DaisySP/Source/Utility/dsp.h ****     l -= 0x3F800000;
  83:../../DaisySP/Source/Utility/dsp.h ****     l >>= (n = 1);
  84:../../DaisySP/Source/Utility/dsp.h ****     l += 0x3F800000;
  85:../../DaisySP/Source/Utility/dsp.h ****     *lp = l;
  86:../../DaisySP/Source/Utility/dsp.h ****     return f;
  87:../../DaisySP/Source/Utility/dsp.h **** }
  88:../../DaisySP/Source/Utility/dsp.h **** 
  89:../../DaisySP/Source/Utility/dsp.h **** /** From http://openaudio.blogspot.com/2017/02/faster-log10-and-pow.html
  90:../../DaisySP/Source/Utility/dsp.h **** No approximation, pow10f(x) gives a 90% speed increase over powf(10.f, x)
  91:../../DaisySP/Source/Utility/dsp.h **** */
  92:../../DaisySP/Source/Utility/dsp.h **** inline float pow10f(float f)
  93:../../DaisySP/Source/Utility/dsp.h **** {
  94:../../DaisySP/Source/Utility/dsp.h ****     return expf(2.302585092994046f * f);
  95:../../DaisySP/Source/Utility/dsp.h **** }
  96:../../DaisySP/Source/Utility/dsp.h **** 
  97:../../DaisySP/Source/Utility/dsp.h **** /* Original code for fastlog2f by Dr. Paul Beckmann from the ARM community forum, adapted from the 
  98:../../DaisySP/Source/Utility/dsp.h **** About 25% performance increase over std::log10f
  99:../../DaisySP/Source/Utility/dsp.h **** */
 100:../../DaisySP/Source/Utility/dsp.h **** inline float fastlog2f(float f)
 101:../../DaisySP/Source/Utility/dsp.h **** {
 102:../../DaisySP/Source/Utility/dsp.h ****     float frac;
 103:../../DaisySP/Source/Utility/dsp.h ****     int   exp;
 104:../../DaisySP/Source/Utility/dsp.h ****     frac = frexpf(fabsf(f), &exp);
 105:../../DaisySP/Source/Utility/dsp.h ****     f    = 1.23149591368684f;
 106:../../DaisySP/Source/Utility/dsp.h ****     f *= frac;
 107:../../DaisySP/Source/Utility/dsp.h ****     f += -4.11852516267426f;
 108:../../DaisySP/Source/Utility/dsp.h ****     f *= frac;
 109:../../DaisySP/Source/Utility/dsp.h ****     f += 6.02197014179219f;
 110:../../DaisySP/Source/Utility/dsp.h ****     f *= frac;
 111:../../DaisySP/Source/Utility/dsp.h ****     f += -3.13396450166353f;
 112:../../DaisySP/Source/Utility/dsp.h ****     f += exp;
 113:../../DaisySP/Source/Utility/dsp.h ****     return (f);
 114:../../DaisySP/Source/Utility/dsp.h **** }
 115:../../DaisySP/Source/Utility/dsp.h **** 
 116:../../DaisySP/Source/Utility/dsp.h **** inline float fastlog10f(float f)
 117:../../DaisySP/Source/Utility/dsp.h **** {
 118:../../DaisySP/Source/Utility/dsp.h ****     return fastlog2f(f) * 0.3010299956639812f;
 119:../../DaisySP/Source/Utility/dsp.h **** }
 120:../../DaisySP/Source/Utility/dsp.h **** 
 121:../../DaisySP/Source/Utility/dsp.h **** /** Midi to frequency helper
 122:../../DaisySP/Source/Utility/dsp.h **** */
ARM GAS  C:\Users\VINCIU~1\AppData\Local\Temp\cco4z3dl.s 			page 12


 123:../../DaisySP/Source/Utility/dsp.h **** inline float mtof(float m)
 140              		.loc 4 123 14 view .LVU30
 141              	.LBB57:
 124:../../DaisySP/Source/Utility/dsp.h **** {
 125:../../DaisySP/Source/Utility/dsp.h ****     return powf(2, (m - 69.0f) / 12.0f) * 440.0f;
 142              		.loc 4 125 5 view .LVU31
 143              	.LBE57:
 144              	.LBE56:
  36:globalFunc.cpp ****                 osc->SetFreq(mtof(p.note));
 145              		.loc 1 36 29 is_stmt 0 view .LVU32
 146 0036 9DF81030 		ldrb	r3, [sp, #16]	@ zero_extendqisi2
 147              	.LBB61:
 148              	.LBB58:
 149              		.loc 4 125 16 view .LVU33
 150 003a F2EE080A 		vmov.f32	s1, #1.2e+1
 151              		.loc 4 125 23 view .LVU34
 152 003e 9FED107A 		vldr.32	s14, .L13
 153              		.loc 4 125 16 view .LVU35
 154 0042 B0EE000A 		vmov.f32	s0, #2.0e+0
 155              	.LBE58:
 156              	.LBE61:
  36:globalFunc.cpp ****                 osc->SetFreq(mtof(p.note));
 157              		.loc 1 36 29 view .LVU36
 158 0046 07EE903A 		vmov	s15, r3	@ int
 159 004a F8EE677A 		vcvt.f32.u32	s15, s15
 160              	.LBB62:
 161              	.LBB59:
 162              		.loc 4 125 23 view .LVU37
 163 004e 77EEC77A 		vsub.f32	s15, s15, s14
 164              		.loc 4 125 16 view .LVU38
 165 0052 C7EEA00A 		vdiv.f32	s1, s15, s1
 166 0056 FFF7FEFF 		bl	powf
 167              	.LVL8:
 168              		.loc 4 125 43 view .LVU39
 169 005a DFED0A7A 		vldr.32	s15, .L13+4
 170              	.LBE59:
 171              	.LBE62:
 172              	.LBB63:
 173              	.LBB64:
  61:../../DaisySP/Source/Synthesis/oscillator.h ****     }
 174              		.loc 3 61 34 view .LVU40
 175 005e 1F98     		ldr	r0, [sp, #124]
 176              	.LBE64:
 177              	.LBE63:
 178              	.LBB67:
 179              	.LBB60:
 180              		.loc 4 125 43 view .LVU41
 181 0060 20EE270A 		vmul.f32	s0, s0, s15
 182              	.LVL9:
 183              		.loc 4 125 43 view .LVU42
 184              	.LBE60:
 185              	.LBE67:
 186              	.LBB68:
 187              	.LBI63:
  58:../../DaisySP/Source/Synthesis/oscillator.h ****     {
 188              		.loc 3 58 17 is_stmt 1 view .LVU43
 189              	.LBB65:
ARM GAS  C:\Users\VINCIU~1\AppData\Local\Temp\cco4z3dl.s 			page 13


  60:../../DaisySP/Source/Synthesis/oscillator.h ****         phase_inc_ = CalcPhaseInc(f);
 190              		.loc 3 60 9 view .LVU44
  60:../../DaisySP/Source/Synthesis/oscillator.h ****         phase_inc_ = CalcPhaseInc(f);
 191              		.loc 3 60 20 is_stmt 0 view .LVU45
 192 0064 80ED020A 		vstr.32	s0, [r0, #8]
  61:../../DaisySP/Source/Synthesis/oscillator.h ****     }
 193              		.loc 3 61 9 is_stmt 1 view .LVU46
  61:../../DaisySP/Source/Synthesis/oscillator.h ****     }
 194              		.loc 3 61 34 is_stmt 0 view .LVU47
 195 0068 FFF7FEFF 		bl	_ZN7daisysp10Oscillator12CalcPhaseIncEf
 196              	.LVL10:
  61:../../DaisySP/Source/Synthesis/oscillator.h ****     }
 197              		.loc 3 61 20 view .LVU48
 198 006c 1F9A     		ldr	r2, [sp, #124]
 199              	.LBE65:
 200              	.LBE68:
 201              	.LBB69:
 202              	.LBB70:
 203              		.loc 3 67 46 view .LVU49
 204 006e 064B     		ldr	r3, .L13+8
 205              	.LBE70:
 206              	.LBE69:
 207              	.LBB72:
 208              	.LBB66:
  61:../../DaisySP/Source/Synthesis/oscillator.h ****     }
 209              		.loc 3 61 20 view .LVU50
 210 0070 82ED060A 		vstr.32	s0, [r2, #24]
 211              	.LVL11:
  61:../../DaisySP/Source/Synthesis/oscillator.h ****     }
 212              		.loc 3 61 20 view .LVU51
 213              	.LBE66:
 214              	.LBE72:
  37:globalFunc.cpp ****                 osc->SetAmp(0.7);
 215              		.loc 1 37 17 is_stmt 1 view .LVU52
 216              	.LBB73:
 217              	.LBI69:
 218              		.loc 3 67 17 view .LVU53
 219              	.LBB71:
 220              		.loc 3 67 41 view .LVU54
 221              		.loc 3 67 46 is_stmt 0 view .LVU55
 222 0074 5360     		str	r3, [r2, #4]	@ float
 223              	.LBE71:
 224              	.LBE73:
 225              	.LBE76:
 226              	.LBE78:
 227              	.LBE81:
 228              		.loc 1 52 1 view .LVU56
 229 0076 BDE80840 		pop	{r3, lr}
 230              		.cfi_restore 14
 231              		.cfi_restore 3
 232              		.cfi_def_cfa_offset 16
 233 007a 04B0     		add	sp, sp, #16
 234              		.cfi_def_cfa_offset 0
 235 007c 7047     		bx	lr
 236              	.L14:
 237 007e 00BF     		.align	2
 238              	.L13:
ARM GAS  C:\Users\VINCIU~1\AppData\Local\Temp\cco4z3dl.s 			page 14


 239 0080 00008A42 		.word	1116340224
 240 0084 0000DC43 		.word	1138491392
 241 0088 3333333F 		.word	1060320051
 242              		.cfi_endproc
 243              	.LFE4038:
 245              		.section	.text._ZN5daisy13SSD130xDriverILj128ELj64ENS_24SSD130x4WireSpiTransportEE4InitENS2_6Confi
 246              		.align	1
 247              		.p2align 2,,3
 248              		.weak	_ZN5daisy13SSD130xDriverILj128ELj64ENS_24SSD130x4WireSpiTransportEE4InitENS2_6ConfigE
 249              		.syntax unified
 250              		.thumb
 251              		.thumb_func
 252              		.fpu fpv5-d16
 254              	_ZN5daisy13SSD130xDriverILj128ELj64ENS_24SSD130x4WireSpiTransportEE4InitENS2_6ConfigE:
 255              	.LVL12:
 256              	.LFB4447:
 257              		.file 5 "../../libdaisy/src/dev/oled_ssd130x.h"
   1:../../libdaisy/src/dev/oled_ssd130x.h **** #pragma once
   2:../../libdaisy/src/dev/oled_ssd130x.h **** #ifndef SA_OLED_SSD130X_H
   3:../../libdaisy/src/dev/oled_ssd130x.h **** #define SA_OLED_SSD130X_H /**< & */
   4:../../libdaisy/src/dev/oled_ssd130x.h **** 
   5:../../libdaisy/src/dev/oled_ssd130x.h **** #include "per/i2c.h"
   6:../../libdaisy/src/dev/oled_ssd130x.h **** #include "per/spi.h"
   7:../../libdaisy/src/dev/oled_ssd130x.h **** #include "per/gpio.h"
   8:../../libdaisy/src/dev/oled_ssd130x.h **** #include "sys/system.h"
   9:../../libdaisy/src/dev/oled_ssd130x.h **** 
  10:../../libdaisy/src/dev/oled_ssd130x.h **** namespace daisy
  11:../../libdaisy/src/dev/oled_ssd130x.h **** {
  12:../../libdaisy/src/dev/oled_ssd130x.h **** /**
  13:../../libdaisy/src/dev/oled_ssd130x.h ****  * I2C Transport for SSD1306 / SSD1309 OLED display devices
  14:../../libdaisy/src/dev/oled_ssd130x.h ****  */
  15:../../libdaisy/src/dev/oled_ssd130x.h **** class SSD130xI2CTransport
  16:../../libdaisy/src/dev/oled_ssd130x.h **** {
  17:../../libdaisy/src/dev/oled_ssd130x.h ****   public:
  18:../../libdaisy/src/dev/oled_ssd130x.h ****     struct Config
  19:../../libdaisy/src/dev/oled_ssd130x.h ****     {
  20:../../libdaisy/src/dev/oled_ssd130x.h ****         I2CHandle::Config i2c_config;
  21:../../libdaisy/src/dev/oled_ssd130x.h ****         uint8_t           i2c_address;
  22:../../libdaisy/src/dev/oled_ssd130x.h ****         void              Defaults()
  23:../../libdaisy/src/dev/oled_ssd130x.h ****         {
  24:../../libdaisy/src/dev/oled_ssd130x.h ****             i2c_config.periph         = I2CHandle::Config::Peripheral::I2C_1;
  25:../../libdaisy/src/dev/oled_ssd130x.h ****             i2c_config.speed          = I2CHandle::Config::Speed::I2C_1MHZ;
  26:../../libdaisy/src/dev/oled_ssd130x.h ****             i2c_config.mode           = I2CHandle::Config::Mode::I2C_MASTER;
  27:../../libdaisy/src/dev/oled_ssd130x.h ****             i2c_config.pin_config.scl = {DSY_GPIOB, 8};
  28:../../libdaisy/src/dev/oled_ssd130x.h ****             i2c_config.pin_config.sda = {DSY_GPIOB, 9};
  29:../../libdaisy/src/dev/oled_ssd130x.h ****             i2c_address               = 0x3C;
  30:../../libdaisy/src/dev/oled_ssd130x.h ****         }
  31:../../libdaisy/src/dev/oled_ssd130x.h ****     };
  32:../../libdaisy/src/dev/oled_ssd130x.h ****     void Init(const Config& config)
  33:../../libdaisy/src/dev/oled_ssd130x.h ****     {
  34:../../libdaisy/src/dev/oled_ssd130x.h ****         i2c_address_ = config.i2c_address;
  35:../../libdaisy/src/dev/oled_ssd130x.h ****         i2c_.Init(config.i2c_config);
  36:../../libdaisy/src/dev/oled_ssd130x.h ****     };
  37:../../libdaisy/src/dev/oled_ssd130x.h ****     void SendCommand(uint8_t cmd)
  38:../../libdaisy/src/dev/oled_ssd130x.h ****     {
  39:../../libdaisy/src/dev/oled_ssd130x.h ****         uint8_t buf[2] = {0X00, cmd};
  40:../../libdaisy/src/dev/oled_ssd130x.h ****         i2c_.TransmitBlocking(i2c_address_, buf, 2, 1000);
ARM GAS  C:\Users\VINCIU~1\AppData\Local\Temp\cco4z3dl.s 			page 15


  41:../../libdaisy/src/dev/oled_ssd130x.h ****     };
  42:../../libdaisy/src/dev/oled_ssd130x.h **** 
  43:../../libdaisy/src/dev/oled_ssd130x.h ****     void SendData(uint8_t* buff, size_t size)
  44:../../libdaisy/src/dev/oled_ssd130x.h ****     {
  45:../../libdaisy/src/dev/oled_ssd130x.h ****         for(size_t i = 0; i < size; i++)
  46:../../libdaisy/src/dev/oled_ssd130x.h ****         {
  47:../../libdaisy/src/dev/oled_ssd130x.h ****             uint8_t buf[2] = {0X40, buff[i]};
  48:../../libdaisy/src/dev/oled_ssd130x.h ****             i2c_.TransmitBlocking(i2c_address_, buf, 2, 1000);
  49:../../libdaisy/src/dev/oled_ssd130x.h ****         }
  50:../../libdaisy/src/dev/oled_ssd130x.h ****     };
  51:../../libdaisy/src/dev/oled_ssd130x.h **** 
  52:../../libdaisy/src/dev/oled_ssd130x.h ****   private:
  53:../../libdaisy/src/dev/oled_ssd130x.h ****     daisy::I2CHandle i2c_;
  54:../../libdaisy/src/dev/oled_ssd130x.h ****     uint8_t          i2c_address_;
  55:../../libdaisy/src/dev/oled_ssd130x.h **** };
  56:../../libdaisy/src/dev/oled_ssd130x.h **** 
  57:../../libdaisy/src/dev/oled_ssd130x.h **** /**
  58:../../libdaisy/src/dev/oled_ssd130x.h ****  * 4 Wire SPI Transport for SSD1306 / SSD1309 OLED display devices
  59:../../libdaisy/src/dev/oled_ssd130x.h ****  */
  60:../../libdaisy/src/dev/oled_ssd130x.h **** class SSD130x4WireSpiTransport
  61:../../libdaisy/src/dev/oled_ssd130x.h **** {
  62:../../libdaisy/src/dev/oled_ssd130x.h ****   public:
  63:../../libdaisy/src/dev/oled_ssd130x.h ****     struct Config
  64:../../libdaisy/src/dev/oled_ssd130x.h ****     {
  65:../../libdaisy/src/dev/oled_ssd130x.h ****         struct
  66:../../libdaisy/src/dev/oled_ssd130x.h ****         {
  67:../../libdaisy/src/dev/oled_ssd130x.h ****             dsy_gpio_pin dc;    /**< & */
  68:../../libdaisy/src/dev/oled_ssd130x.h ****             dsy_gpio_pin reset; /**< & */
  69:../../libdaisy/src/dev/oled_ssd130x.h ****         } pin_config;
  70:../../libdaisy/src/dev/oled_ssd130x.h ****         void Defaults()
  71:../../libdaisy/src/dev/oled_ssd130x.h ****         {
  72:../../libdaisy/src/dev/oled_ssd130x.h ****             pin_config.dc    = {DSY_GPIOB, 4};
  73:../../libdaisy/src/dev/oled_ssd130x.h ****             pin_config.reset = {DSY_GPIOB, 15};
  74:../../libdaisy/src/dev/oled_ssd130x.h ****         }
  75:../../libdaisy/src/dev/oled_ssd130x.h ****     };
  76:../../libdaisy/src/dev/oled_ssd130x.h ****     void Init(const Config& config)
  77:../../libdaisy/src/dev/oled_ssd130x.h ****     {
  78:../../libdaisy/src/dev/oled_ssd130x.h ****         // Initialize both GPIO
  79:../../libdaisy/src/dev/oled_ssd130x.h ****         pin_dc_.mode = DSY_GPIO_MODE_OUTPUT_PP;
  80:../../libdaisy/src/dev/oled_ssd130x.h ****         pin_dc_.pin  = config.pin_config.dc;
  81:../../libdaisy/src/dev/oled_ssd130x.h ****         dsy_gpio_init(&pin_dc_);
  82:../../libdaisy/src/dev/oled_ssd130x.h ****         pin_reset_.mode = DSY_GPIO_MODE_OUTPUT_PP;
  83:../../libdaisy/src/dev/oled_ssd130x.h ****         pin_reset_.pin  = config.pin_config.reset;
  84:../../libdaisy/src/dev/oled_ssd130x.h ****         dsy_gpio_init(&pin_reset_);
  85:../../libdaisy/src/dev/oled_ssd130x.h ****         // Initialize SPI
  86:../../libdaisy/src/dev/oled_ssd130x.h ****         SpiHandle::Config spi_config;
  87:../../libdaisy/src/dev/oled_ssd130x.h ****         spi_config.periph    = SpiHandle::Config::Peripheral::SPI_1;
  88:../../libdaisy/src/dev/oled_ssd130x.h ****         spi_config.mode      = SpiHandle::Config::Mode::MASTER;
  89:../../libdaisy/src/dev/oled_ssd130x.h ****         spi_config.direction = SpiHandle::Config::Direction::TWO_LINES_TX_ONLY;
  90:../../libdaisy/src/dev/oled_ssd130x.h ****         spi_config.datasize  = 8;
  91:../../libdaisy/src/dev/oled_ssd130x.h ****         spi_config.clock_polarity = SpiHandle::Config::ClockPolarity::LOW;
  92:../../libdaisy/src/dev/oled_ssd130x.h ****         spi_config.clock_phase    = SpiHandle::Config::ClockPhase::ONE_EDGE;
  93:../../libdaisy/src/dev/oled_ssd130x.h ****         spi_config.nss            = SpiHandle::Config::NSS::HARD_OUTPUT;
  94:../../libdaisy/src/dev/oled_ssd130x.h ****         spi_config.baud_prescaler = SpiHandle::Config::BaudPrescaler::PS_8;
  95:../../libdaisy/src/dev/oled_ssd130x.h **** 
  96:../../libdaisy/src/dev/oled_ssd130x.h ****         spi_config.pin_config.sclk = {DSY_GPIOG, 11};
  97:../../libdaisy/src/dev/oled_ssd130x.h ****         spi_config.pin_config.miso = {DSY_GPIOX, 0};
ARM GAS  C:\Users\VINCIU~1\AppData\Local\Temp\cco4z3dl.s 			page 16


  98:../../libdaisy/src/dev/oled_ssd130x.h ****         spi_config.pin_config.mosi = {DSY_GPIOB, 5};
  99:../../libdaisy/src/dev/oled_ssd130x.h ****         spi_config.pin_config.nss  = {DSY_GPIOG, 10};
 100:../../libdaisy/src/dev/oled_ssd130x.h **** 
 101:../../libdaisy/src/dev/oled_ssd130x.h ****         spi_.Init(spi_config);
 102:../../libdaisy/src/dev/oled_ssd130x.h **** 
 103:../../libdaisy/src/dev/oled_ssd130x.h ****         // Reset and Configure OLED.
 104:../../libdaisy/src/dev/oled_ssd130x.h ****         dsy_gpio_write(&pin_reset_, 0);
 105:../../libdaisy/src/dev/oled_ssd130x.h ****         System::Delay(10);
 106:../../libdaisy/src/dev/oled_ssd130x.h ****         dsy_gpio_write(&pin_reset_, 1);
 107:../../libdaisy/src/dev/oled_ssd130x.h ****         System::Delay(10);
 108:../../libdaisy/src/dev/oled_ssd130x.h ****     };
 109:../../libdaisy/src/dev/oled_ssd130x.h ****     void SendCommand(uint8_t cmd)
 110:../../libdaisy/src/dev/oled_ssd130x.h ****     {
 111:../../libdaisy/src/dev/oled_ssd130x.h ****         dsy_gpio_write(&pin_dc_, 0);
 112:../../libdaisy/src/dev/oled_ssd130x.h ****         spi_.BlockingTransmit(&cmd, 1);
 113:../../libdaisy/src/dev/oled_ssd130x.h ****     };
 114:../../libdaisy/src/dev/oled_ssd130x.h **** 
 115:../../libdaisy/src/dev/oled_ssd130x.h ****     void SendData(uint8_t* buff, size_t size)
 116:../../libdaisy/src/dev/oled_ssd130x.h ****     {
 117:../../libdaisy/src/dev/oled_ssd130x.h ****         dsy_gpio_write(&pin_dc_, 1);
 118:../../libdaisy/src/dev/oled_ssd130x.h ****         spi_.BlockingTransmit(buff, size);
 119:../../libdaisy/src/dev/oled_ssd130x.h ****     };
 120:../../libdaisy/src/dev/oled_ssd130x.h **** 
 121:../../libdaisy/src/dev/oled_ssd130x.h ****   private:
 122:../../libdaisy/src/dev/oled_ssd130x.h ****     SpiHandle spi_;
 123:../../libdaisy/src/dev/oled_ssd130x.h ****     dsy_gpio  pin_reset_;
 124:../../libdaisy/src/dev/oled_ssd130x.h ****     dsy_gpio  pin_dc_;
 125:../../libdaisy/src/dev/oled_ssd130x.h **** };
 126:../../libdaisy/src/dev/oled_ssd130x.h **** 
 127:../../libdaisy/src/dev/oled_ssd130x.h **** 
 128:../../libdaisy/src/dev/oled_ssd130x.h **** /**
 129:../../libdaisy/src/dev/oled_ssd130x.h ****  * A driver implementation for the SSD1306/SSD1309
 130:../../libdaisy/src/dev/oled_ssd130x.h ****  */
 131:../../libdaisy/src/dev/oled_ssd130x.h **** template <size_t width, size_t height, typename Transport>
 132:../../libdaisy/src/dev/oled_ssd130x.h **** class SSD130xDriver
 133:../../libdaisy/src/dev/oled_ssd130x.h **** {
 134:../../libdaisy/src/dev/oled_ssd130x.h ****   public:
 135:../../libdaisy/src/dev/oled_ssd130x.h ****     struct Config
 136:../../libdaisy/src/dev/oled_ssd130x.h ****     {
 137:../../libdaisy/src/dev/oled_ssd130x.h ****         typename Transport::Config transport_config;
 138:../../libdaisy/src/dev/oled_ssd130x.h ****     };
 139:../../libdaisy/src/dev/oled_ssd130x.h **** 
 140:../../libdaisy/src/dev/oled_ssd130x.h ****     void Init(Config config)
 258              		.loc 5 140 10 is_stmt 1 view -0
 259              		.cfi_startproc
 260              		@ args = 0, pretend = 0, frame = 48
 261              		@ frame_needed = 0, uses_anonymous_args = 0
 262              		.loc 5 140 10 is_stmt 0 view .LVU58
 263 0000 2DE9F041 		push	{r4, r5, r6, r7, r8, lr}
 264              		.cfi_def_cfa_offset 24
 265              		.cfi_offset 4, -24
 266              		.cfi_offset 5, -20
 267              		.cfi_offset 6, -16
 268              		.cfi_offset 7, -12
 269              		.cfi_offset 8, -8
 270              		.cfi_offset 14, -4
 271              	.LBB130:
ARM GAS  C:\Users\VINCIU~1\AppData\Local\Temp\cco4z3dl.s 			page 17


 272              	.LBB131:
  79:../../libdaisy/src/dev/oled_ssd130x.h ****         pin_dc_.pin  = config.pin_config.dc;
 273              		.loc 5 79 22 view .LVU59
 274 0004 0126     		movs	r6, #1
 275              	.LBE131:
 276              	.LBE130:
 277              		.loc 5 140 10 view .LVU60
 278 0006 8CB0     		sub	sp, sp, #48
 279              		.cfi_def_cfa_offset 72
 280              	.LBB135:
 281              	.LBB132:
  80:../../libdaisy/src/dev/oled_ssd130x.h ****         dsy_gpio_init(&pin_dc_);
 282              		.loc 5 80 22 view .LVU61
 283 0008 0746     		mov	r7, r0
 284              	.LBE132:
 285              	.LBE135:
 286              		.loc 5 140 10 view .LVU62
 287 000a 0446     		mov	r4, r0
 288              	.LVL13:
 289              	.LBB136:
 290              	.LBI130:
  76:../../libdaisy/src/dev/oled_ssd130x.h ****     {
 291              		.loc 5 76 10 is_stmt 1 view .LVU63
 292              	.LBB133:
  79:../../libdaisy/src/dev/oled_ssd130x.h ****         pin_dc_.pin  = config.pin_config.dc;
 293              		.loc 5 79 9 view .LVU64
  83:../../libdaisy/src/dev/oled_ssd130x.h ****         dsy_gpio_init(&pin_reset_);
 294              		.loc 5 83 25 is_stmt 0 view .LVU65
 295 000c 8046     		mov	r8, r0
 296              	.LBE133:
 297              	.LBE136:
 298              		.loc 5 140 10 view .LVU66
 299 000e 0191     		str	r1, [sp, #4]
 300              	.LBB137:
 301              	.LBB134:
  79:../../libdaisy/src/dev/oled_ssd130x.h ****         pin_dc_.pin  = config.pin_config.dc;
 302              		.loc 5 79 22 view .LVU67
 303 0010 8672     		strb	r6, [r0, #10]
  80:../../libdaisy/src/dev/oled_ssd130x.h ****         dsy_gpio_init(&pin_dc_);
 304              		.loc 5 80 9 is_stmt 1 view .LVU68
  87:../../libdaisy/src/dev/oled_ssd130x.h ****         spi_config.mode      = SpiHandle::Config::Mode::MASTER;
 305              		.loc 5 87 30 is_stmt 0 view .LVU69
 306 0012 0025     		movs	r5, #0
  80:../../libdaisy/src/dev/oled_ssd130x.h ****         dsy_gpio_init(&pin_dc_);
 307              		.loc 5 80 22 view .LVU70
 308 0014 27F8081F 		strh	r1, [r7, #8]!	@ movhi
  81:../../libdaisy/src/dev/oled_ssd130x.h ****         pin_reset_.mode = DSY_GPIO_MODE_OUTPUT_PP;
 309              		.loc 5 81 9 is_stmt 1 view .LVU71
  81:../../libdaisy/src/dev/oled_ssd130x.h ****         pin_reset_.mode = DSY_GPIO_MODE_OUTPUT_PP;
 310              		.loc 5 81 22 is_stmt 0 view .LVU72
 311 0018 3846     		mov	r0, r7
 312              	.LVL14:
  81:../../libdaisy/src/dev/oled_ssd130x.h ****         pin_reset_.mode = DSY_GPIO_MODE_OUTPUT_PP;
 313              		.loc 5 81 22 view .LVU73
 314 001a FFF7FEFF 		bl	dsy_gpio_init
 315              	.LVL15:
  82:../../libdaisy/src/dev/oled_ssd130x.h ****         pin_reset_.pin  = config.pin_config.reset;
ARM GAS  C:\Users\VINCIU~1\AppData\Local\Temp\cco4z3dl.s 			page 18


 316              		.loc 5 82 9 is_stmt 1 view .LVU74
  83:../../libdaisy/src/dev/oled_ssd130x.h ****         dsy_gpio_init(&pin_reset_);
 317              		.loc 5 83 25 is_stmt 0 view .LVU75
 318 001e BDF80630 		ldrh	r3, [sp, #6]
  82:../../libdaisy/src/dev/oled_ssd130x.h ****         pin_reset_.pin  = config.pin_config.reset;
 319              		.loc 5 82 25 view .LVU76
 320 0022 A671     		strb	r6, [r4, #6]
  83:../../libdaisy/src/dev/oled_ssd130x.h ****         dsy_gpio_init(&pin_reset_);
 321              		.loc 5 83 9 is_stmt 1 view .LVU77
  83:../../libdaisy/src/dev/oled_ssd130x.h ****         dsy_gpio_init(&pin_reset_);
 322              		.loc 5 83 25 is_stmt 0 view .LVU78
 323 0024 28F8043F 		strh	r3, [r8, #4]!	@ movhi
  84:../../libdaisy/src/dev/oled_ssd130x.h ****         // Initialize SPI
 324              		.loc 5 84 9 is_stmt 1 view .LVU79
  84:../../libdaisy/src/dev/oled_ssd130x.h ****         // Initialize SPI
 325              		.loc 5 84 22 is_stmt 0 view .LVU80
 326 0028 4046     		mov	r0, r8
 327 002a FFF7FEFF 		bl	dsy_gpio_init
 328              	.LVL16:
  86:../../libdaisy/src/dev/oled_ssd130x.h ****         spi_config.periph    = SpiHandle::Config::Peripheral::SPI_1;
 329              		.loc 5 86 9 is_stmt 1 view .LVU81
  87:../../libdaisy/src/dev/oled_ssd130x.h ****         spi_config.mode      = SpiHandle::Config::Mode::MASTER;
 330              		.loc 5 87 9 view .LVU82
  88:../../libdaisy/src/dev/oled_ssd130x.h ****         spi_config.direction = SpiHandle::Config::Direction::TWO_LINES_TX_ONLY;
 331              		.loc 5 88 9 view .LVU83
  89:../../libdaisy/src/dev/oled_ssd130x.h ****         spi_config.datasize  = 8;
 332              		.loc 5 89 9 view .LVU84
  90:../../libdaisy/src/dev/oled_ssd130x.h ****         spi_config.clock_polarity = SpiHandle::Config::ClockPolarity::LOW;
 333              		.loc 5 90 9 view .LVU85
  91:../../libdaisy/src/dev/oled_ssd130x.h ****         spi_config.clock_phase    = SpiHandle::Config::ClockPhase::ONE_EDGE;
 334              		.loc 5 91 9 view .LVU86
  92:../../libdaisy/src/dev/oled_ssd130x.h ****         spi_config.nss            = SpiHandle::Config::NSS::HARD_OUTPUT;
 335              		.loc 5 92 9 view .LVU87
  93:../../libdaisy/src/dev/oled_ssd130x.h ****         spi_config.baud_prescaler = SpiHandle::Config::BaudPrescaler::PS_8;
 336              		.loc 5 93 9 view .LVU88
  94:../../libdaisy/src/dev/oled_ssd130x.h **** 
 337              		.loc 5 94 9 view .LVU89
  96:../../libdaisy/src/dev/oled_ssd130x.h ****         spi_config.pin_config.miso = {DSY_GPIOX, 0};
 338              		.loc 5 96 9 view .LVU90
  97:../../libdaisy/src/dev/oled_ssd130x.h ****         spi_config.pin_config.mosi = {DSY_GPIOB, 5};
 339              		.loc 5 97 9 view .LVU91
  98:../../libdaisy/src/dev/oled_ssd130x.h ****         spi_config.pin_config.nss  = {DSY_GPIOG, 10};
 340              		.loc 5 98 9 view .LVU92
  99:../../libdaisy/src/dev/oled_ssd130x.h **** 
 341              		.loc 5 99 9 view .LVU93
  96:../../libdaisy/src/dev/oled_ssd130x.h ****         spi_config.pin_config.miso = {DSY_GPIOX, 0};
 342              		.loc 5 96 36 is_stmt 0 view .LVU94
 343 002e A74B     		ldr	r3, .L17
 101:../../libdaisy/src/dev/oled_ssd130x.h **** 
 344              		.loc 5 101 18 view .LVU95
 345 0030 2046     		mov	r0, r4
  89:../../libdaisy/src/dev/oled_ssd130x.h ****         spi_config.datasize  = 8;
 346              		.loc 5 89 30 view .LVU96
 347 0032 0696     		str	r6, [sp, #24]
  96:../../libdaisy/src/dev/oled_ssd130x.h ****         spi_config.pin_config.miso = {DSY_GPIOX, 0};
 348              		.loc 5 96 36 view .LVU97
 349 0034 0293     		str	r3, [sp, #8]
ARM GAS  C:\Users\VINCIU~1\AppData\Local\Temp\cco4z3dl.s 			page 19


  87:../../libdaisy/src/dev/oled_ssd130x.h ****         spi_config.mode      = SpiHandle::Config::Mode::MASTER;
 350              		.loc 5 87 30 view .LVU98
 351 0036 A64B     		ldr	r3, .L17+4
  88:../../libdaisy/src/dev/oled_ssd130x.h ****         spi_config.direction = SpiHandle::Config::Direction::TWO_LINES_TX_ONLY;
 352              		.loc 5 88 30 view .LVU99
 353 0038 0595     		str	r5, [sp, #20]
  87:../../libdaisy/src/dev/oled_ssd130x.h ****         spi_config.mode      = SpiHandle::Config::Mode::MASTER;
 354              		.loc 5 87 30 view .LVU100
 355 003a CDE90335 		strd	r3, r5, [sp, #12]
  93:../../libdaisy/src/dev/oled_ssd130x.h ****         spi_config.baud_prescaler = SpiHandle::Config::BaudPrescaler::PS_8;
 356              		.loc 5 93 35 view .LVU101
 357 003e 0223     		movs	r3, #2
  94:../../libdaisy/src/dev/oled_ssd130x.h **** 
 358              		.loc 5 94 35 view .LVU102
 359 0040 CDE90A33 		strd	r3, r3, [sp, #40]
 101:../../libdaisy/src/dev/oled_ssd130x.h **** 
 360              		.loc 5 101 9 is_stmt 1 view .LVU103
  90:../../libdaisy/src/dev/oled_ssd130x.h ****         spi_config.clock_polarity = SpiHandle::Config::ClockPolarity::LOW;
 361              		.loc 5 90 30 is_stmt 0 view .LVU104
 362 0044 0823     		movs	r3, #8
 101:../../libdaisy/src/dev/oled_ssd130x.h **** 
 363              		.loc 5 101 18 view .LVU105
 364 0046 0DEB0301 		add	r1, sp, r3
  90:../../libdaisy/src/dev/oled_ssd130x.h ****         spi_config.clock_polarity = SpiHandle::Config::ClockPolarity::LOW;
 365              		.loc 5 90 30 view .LVU106
 366 004a 0793     		str	r3, [sp, #28]
  92:../../libdaisy/src/dev/oled_ssd130x.h ****         spi_config.nss            = SpiHandle::Config::NSS::HARD_OUTPUT;
 367              		.loc 5 92 35 view .LVU107
 368 004c CDE90855 		strd	r5, r5, [sp, #32]
 101:../../libdaisy/src/dev/oled_ssd130x.h **** 
 369              		.loc 5 101 18 view .LVU108
 370 0050 FFF7FEFF 		bl	_ZN5daisy9SpiHandle4InitERKNS0_6ConfigE
 371              	.LVL17:
 104:../../libdaisy/src/dev/oled_ssd130x.h ****         System::Delay(10);
 372              		.loc 5 104 9 is_stmt 1 view .LVU109
 104:../../libdaisy/src/dev/oled_ssd130x.h ****         System::Delay(10);
 373              		.loc 5 104 23 is_stmt 0 view .LVU110
 374 0054 2946     		mov	r1, r5
 375 0056 4046     		mov	r0, r8
 376 0058 FFF7FEFF 		bl	dsy_gpio_write
 377              	.LVL18:
 105:../../libdaisy/src/dev/oled_ssd130x.h ****         dsy_gpio_write(&pin_reset_, 1);
 378              		.loc 5 105 9 is_stmt 1 view .LVU111
 105:../../libdaisy/src/dev/oled_ssd130x.h ****         dsy_gpio_write(&pin_reset_, 1);
 379              		.loc 5 105 22 is_stmt 0 view .LVU112
 380 005c 0A20     		movs	r0, #10
 381 005e FFF7FEFF 		bl	_ZN5daisy6System5DelayEm
 382              	.LVL19:
 106:../../libdaisy/src/dev/oled_ssd130x.h ****         System::Delay(10);
 383              		.loc 5 106 9 is_stmt 1 view .LVU113
 106:../../libdaisy/src/dev/oled_ssd130x.h ****         System::Delay(10);
 384              		.loc 5 106 23 is_stmt 0 view .LVU114
 385 0062 3146     		mov	r1, r6
 386 0064 4046     		mov	r0, r8
 387 0066 FFF7FEFF 		bl	dsy_gpio_write
 388              	.LVL20:
 107:../../libdaisy/src/dev/oled_ssd130x.h ****     };
ARM GAS  C:\Users\VINCIU~1\AppData\Local\Temp\cco4z3dl.s 			page 20


 389              		.loc 5 107 9 is_stmt 1 view .LVU115
 107:../../libdaisy/src/dev/oled_ssd130x.h ****     };
 390              		.loc 5 107 22 is_stmt 0 view .LVU116
 391 006a 0A20     		movs	r0, #10
 392 006c FFF7FEFF 		bl	_ZN5daisy6System5DelayEm
 393              	.LVL21:
 107:../../libdaisy/src/dev/oled_ssd130x.h ****     };
 394              		.loc 5 107 22 view .LVU117
 395 0070 AE23     		movs	r3, #174
 396              	.LBE134:
 397              	.LBE137:
 398              	.LBB138:
 399              	.LBB139:
 111:../../libdaisy/src/dev/oled_ssd130x.h ****         spi_.BlockingTransmit(&cmd, 1);
 400              		.loc 5 111 23 view .LVU118
 401 0072 2946     		mov	r1, r5
 402 0074 3846     		mov	r0, r7
 403 0076 8DF80830 		strb	r3, [sp, #8]
 404              	.LVL22:
 111:../../libdaisy/src/dev/oled_ssd130x.h ****         spi_.BlockingTransmit(&cmd, 1);
 405              		.loc 5 111 23 view .LVU119
 406              	.LBE139:
 407              	.LBI138:
 109:../../libdaisy/src/dev/oled_ssd130x.h ****     {
 408              		.loc 5 109 10 is_stmt 1 view .LVU120
 409              	.LBB140:
 111:../../libdaisy/src/dev/oled_ssd130x.h ****         spi_.BlockingTransmit(&cmd, 1);
 410              		.loc 5 111 9 view .LVU121
 111:../../libdaisy/src/dev/oled_ssd130x.h ****         spi_.BlockingTransmit(&cmd, 1);
 411              		.loc 5 111 23 is_stmt 0 view .LVU122
 412 007a FFF7FEFF 		bl	dsy_gpio_write
 413              	.LVL23:
 112:../../libdaisy/src/dev/oled_ssd130x.h ****     };
 414              		.loc 5 112 9 is_stmt 1 view .LVU123
 112:../../libdaisy/src/dev/oled_ssd130x.h ****     };
 415              		.loc 5 112 30 is_stmt 0 view .LVU124
 416 007e 3246     		mov	r2, r6
 417 0080 02A9     		add	r1, sp, #8
 418 0082 6423     		movs	r3, #100
 419 0084 2046     		mov	r0, r4
 420 0086 FFF7FEFF 		bl	_ZN5daisy9SpiHandle16BlockingTransmitEPhjm
 421              	.LVL24:
 112:../../libdaisy/src/dev/oled_ssd130x.h ****     };
 422              		.loc 5 112 30 view .LVU125
 423 008a D523     		movs	r3, #213
 424              	.LBE140:
 425              	.LBE138:
 426              	.LBB141:
 427              	.LBB142:
 111:../../libdaisy/src/dev/oled_ssd130x.h ****         spi_.BlockingTransmit(&cmd, 1);
 428              		.loc 5 111 23 view .LVU126
 429 008c 2946     		mov	r1, r5
 430 008e 3846     		mov	r0, r7
 431 0090 8DF80830 		strb	r3, [sp, #8]
 432              	.LVL25:
 111:../../libdaisy/src/dev/oled_ssd130x.h ****         spi_.BlockingTransmit(&cmd, 1);
 433              		.loc 5 111 23 view .LVU127
ARM GAS  C:\Users\VINCIU~1\AppData\Local\Temp\cco4z3dl.s 			page 21


 434              	.LBE142:
 435              	.LBI141:
 109:../../libdaisy/src/dev/oled_ssd130x.h ****     {
 436              		.loc 5 109 10 is_stmt 1 view .LVU128
 437              	.LBB143:
 111:../../libdaisy/src/dev/oled_ssd130x.h ****         spi_.BlockingTransmit(&cmd, 1);
 438              		.loc 5 111 9 view .LVU129
 111:../../libdaisy/src/dev/oled_ssd130x.h ****         spi_.BlockingTransmit(&cmd, 1);
 439              		.loc 5 111 23 is_stmt 0 view .LVU130
 440 0094 FFF7FEFF 		bl	dsy_gpio_write
 441              	.LVL26:
 112:../../libdaisy/src/dev/oled_ssd130x.h ****     };
 442              		.loc 5 112 9 is_stmt 1 view .LVU131
 112:../../libdaisy/src/dev/oled_ssd130x.h ****     };
 443              		.loc 5 112 30 is_stmt 0 view .LVU132
 444 0098 3246     		mov	r2, r6
 445 009a 02A9     		add	r1, sp, #8
 446 009c 6423     		movs	r3, #100
 447 009e 2046     		mov	r0, r4
 448 00a0 FFF7FEFF 		bl	_ZN5daisy9SpiHandle16BlockingTransmitEPhjm
 449              	.LVL27:
 112:../../libdaisy/src/dev/oled_ssd130x.h ****     };
 450              		.loc 5 112 30 view .LVU133
 451 00a4 8023     		movs	r3, #128
 452              	.LBE143:
 453              	.LBE141:
 454              	.LBB144:
 455              	.LBB145:
 111:../../libdaisy/src/dev/oled_ssd130x.h ****         spi_.BlockingTransmit(&cmd, 1);
 456              		.loc 5 111 23 view .LVU134
 457 00a6 2946     		mov	r1, r5
 458 00a8 3846     		mov	r0, r7
 459 00aa 8DF80830 		strb	r3, [sp, #8]
 460              	.LVL28:
 111:../../libdaisy/src/dev/oled_ssd130x.h ****         spi_.BlockingTransmit(&cmd, 1);
 461              		.loc 5 111 23 view .LVU135
 462              	.LBE145:
 463              	.LBI144:
 109:../../libdaisy/src/dev/oled_ssd130x.h ****     {
 464              		.loc 5 109 10 is_stmt 1 view .LVU136
 465              	.LBB146:
 111:../../libdaisy/src/dev/oled_ssd130x.h ****         spi_.BlockingTransmit(&cmd, 1);
 466              		.loc 5 111 9 view .LVU137
 111:../../libdaisy/src/dev/oled_ssd130x.h ****         spi_.BlockingTransmit(&cmd, 1);
 467              		.loc 5 111 23 is_stmt 0 view .LVU138
 468 00ae FFF7FEFF 		bl	dsy_gpio_write
 469              	.LVL29:
 112:../../libdaisy/src/dev/oled_ssd130x.h ****     };
 470              		.loc 5 112 9 is_stmt 1 view .LVU139
 112:../../libdaisy/src/dev/oled_ssd130x.h ****     };
 471              		.loc 5 112 30 is_stmt 0 view .LVU140
 472 00b2 3246     		mov	r2, r6
 473 00b4 02A9     		add	r1, sp, #8
 474 00b6 6423     		movs	r3, #100
 475 00b8 2046     		mov	r0, r4
 476 00ba FFF7FEFF 		bl	_ZN5daisy9SpiHandle16BlockingTransmitEPhjm
 477              	.LVL30:
ARM GAS  C:\Users\VINCIU~1\AppData\Local\Temp\cco4z3dl.s 			page 22


 112:../../libdaisy/src/dev/oled_ssd130x.h ****     };
 478              		.loc 5 112 30 view .LVU141
 479 00be A823     		movs	r3, #168
 480              	.LBE146:
 481              	.LBE144:
 482              	.LBB147:
 483              	.LBB148:
 111:../../libdaisy/src/dev/oled_ssd130x.h ****         spi_.BlockingTransmit(&cmd, 1);
 484              		.loc 5 111 23 view .LVU142
 485 00c0 2946     		mov	r1, r5
 486 00c2 3846     		mov	r0, r7
 487 00c4 8DF80830 		strb	r3, [sp, #8]
 488              	.LVL31:
 111:../../libdaisy/src/dev/oled_ssd130x.h ****         spi_.BlockingTransmit(&cmd, 1);
 489              		.loc 5 111 23 view .LVU143
 490              	.LBE148:
 491              	.LBI147:
 109:../../libdaisy/src/dev/oled_ssd130x.h ****     {
 492              		.loc 5 109 10 is_stmt 1 view .LVU144
 493              	.LBB149:
 111:../../libdaisy/src/dev/oled_ssd130x.h ****         spi_.BlockingTransmit(&cmd, 1);
 494              		.loc 5 111 9 view .LVU145
 111:../../libdaisy/src/dev/oled_ssd130x.h ****         spi_.BlockingTransmit(&cmd, 1);
 495              		.loc 5 111 23 is_stmt 0 view .LVU146
 496 00c8 FFF7FEFF 		bl	dsy_gpio_write
 497              	.LVL32:
 112:../../libdaisy/src/dev/oled_ssd130x.h ****     };
 498              		.loc 5 112 9 is_stmt 1 view .LVU147
 112:../../libdaisy/src/dev/oled_ssd130x.h ****     };
 499              		.loc 5 112 30 is_stmt 0 view .LVU148
 500 00cc 3246     		mov	r2, r6
 501 00ce 02A9     		add	r1, sp, #8
 502 00d0 6423     		movs	r3, #100
 503 00d2 2046     		mov	r0, r4
 504 00d4 FFF7FEFF 		bl	_ZN5daisy9SpiHandle16BlockingTransmitEPhjm
 505              	.LVL33:
 112:../../libdaisy/src/dev/oled_ssd130x.h ****     };
 506              		.loc 5 112 30 view .LVU149
 507 00d8 3F23     		movs	r3, #63
 508              	.LBE149:
 509              	.LBE147:
 510              	.LBB150:
 511              	.LBB151:
 111:../../libdaisy/src/dev/oled_ssd130x.h ****         spi_.BlockingTransmit(&cmd, 1);
 512              		.loc 5 111 23 view .LVU150
 513 00da 2946     		mov	r1, r5
 514 00dc 3846     		mov	r0, r7
 515 00de 8DF80830 		strb	r3, [sp, #8]
 516              	.LVL34:
 111:../../libdaisy/src/dev/oled_ssd130x.h ****         spi_.BlockingTransmit(&cmd, 1);
 517              		.loc 5 111 23 view .LVU151
 518              	.LBE151:
 519              	.LBI150:
 109:../../libdaisy/src/dev/oled_ssd130x.h ****     {
 520              		.loc 5 109 10 is_stmt 1 view .LVU152
 521              	.LBB152:
 111:../../libdaisy/src/dev/oled_ssd130x.h ****         spi_.BlockingTransmit(&cmd, 1);
ARM GAS  C:\Users\VINCIU~1\AppData\Local\Temp\cco4z3dl.s 			page 23


 522              		.loc 5 111 9 view .LVU153
 111:../../libdaisy/src/dev/oled_ssd130x.h ****         spi_.BlockingTransmit(&cmd, 1);
 523              		.loc 5 111 23 is_stmt 0 view .LVU154
 524 00e2 FFF7FEFF 		bl	dsy_gpio_write
 525              	.LVL35:
 112:../../libdaisy/src/dev/oled_ssd130x.h ****     };
 526              		.loc 5 112 9 is_stmt 1 view .LVU155
 112:../../libdaisy/src/dev/oled_ssd130x.h ****     };
 527              		.loc 5 112 30 is_stmt 0 view .LVU156
 528 00e6 3246     		mov	r2, r6
 529 00e8 02A9     		add	r1, sp, #8
 530 00ea 6423     		movs	r3, #100
 531 00ec 2046     		mov	r0, r4
 532 00ee FFF7FEFF 		bl	_ZN5daisy9SpiHandle16BlockingTransmitEPhjm
 533              	.LVL36:
 112:../../libdaisy/src/dev/oled_ssd130x.h ****     };
 534              		.loc 5 112 30 view .LVU157
 535 00f2 DA23     		movs	r3, #218
 536              	.LBE152:
 537              	.LBE150:
 538              	.LBB153:
 539              	.LBB154:
 111:../../libdaisy/src/dev/oled_ssd130x.h ****         spi_.BlockingTransmit(&cmd, 1);
 540              		.loc 5 111 23 view .LVU158
 541 00f4 2946     		mov	r1, r5
 542 00f6 3846     		mov	r0, r7
 543 00f8 8DF80830 		strb	r3, [sp, #8]
 544              	.LVL37:
 111:../../libdaisy/src/dev/oled_ssd130x.h ****         spi_.BlockingTransmit(&cmd, 1);
 545              		.loc 5 111 23 view .LVU159
 546              	.LBE154:
 547              	.LBI153:
 109:../../libdaisy/src/dev/oled_ssd130x.h ****     {
 548              		.loc 5 109 10 is_stmt 1 view .LVU160
 549              	.LBB155:
 111:../../libdaisy/src/dev/oled_ssd130x.h ****         spi_.BlockingTransmit(&cmd, 1);
 550              		.loc 5 111 9 view .LVU161
 111:../../libdaisy/src/dev/oled_ssd130x.h ****         spi_.BlockingTransmit(&cmd, 1);
 551              		.loc 5 111 23 is_stmt 0 view .LVU162
 552 00fc FFF7FEFF 		bl	dsy_gpio_write
 553              	.LVL38:
 112:../../libdaisy/src/dev/oled_ssd130x.h ****     };
 554              		.loc 5 112 9 is_stmt 1 view .LVU163
 112:../../libdaisy/src/dev/oled_ssd130x.h ****     };
 555              		.loc 5 112 30 is_stmt 0 view .LVU164
 556 0100 3246     		mov	r2, r6
 557 0102 02A9     		add	r1, sp, #8
 558 0104 6423     		movs	r3, #100
 559 0106 2046     		mov	r0, r4
 560 0108 FFF7FEFF 		bl	_ZN5daisy9SpiHandle16BlockingTransmitEPhjm
 561              	.LVL39:
 112:../../libdaisy/src/dev/oled_ssd130x.h ****     };
 562              		.loc 5 112 30 view .LVU165
 563 010c 1223     		movs	r3, #18
 564              	.LBE155:
 565              	.LBE153:
 566              	.LBB156:
ARM GAS  C:\Users\VINCIU~1\AppData\Local\Temp\cco4z3dl.s 			page 24


 567              	.LBB157:
 111:../../libdaisy/src/dev/oled_ssd130x.h ****         spi_.BlockingTransmit(&cmd, 1);
 568              		.loc 5 111 23 view .LVU166
 569 010e 2946     		mov	r1, r5
 570 0110 3846     		mov	r0, r7
 571 0112 8DF80830 		strb	r3, [sp, #8]
 572              	.LVL40:
 111:../../libdaisy/src/dev/oled_ssd130x.h ****         spi_.BlockingTransmit(&cmd, 1);
 573              		.loc 5 111 23 view .LVU167
 574              	.LBE157:
 575              	.LBI156:
 109:../../libdaisy/src/dev/oled_ssd130x.h ****     {
 576              		.loc 5 109 10 is_stmt 1 view .LVU168
 577              	.LBB158:
 111:../../libdaisy/src/dev/oled_ssd130x.h ****         spi_.BlockingTransmit(&cmd, 1);
 578              		.loc 5 111 9 view .LVU169
 111:../../libdaisy/src/dev/oled_ssd130x.h ****         spi_.BlockingTransmit(&cmd, 1);
 579              		.loc 5 111 23 is_stmt 0 view .LVU170
 580 0116 FFF7FEFF 		bl	dsy_gpio_write
 581              	.LVL41:
 112:../../libdaisy/src/dev/oled_ssd130x.h ****     };
 582              		.loc 5 112 9 is_stmt 1 view .LVU171
 112:../../libdaisy/src/dev/oled_ssd130x.h ****     };
 583              		.loc 5 112 30 is_stmt 0 view .LVU172
 584 011a 3246     		mov	r2, r6
 585 011c 02A9     		add	r1, sp, #8
 586 011e 6423     		movs	r3, #100
 587 0120 2046     		mov	r0, r4
 588 0122 FFF7FEFF 		bl	_ZN5daisy9SpiHandle16BlockingTransmitEPhjm
 589              	.LVL42:
 112:../../libdaisy/src/dev/oled_ssd130x.h ****     };
 590              		.loc 5 112 30 view .LVU173
 591 0126 D323     		movs	r3, #211
 592              	.LBE158:
 593              	.LBE156:
 594              	.LBB159:
 595              	.LBB160:
 111:../../libdaisy/src/dev/oled_ssd130x.h ****         spi_.BlockingTransmit(&cmd, 1);
 596              		.loc 5 111 23 view .LVU174
 597 0128 2946     		mov	r1, r5
 598 012a 3846     		mov	r0, r7
 599 012c 8DF80830 		strb	r3, [sp, #8]
 600              	.LVL43:
 111:../../libdaisy/src/dev/oled_ssd130x.h ****         spi_.BlockingTransmit(&cmd, 1);
 601              		.loc 5 111 23 view .LVU175
 602              	.LBE160:
 603              	.LBI159:
 109:../../libdaisy/src/dev/oled_ssd130x.h ****     {
 604              		.loc 5 109 10 is_stmt 1 view .LVU176
 605              	.LBB161:
 111:../../libdaisy/src/dev/oled_ssd130x.h ****         spi_.BlockingTransmit(&cmd, 1);
 606              		.loc 5 111 9 view .LVU177
 111:../../libdaisy/src/dev/oled_ssd130x.h ****         spi_.BlockingTransmit(&cmd, 1);
 607              		.loc 5 111 23 is_stmt 0 view .LVU178
 608 0130 FFF7FEFF 		bl	dsy_gpio_write
 609              	.LVL44:
 112:../../libdaisy/src/dev/oled_ssd130x.h ****     };
ARM GAS  C:\Users\VINCIU~1\AppData\Local\Temp\cco4z3dl.s 			page 25


 610              		.loc 5 112 9 is_stmt 1 view .LVU179
 112:../../libdaisy/src/dev/oled_ssd130x.h ****     };
 611              		.loc 5 112 30 is_stmt 0 view .LVU180
 612 0134 3246     		mov	r2, r6
 613 0136 6423     		movs	r3, #100
 614 0138 02A9     		add	r1, sp, #8
 615 013a 2046     		mov	r0, r4
 616 013c FFF7FEFF 		bl	_ZN5daisy9SpiHandle16BlockingTransmitEPhjm
 617              	.LVL45:
 112:../../libdaisy/src/dev/oled_ssd130x.h ****     };
 618              		.loc 5 112 30 view .LVU181
 619              	.LBE161:
 620              	.LBE159:
 621              	.LBB162:
 622              	.LBB163:
 111:../../libdaisy/src/dev/oled_ssd130x.h ****         spi_.BlockingTransmit(&cmd, 1);
 623              		.loc 5 111 23 view .LVU182
 624 0140 2946     		mov	r1, r5
 625 0142 3846     		mov	r0, r7
 626 0144 8DF80850 		strb	r5, [sp, #8]
 627              	.LVL46:
 111:../../libdaisy/src/dev/oled_ssd130x.h ****         spi_.BlockingTransmit(&cmd, 1);
 628              		.loc 5 111 23 view .LVU183
 629              	.LBE163:
 630              	.LBI162:
 109:../../libdaisy/src/dev/oled_ssd130x.h ****     {
 631              		.loc 5 109 10 is_stmt 1 view .LVU184
 632              	.LBB164:
 111:../../libdaisy/src/dev/oled_ssd130x.h ****         spi_.BlockingTransmit(&cmd, 1);
 633              		.loc 5 111 9 view .LVU185
 111:../../libdaisy/src/dev/oled_ssd130x.h ****         spi_.BlockingTransmit(&cmd, 1);
 634              		.loc 5 111 23 is_stmt 0 view .LVU186
 635 0148 FFF7FEFF 		bl	dsy_gpio_write
 636              	.LVL47:
 112:../../libdaisy/src/dev/oled_ssd130x.h ****     };
 637              		.loc 5 112 9 is_stmt 1 view .LVU187
 112:../../libdaisy/src/dev/oled_ssd130x.h ****     };
 638              		.loc 5 112 30 is_stmt 0 view .LVU188
 639 014c 3246     		mov	r2, r6
 640 014e 02A9     		add	r1, sp, #8
 641 0150 6423     		movs	r3, #100
 642 0152 2046     		mov	r0, r4
 643 0154 FFF7FEFF 		bl	_ZN5daisy9SpiHandle16BlockingTransmitEPhjm
 644              	.LVL48:
 112:../../libdaisy/src/dev/oled_ssd130x.h ****     };
 645              		.loc 5 112 30 view .LVU189
 646 0158 4023     		movs	r3, #64
 647              	.LBE164:
 648              	.LBE162:
 649              	.LBB165:
 650              	.LBB166:
 111:../../libdaisy/src/dev/oled_ssd130x.h ****         spi_.BlockingTransmit(&cmd, 1);
 651              		.loc 5 111 23 view .LVU190
 652 015a 2946     		mov	r1, r5
 653 015c 3846     		mov	r0, r7
 654 015e 8DF80830 		strb	r3, [sp, #8]
 655              	.LVL49:
ARM GAS  C:\Users\VINCIU~1\AppData\Local\Temp\cco4z3dl.s 			page 26


 111:../../libdaisy/src/dev/oled_ssd130x.h ****         spi_.BlockingTransmit(&cmd, 1);
 656              		.loc 5 111 23 view .LVU191
 657              	.LBE166:
 658              	.LBI165:
 109:../../libdaisy/src/dev/oled_ssd130x.h ****     {
 659              		.loc 5 109 10 is_stmt 1 view .LVU192
 660              	.LBB167:
 111:../../libdaisy/src/dev/oled_ssd130x.h ****         spi_.BlockingTransmit(&cmd, 1);
 661              		.loc 5 111 9 view .LVU193
 111:../../libdaisy/src/dev/oled_ssd130x.h ****         spi_.BlockingTransmit(&cmd, 1);
 662              		.loc 5 111 23 is_stmt 0 view .LVU194
 663 0162 FFF7FEFF 		bl	dsy_gpio_write
 664              	.LVL50:
 112:../../libdaisy/src/dev/oled_ssd130x.h ****     };
 665              		.loc 5 112 9 is_stmt 1 view .LVU195
 112:../../libdaisy/src/dev/oled_ssd130x.h ****     };
 666              		.loc 5 112 30 is_stmt 0 view .LVU196
 667 0166 3246     		mov	r2, r6
 668 0168 02A9     		add	r1, sp, #8
 669 016a 6423     		movs	r3, #100
 670 016c 2046     		mov	r0, r4
 671 016e FFF7FEFF 		bl	_ZN5daisy9SpiHandle16BlockingTransmitEPhjm
 672              	.LVL51:
 112:../../libdaisy/src/dev/oled_ssd130x.h ****     };
 673              		.loc 5 112 30 view .LVU197
 674 0172 A623     		movs	r3, #166
 675              	.LBE167:
 676              	.LBE165:
 677              	.LBB168:
 678              	.LBB169:
 111:../../libdaisy/src/dev/oled_ssd130x.h ****         spi_.BlockingTransmit(&cmd, 1);
 679              		.loc 5 111 23 view .LVU198
 680 0174 2946     		mov	r1, r5
 681 0176 3846     		mov	r0, r7
 682 0178 8DF80830 		strb	r3, [sp, #8]
 683              	.LVL52:
 111:../../libdaisy/src/dev/oled_ssd130x.h ****         spi_.BlockingTransmit(&cmd, 1);
 684              		.loc 5 111 23 view .LVU199
 685              	.LBE169:
 686              	.LBI168:
 109:../../libdaisy/src/dev/oled_ssd130x.h ****     {
 687              		.loc 5 109 10 is_stmt 1 view .LVU200
 688              	.LBB170:
 111:../../libdaisy/src/dev/oled_ssd130x.h ****         spi_.BlockingTransmit(&cmd, 1);
 689              		.loc 5 111 9 view .LVU201
 111:../../libdaisy/src/dev/oled_ssd130x.h ****         spi_.BlockingTransmit(&cmd, 1);
 690              		.loc 5 111 23 is_stmt 0 view .LVU202
 691 017c FFF7FEFF 		bl	dsy_gpio_write
 692              	.LVL53:
 112:../../libdaisy/src/dev/oled_ssd130x.h ****     };
 693              		.loc 5 112 9 is_stmt 1 view .LVU203
 112:../../libdaisy/src/dev/oled_ssd130x.h ****     };
 694              		.loc 5 112 30 is_stmt 0 view .LVU204
 695 0180 3246     		mov	r2, r6
 696 0182 02A9     		add	r1, sp, #8
 697 0184 6423     		movs	r3, #100
 698 0186 2046     		mov	r0, r4
ARM GAS  C:\Users\VINCIU~1\AppData\Local\Temp\cco4z3dl.s 			page 27


 699 0188 FFF7FEFF 		bl	_ZN5daisy9SpiHandle16BlockingTransmitEPhjm
 700              	.LVL54:
 112:../../libdaisy/src/dev/oled_ssd130x.h ****     };
 701              		.loc 5 112 30 view .LVU205
 702 018c A423     		movs	r3, #164
 703              	.LBE170:
 704              	.LBE168:
 705              	.LBB171:
 706              	.LBB172:
 111:../../libdaisy/src/dev/oled_ssd130x.h ****         spi_.BlockingTransmit(&cmd, 1);
 707              		.loc 5 111 23 view .LVU206
 708 018e 2946     		mov	r1, r5
 709 0190 3846     		mov	r0, r7
 710 0192 8DF80830 		strb	r3, [sp, #8]
 711              	.LVL55:
 111:../../libdaisy/src/dev/oled_ssd130x.h ****         spi_.BlockingTransmit(&cmd, 1);
 712              		.loc 5 111 23 view .LVU207
 713              	.LBE172:
 714              	.LBI171:
 109:../../libdaisy/src/dev/oled_ssd130x.h ****     {
 715              		.loc 5 109 10 is_stmt 1 view .LVU208
 716              	.LBB173:
 111:../../libdaisy/src/dev/oled_ssd130x.h ****         spi_.BlockingTransmit(&cmd, 1);
 717              		.loc 5 111 9 view .LVU209
 111:../../libdaisy/src/dev/oled_ssd130x.h ****         spi_.BlockingTransmit(&cmd, 1);
 718              		.loc 5 111 23 is_stmt 0 view .LVU210
 719 0196 FFF7FEFF 		bl	dsy_gpio_write
 720              	.LVL56:
 112:../../libdaisy/src/dev/oled_ssd130x.h ****     };
 721              		.loc 5 112 9 is_stmt 1 view .LVU211
 112:../../libdaisy/src/dev/oled_ssd130x.h ****     };
 722              		.loc 5 112 30 is_stmt 0 view .LVU212
 723 019a 3246     		mov	r2, r6
 724 019c 02A9     		add	r1, sp, #8
 725 019e 6423     		movs	r3, #100
 726 01a0 2046     		mov	r0, r4
 727 01a2 FFF7FEFF 		bl	_ZN5daisy9SpiHandle16BlockingTransmitEPhjm
 728              	.LVL57:
 112:../../libdaisy/src/dev/oled_ssd130x.h ****     };
 729              		.loc 5 112 30 view .LVU213
 730 01a6 8D23     		movs	r3, #141
 731              	.LBE173:
 732              	.LBE171:
 733              	.LBB174:
 734              	.LBB175:
 111:../../libdaisy/src/dev/oled_ssd130x.h ****         spi_.BlockingTransmit(&cmd, 1);
 735              		.loc 5 111 23 view .LVU214
 736 01a8 2946     		mov	r1, r5
 737 01aa 3846     		mov	r0, r7
 738 01ac 8DF80830 		strb	r3, [sp, #8]
 739              	.LVL58:
 111:../../libdaisy/src/dev/oled_ssd130x.h ****         spi_.BlockingTransmit(&cmd, 1);
 740              		.loc 5 111 23 view .LVU215
 741              	.LBE175:
 742              	.LBI174:
 109:../../libdaisy/src/dev/oled_ssd130x.h ****     {
 743              		.loc 5 109 10 is_stmt 1 view .LVU216
ARM GAS  C:\Users\VINCIU~1\AppData\Local\Temp\cco4z3dl.s 			page 28


 744              	.LBB176:
 111:../../libdaisy/src/dev/oled_ssd130x.h ****         spi_.BlockingTransmit(&cmd, 1);
 745              		.loc 5 111 9 view .LVU217
 111:../../libdaisy/src/dev/oled_ssd130x.h ****         spi_.BlockingTransmit(&cmd, 1);
 746              		.loc 5 111 23 is_stmt 0 view .LVU218
 747 01b0 FFF7FEFF 		bl	dsy_gpio_write
 748              	.LVL59:
 112:../../libdaisy/src/dev/oled_ssd130x.h ****     };
 749              		.loc 5 112 9 is_stmt 1 view .LVU219
 112:../../libdaisy/src/dev/oled_ssd130x.h ****     };
 750              		.loc 5 112 30 is_stmt 0 view .LVU220
 751 01b4 3246     		mov	r2, r6
 752 01b6 02A9     		add	r1, sp, #8
 753 01b8 6423     		movs	r3, #100
 754 01ba 2046     		mov	r0, r4
 755 01bc FFF7FEFF 		bl	_ZN5daisy9SpiHandle16BlockingTransmitEPhjm
 756              	.LVL60:
 112:../../libdaisy/src/dev/oled_ssd130x.h ****     };
 757              		.loc 5 112 30 view .LVU221
 758 01c0 1423     		movs	r3, #20
 759              	.LBE176:
 760              	.LBE174:
 761              	.LBB177:
 762              	.LBB178:
 111:../../libdaisy/src/dev/oled_ssd130x.h ****         spi_.BlockingTransmit(&cmd, 1);
 763              		.loc 5 111 23 view .LVU222
 764 01c2 2946     		mov	r1, r5
 765 01c4 3846     		mov	r0, r7
 766 01c6 8DF80830 		strb	r3, [sp, #8]
 767              	.LVL61:
 111:../../libdaisy/src/dev/oled_ssd130x.h ****         spi_.BlockingTransmit(&cmd, 1);
 768              		.loc 5 111 23 view .LVU223
 769              	.LBE178:
 770              	.LBI177:
 109:../../libdaisy/src/dev/oled_ssd130x.h ****     {
 771              		.loc 5 109 10 is_stmt 1 view .LVU224
 772              	.LBB179:
 111:../../libdaisy/src/dev/oled_ssd130x.h ****         spi_.BlockingTransmit(&cmd, 1);
 773              		.loc 5 111 9 view .LVU225
 111:../../libdaisy/src/dev/oled_ssd130x.h ****         spi_.BlockingTransmit(&cmd, 1);
 774              		.loc 5 111 23 is_stmt 0 view .LVU226
 775 01ca FFF7FEFF 		bl	dsy_gpio_write
 776              	.LVL62:
 112:../../libdaisy/src/dev/oled_ssd130x.h ****     };
 777              		.loc 5 112 9 is_stmt 1 view .LVU227
 112:../../libdaisy/src/dev/oled_ssd130x.h ****     };
 778              		.loc 5 112 30 is_stmt 0 view .LVU228
 779 01ce 3246     		mov	r2, r6
 780 01d0 02A9     		add	r1, sp, #8
 781 01d2 6423     		movs	r3, #100
 782 01d4 2046     		mov	r0, r4
 783 01d6 FFF7FEFF 		bl	_ZN5daisy9SpiHandle16BlockingTransmitEPhjm
 784              	.LVL63:
 112:../../libdaisy/src/dev/oled_ssd130x.h ****     };
 785              		.loc 5 112 30 view .LVU229
 786 01da A123     		movs	r3, #161
 787              	.LBE179:
ARM GAS  C:\Users\VINCIU~1\AppData\Local\Temp\cco4z3dl.s 			page 29


 788              	.LBE177:
 789              	.LBB180:
 790              	.LBB181:
 111:../../libdaisy/src/dev/oled_ssd130x.h ****         spi_.BlockingTransmit(&cmd, 1);
 791              		.loc 5 111 23 view .LVU230
 792 01dc 2946     		mov	r1, r5
 793 01de 3846     		mov	r0, r7
 794 01e0 8DF80830 		strb	r3, [sp, #8]
 795              	.LVL64:
 111:../../libdaisy/src/dev/oled_ssd130x.h ****         spi_.BlockingTransmit(&cmd, 1);
 796              		.loc 5 111 23 view .LVU231
 797              	.LBE181:
 798              	.LBI180:
 109:../../libdaisy/src/dev/oled_ssd130x.h ****     {
 799              		.loc 5 109 10 is_stmt 1 view .LVU232
 800              	.LBB182:
 111:../../libdaisy/src/dev/oled_ssd130x.h ****         spi_.BlockingTransmit(&cmd, 1);
 801              		.loc 5 111 9 view .LVU233
 111:../../libdaisy/src/dev/oled_ssd130x.h ****         spi_.BlockingTransmit(&cmd, 1);
 802              		.loc 5 111 23 is_stmt 0 view .LVU234
 803 01e4 FFF7FEFF 		bl	dsy_gpio_write
 804              	.LVL65:
 112:../../libdaisy/src/dev/oled_ssd130x.h ****     };
 805              		.loc 5 112 9 is_stmt 1 view .LVU235
 112:../../libdaisy/src/dev/oled_ssd130x.h ****     };
 806              		.loc 5 112 30 is_stmt 0 view .LVU236
 807 01e8 3246     		mov	r2, r6
 808 01ea 02A9     		add	r1, sp, #8
 809 01ec 6423     		movs	r3, #100
 810 01ee 2046     		mov	r0, r4
 811 01f0 FFF7FEFF 		bl	_ZN5daisy9SpiHandle16BlockingTransmitEPhjm
 812              	.LVL66:
 112:../../libdaisy/src/dev/oled_ssd130x.h ****     };
 813              		.loc 5 112 30 view .LVU237
 814 01f4 C823     		movs	r3, #200
 815              	.LBE182:
 816              	.LBE180:
 817              	.LBB183:
 818              	.LBB184:
 111:../../libdaisy/src/dev/oled_ssd130x.h ****         spi_.BlockingTransmit(&cmd, 1);
 819              		.loc 5 111 23 view .LVU238
 820 01f6 2946     		mov	r1, r5
 821 01f8 3846     		mov	r0, r7
 822 01fa 8DF80830 		strb	r3, [sp, #8]
 823              	.LVL67:
 111:../../libdaisy/src/dev/oled_ssd130x.h ****         spi_.BlockingTransmit(&cmd, 1);
 824              		.loc 5 111 23 view .LVU239
 825              	.LBE184:
 826              	.LBI183:
 109:../../libdaisy/src/dev/oled_ssd130x.h ****     {
 827              		.loc 5 109 10 is_stmt 1 view .LVU240
 828              	.LBB185:
 111:../../libdaisy/src/dev/oled_ssd130x.h ****         spi_.BlockingTransmit(&cmd, 1);
 829              		.loc 5 111 9 view .LVU241
 111:../../libdaisy/src/dev/oled_ssd130x.h ****         spi_.BlockingTransmit(&cmd, 1);
 830              		.loc 5 111 23 is_stmt 0 view .LVU242
 831 01fe FFF7FEFF 		bl	dsy_gpio_write
ARM GAS  C:\Users\VINCIU~1\AppData\Local\Temp\cco4z3dl.s 			page 30


 832              	.LVL68:
 112:../../libdaisy/src/dev/oled_ssd130x.h ****     };
 833              		.loc 5 112 9 is_stmt 1 view .LVU243
 112:../../libdaisy/src/dev/oled_ssd130x.h ****     };
 834              		.loc 5 112 30 is_stmt 0 view .LVU244
 835 0202 3246     		mov	r2, r6
 836 0204 02A9     		add	r1, sp, #8
 837 0206 6423     		movs	r3, #100
 838 0208 2046     		mov	r0, r4
 839 020a FFF7FEFF 		bl	_ZN5daisy9SpiHandle16BlockingTransmitEPhjm
 840              	.LVL69:
 112:../../libdaisy/src/dev/oled_ssd130x.h ****     };
 841              		.loc 5 112 30 view .LVU245
 842 020e 8123     		movs	r3, #129
 843              	.LBE185:
 844              	.LBE183:
 845              	.LBB186:
 846              	.LBB187:
 111:../../libdaisy/src/dev/oled_ssd130x.h ****         spi_.BlockingTransmit(&cmd, 1);
 847              		.loc 5 111 23 view .LVU246
 848 0210 2946     		mov	r1, r5
 849 0212 3846     		mov	r0, r7
 850 0214 8DF80830 		strb	r3, [sp, #8]
 851              	.LVL70:
 111:../../libdaisy/src/dev/oled_ssd130x.h ****         spi_.BlockingTransmit(&cmd, 1);
 852              		.loc 5 111 23 view .LVU247
 853              	.LBE187:
 854              	.LBI186:
 109:../../libdaisy/src/dev/oled_ssd130x.h ****     {
 855              		.loc 5 109 10 is_stmt 1 view .LVU248
 856              	.LBB188:
 111:../../libdaisy/src/dev/oled_ssd130x.h ****         spi_.BlockingTransmit(&cmd, 1);
 857              		.loc 5 111 9 view .LVU249
 111:../../libdaisy/src/dev/oled_ssd130x.h ****         spi_.BlockingTransmit(&cmd, 1);
 858              		.loc 5 111 23 is_stmt 0 view .LVU250
 859 0218 FFF7FEFF 		bl	dsy_gpio_write
 860              	.LVL71:
 112:../../libdaisy/src/dev/oled_ssd130x.h ****     };
 861              		.loc 5 112 9 is_stmt 1 view .LVU251
 112:../../libdaisy/src/dev/oled_ssd130x.h ****     };
 862              		.loc 5 112 30 is_stmt 0 view .LVU252
 863 021c 3246     		mov	r2, r6
 864 021e 02A9     		add	r1, sp, #8
 865 0220 6423     		movs	r3, #100
 866 0222 2046     		mov	r0, r4
 867 0224 FFF7FEFF 		bl	_ZN5daisy9SpiHandle16BlockingTransmitEPhjm
 868              	.LVL72:
 112:../../libdaisy/src/dev/oled_ssd130x.h ****     };
 869              		.loc 5 112 30 view .LVU253
 870 0228 8F23     		movs	r3, #143
 871              	.LBE188:
 872              	.LBE186:
 873              	.LBB189:
 874              	.LBB190:
 111:../../libdaisy/src/dev/oled_ssd130x.h ****         spi_.BlockingTransmit(&cmd, 1);
 875              		.loc 5 111 23 view .LVU254
 876 022a 2946     		mov	r1, r5
ARM GAS  C:\Users\VINCIU~1\AppData\Local\Temp\cco4z3dl.s 			page 31


 877 022c 3846     		mov	r0, r7
 878 022e 8DF80830 		strb	r3, [sp, #8]
 879              	.LVL73:
 111:../../libdaisy/src/dev/oled_ssd130x.h ****         spi_.BlockingTransmit(&cmd, 1);
 880              		.loc 5 111 23 view .LVU255
 881              	.LBE190:
 882              	.LBI189:
 109:../../libdaisy/src/dev/oled_ssd130x.h ****     {
 883              		.loc 5 109 10 is_stmt 1 view .LVU256
 884              	.LBB191:
 111:../../libdaisy/src/dev/oled_ssd130x.h ****         spi_.BlockingTransmit(&cmd, 1);
 885              		.loc 5 111 9 view .LVU257
 111:../../libdaisy/src/dev/oled_ssd130x.h ****         spi_.BlockingTransmit(&cmd, 1);
 886              		.loc 5 111 23 is_stmt 0 view .LVU258
 887 0232 FFF7FEFF 		bl	dsy_gpio_write
 888              	.LVL74:
 112:../../libdaisy/src/dev/oled_ssd130x.h ****     };
 889              		.loc 5 112 9 is_stmt 1 view .LVU259
 112:../../libdaisy/src/dev/oled_ssd130x.h ****     };
 890              		.loc 5 112 30 is_stmt 0 view .LVU260
 891 0236 3246     		mov	r2, r6
 892 0238 02A9     		add	r1, sp, #8
 893 023a 6423     		movs	r3, #100
 894 023c 2046     		mov	r0, r4
 895 023e FFF7FEFF 		bl	_ZN5daisy9SpiHandle16BlockingTransmitEPhjm
 896              	.LVL75:
 112:../../libdaisy/src/dev/oled_ssd130x.h ****     };
 897              		.loc 5 112 30 view .LVU261
 898 0242 D923     		movs	r3, #217
 899              	.LBE191:
 900              	.LBE189:
 901              	.LBB192:
 902              	.LBB193:
 111:../../libdaisy/src/dev/oled_ssd130x.h ****         spi_.BlockingTransmit(&cmd, 1);
 903              		.loc 5 111 23 view .LVU262
 904 0244 2946     		mov	r1, r5
 905 0246 3846     		mov	r0, r7
 906 0248 8DF80830 		strb	r3, [sp, #8]
 907              	.LVL76:
 111:../../libdaisy/src/dev/oled_ssd130x.h ****         spi_.BlockingTransmit(&cmd, 1);
 908              		.loc 5 111 23 view .LVU263
 909              	.LBE193:
 910              	.LBI192:
 109:../../libdaisy/src/dev/oled_ssd130x.h ****     {
 911              		.loc 5 109 10 is_stmt 1 view .LVU264
 912              	.LBB194:
 111:../../libdaisy/src/dev/oled_ssd130x.h ****         spi_.BlockingTransmit(&cmd, 1);
 913              		.loc 5 111 9 view .LVU265
 111:../../libdaisy/src/dev/oled_ssd130x.h ****         spi_.BlockingTransmit(&cmd, 1);
 914              		.loc 5 111 23 is_stmt 0 view .LVU266
 915 024c FFF7FEFF 		bl	dsy_gpio_write
 916              	.LVL77:
 112:../../libdaisy/src/dev/oled_ssd130x.h ****     };
 917              		.loc 5 112 9 is_stmt 1 view .LVU267
 112:../../libdaisy/src/dev/oled_ssd130x.h ****     };
 918              		.loc 5 112 30 is_stmt 0 view .LVU268
 919 0250 3246     		mov	r2, r6
ARM GAS  C:\Users\VINCIU~1\AppData\Local\Temp\cco4z3dl.s 			page 32


 920 0252 02A9     		add	r1, sp, #8
 921 0254 6423     		movs	r3, #100
 922 0256 2046     		mov	r0, r4
 923 0258 FFF7FEFF 		bl	_ZN5daisy9SpiHandle16BlockingTransmitEPhjm
 924              	.LVL78:
 112:../../libdaisy/src/dev/oled_ssd130x.h ****     };
 925              		.loc 5 112 30 view .LVU269
 926 025c 2523     		movs	r3, #37
 927              	.LBE194:
 928              	.LBE192:
 929              	.LBB195:
 930              	.LBB196:
 111:../../libdaisy/src/dev/oled_ssd130x.h ****         spi_.BlockingTransmit(&cmd, 1);
 931              		.loc 5 111 23 view .LVU270
 932 025e 2946     		mov	r1, r5
 933 0260 3846     		mov	r0, r7
 934 0262 8DF80830 		strb	r3, [sp, #8]
 935              	.LVL79:
 111:../../libdaisy/src/dev/oled_ssd130x.h ****         spi_.BlockingTransmit(&cmd, 1);
 936              		.loc 5 111 23 view .LVU271
 937              	.LBE196:
 938              	.LBI195:
 109:../../libdaisy/src/dev/oled_ssd130x.h ****     {
 939              		.loc 5 109 10 is_stmt 1 view .LVU272
 940              	.LBB197:
 111:../../libdaisy/src/dev/oled_ssd130x.h ****         spi_.BlockingTransmit(&cmd, 1);
 941              		.loc 5 111 9 view .LVU273
 111:../../libdaisy/src/dev/oled_ssd130x.h ****         spi_.BlockingTransmit(&cmd, 1);
 942              		.loc 5 111 23 is_stmt 0 view .LVU274
 943 0266 FFF7FEFF 		bl	dsy_gpio_write
 944              	.LVL80:
 112:../../libdaisy/src/dev/oled_ssd130x.h ****     };
 945              		.loc 5 112 9 is_stmt 1 view .LVU275
 112:../../libdaisy/src/dev/oled_ssd130x.h ****     };
 946              		.loc 5 112 30 is_stmt 0 view .LVU276
 947 026a 3246     		mov	r2, r6
 948 026c 02A9     		add	r1, sp, #8
 949 026e 6423     		movs	r3, #100
 950 0270 2046     		mov	r0, r4
 951 0272 FFF7FEFF 		bl	_ZN5daisy9SpiHandle16BlockingTransmitEPhjm
 952              	.LVL81:
 112:../../libdaisy/src/dev/oled_ssd130x.h ****     };
 953              		.loc 5 112 30 view .LVU277
 954 0276 DB23     		movs	r3, #219
 955              	.LBE197:
 956              	.LBE195:
 957              	.LBB198:
 958              	.LBB199:
 111:../../libdaisy/src/dev/oled_ssd130x.h ****         spi_.BlockingTransmit(&cmd, 1);
 959              		.loc 5 111 23 view .LVU278
 960 0278 2946     		mov	r1, r5
 961 027a 3846     		mov	r0, r7
 962 027c 8DF80830 		strb	r3, [sp, #8]
 963              	.LVL82:
 111:../../libdaisy/src/dev/oled_ssd130x.h ****         spi_.BlockingTransmit(&cmd, 1);
 964              		.loc 5 111 23 view .LVU279
 965              	.LBE199:
ARM GAS  C:\Users\VINCIU~1\AppData\Local\Temp\cco4z3dl.s 			page 33


 966              	.LBI198:
 109:../../libdaisy/src/dev/oled_ssd130x.h ****     {
 967              		.loc 5 109 10 is_stmt 1 view .LVU280
 968              	.LBB200:
 111:../../libdaisy/src/dev/oled_ssd130x.h ****         spi_.BlockingTransmit(&cmd, 1);
 969              		.loc 5 111 9 view .LVU281
 111:../../libdaisy/src/dev/oled_ssd130x.h ****         spi_.BlockingTransmit(&cmd, 1);
 970              		.loc 5 111 23 is_stmt 0 view .LVU282
 971 0280 FFF7FEFF 		bl	dsy_gpio_write
 972              	.LVL83:
 112:../../libdaisy/src/dev/oled_ssd130x.h ****     };
 973              		.loc 5 112 9 is_stmt 1 view .LVU283
 112:../../libdaisy/src/dev/oled_ssd130x.h ****     };
 974              		.loc 5 112 30 is_stmt 0 view .LVU284
 975 0284 3246     		mov	r2, r6
 976 0286 02A9     		add	r1, sp, #8
 977 0288 6423     		movs	r3, #100
 978 028a 2046     		mov	r0, r4
 979 028c FFF7FEFF 		bl	_ZN5daisy9SpiHandle16BlockingTransmitEPhjm
 980              	.LVL84:
 112:../../libdaisy/src/dev/oled_ssd130x.h ****     };
 981              		.loc 5 112 30 view .LVU285
 982 0290 3423     		movs	r3, #52
 983              	.LBE200:
 984              	.LBE198:
 985              	.LBB201:
 986              	.LBB202:
 111:../../libdaisy/src/dev/oled_ssd130x.h ****         spi_.BlockingTransmit(&cmd, 1);
 987              		.loc 5 111 23 view .LVU286
 988 0292 2946     		mov	r1, r5
 989 0294 3846     		mov	r0, r7
 990 0296 8DF80830 		strb	r3, [sp, #8]
 991              	.LVL85:
 111:../../libdaisy/src/dev/oled_ssd130x.h ****         spi_.BlockingTransmit(&cmd, 1);
 992              		.loc 5 111 23 view .LVU287
 993              	.LBE202:
 994              	.LBI201:
 109:../../libdaisy/src/dev/oled_ssd130x.h ****     {
 995              		.loc 5 109 10 is_stmt 1 view .LVU288
 996              	.LBB203:
 111:../../libdaisy/src/dev/oled_ssd130x.h ****         spi_.BlockingTransmit(&cmd, 1);
 997              		.loc 5 111 9 view .LVU289
 111:../../libdaisy/src/dev/oled_ssd130x.h ****         spi_.BlockingTransmit(&cmd, 1);
 998              		.loc 5 111 23 is_stmt 0 view .LVU290
 999 029a FFF7FEFF 		bl	dsy_gpio_write
 1000              	.LVL86:
 112:../../libdaisy/src/dev/oled_ssd130x.h ****     };
 1001              		.loc 5 112 9 is_stmt 1 view .LVU291
 112:../../libdaisy/src/dev/oled_ssd130x.h ****     };
 1002              		.loc 5 112 30 is_stmt 0 view .LVU292
 1003 029e 3246     		mov	r2, r6
 1004 02a0 02A9     		add	r1, sp, #8
 1005 02a2 6423     		movs	r3, #100
 1006 02a4 2046     		mov	r0, r4
 1007 02a6 FFF7FEFF 		bl	_ZN5daisy9SpiHandle16BlockingTransmitEPhjm
 1008              	.LVL87:
 112:../../libdaisy/src/dev/oled_ssd130x.h ****     };
ARM GAS  C:\Users\VINCIU~1\AppData\Local\Temp\cco4z3dl.s 			page 34


 1009              		.loc 5 112 30 view .LVU293
 1010 02aa AF23     		movs	r3, #175
 1011              	.LBE203:
 1012              	.LBE201:
 1013              	.LBB204:
 1014              	.LBB205:
 111:../../libdaisy/src/dev/oled_ssd130x.h ****         spi_.BlockingTransmit(&cmd, 1);
 1015              		.loc 5 111 23 view .LVU294
 1016 02ac 2946     		mov	r1, r5
 1017 02ae 3846     		mov	r0, r7
 1018 02b0 8DF80830 		strb	r3, [sp, #8]
 1019              	.LVL88:
 111:../../libdaisy/src/dev/oled_ssd130x.h ****         spi_.BlockingTransmit(&cmd, 1);
 1020              		.loc 5 111 23 view .LVU295
 1021              	.LBE205:
 1022              	.LBI204:
 109:../../libdaisy/src/dev/oled_ssd130x.h ****     {
 1023              		.loc 5 109 10 is_stmt 1 view .LVU296
 1024              	.LBB206:
 111:../../libdaisy/src/dev/oled_ssd130x.h ****         spi_.BlockingTransmit(&cmd, 1);
 1025              		.loc 5 111 9 view .LVU297
 111:../../libdaisy/src/dev/oled_ssd130x.h ****         spi_.BlockingTransmit(&cmd, 1);
 1026              		.loc 5 111 23 is_stmt 0 view .LVU298
 1027 02b4 FFF7FEFF 		bl	dsy_gpio_write
 1028              	.LVL89:
 112:../../libdaisy/src/dev/oled_ssd130x.h ****     };
 1029              		.loc 5 112 9 is_stmt 1 view .LVU299
 112:../../libdaisy/src/dev/oled_ssd130x.h ****     };
 1030              		.loc 5 112 30 is_stmt 0 view .LVU300
 1031 02b8 6423     		movs	r3, #100
 1032 02ba 3246     		mov	r2, r6
 1033 02bc 02A9     		add	r1, sp, #8
 1034 02be 2046     		mov	r0, r4
 1035 02c0 FFF7FEFF 		bl	_ZN5daisy9SpiHandle16BlockingTransmitEPhjm
 1036              	.LVL90:
 112:../../libdaisy/src/dev/oled_ssd130x.h ****     };
 1037              		.loc 5 112 30 view .LVU301
 1038              	.LBE206:
 1039              	.LBE204:
 141:../../libdaisy/src/dev/oled_ssd130x.h ****     {
 142:../../libdaisy/src/dev/oled_ssd130x.h ****         transport_.Init(config.transport_config);
 143:../../libdaisy/src/dev/oled_ssd130x.h **** 
 144:../../libdaisy/src/dev/oled_ssd130x.h ****         // Init routine...
 145:../../libdaisy/src/dev/oled_ssd130x.h **** 
 146:../../libdaisy/src/dev/oled_ssd130x.h ****         // Display Off
 147:../../libdaisy/src/dev/oled_ssd130x.h ****         transport_.SendCommand(0xaE);
 148:../../libdaisy/src/dev/oled_ssd130x.h ****         // Dimension dependent commands...
 149:../../libdaisy/src/dev/oled_ssd130x.h ****         switch(height)
 150:../../libdaisy/src/dev/oled_ssd130x.h ****         {
 151:../../libdaisy/src/dev/oled_ssd130x.h ****             case 16:
 152:../../libdaisy/src/dev/oled_ssd130x.h ****                 // Display Clock Divide Ratio
 153:../../libdaisy/src/dev/oled_ssd130x.h ****                 transport_.SendCommand(0xD5);
 154:../../libdaisy/src/dev/oled_ssd130x.h ****                 transport_.SendCommand(0x60);
 155:../../libdaisy/src/dev/oled_ssd130x.h ****                 // Multiplex Ratio
 156:../../libdaisy/src/dev/oled_ssd130x.h ****                 transport_.SendCommand(0xA8);
 157:../../libdaisy/src/dev/oled_ssd130x.h ****                 transport_.SendCommand(0x0F);
 158:../../libdaisy/src/dev/oled_ssd130x.h ****                 // COM Pins
ARM GAS  C:\Users\VINCIU~1\AppData\Local\Temp\cco4z3dl.s 			page 35


 159:../../libdaisy/src/dev/oled_ssd130x.h ****                 transport_.SendCommand(0xDA);
 160:../../libdaisy/src/dev/oled_ssd130x.h ****                 transport_.SendCommand(0x02);
 161:../../libdaisy/src/dev/oled_ssd130x.h ****                 break;
 162:../../libdaisy/src/dev/oled_ssd130x.h ****             case 32:
 163:../../libdaisy/src/dev/oled_ssd130x.h ****                 // Display Clock Divide Ratio
 164:../../libdaisy/src/dev/oled_ssd130x.h ****                 transport_.SendCommand(0xD5);
 165:../../libdaisy/src/dev/oled_ssd130x.h ****                 transport_.SendCommand(0x80);
 166:../../libdaisy/src/dev/oled_ssd130x.h ****                 // Multiplex Ratio
 167:../../libdaisy/src/dev/oled_ssd130x.h ****                 transport_.SendCommand(0xA8);
 168:../../libdaisy/src/dev/oled_ssd130x.h ****                 transport_.SendCommand(0x1F);
 169:../../libdaisy/src/dev/oled_ssd130x.h ****                 // COM Pins
 170:../../libdaisy/src/dev/oled_ssd130x.h ****                 transport_.SendCommand(0xDA);
 171:../../libdaisy/src/dev/oled_ssd130x.h ****                 if(width == 64)
 172:../../libdaisy/src/dev/oled_ssd130x.h ****                 {
 173:../../libdaisy/src/dev/oled_ssd130x.h ****                     transport_.SendCommand(0x12);
 174:../../libdaisy/src/dev/oled_ssd130x.h ****                 }
 175:../../libdaisy/src/dev/oled_ssd130x.h ****                 else
 176:../../libdaisy/src/dev/oled_ssd130x.h ****                 {
 177:../../libdaisy/src/dev/oled_ssd130x.h ****                     transport_.SendCommand(0x02);
 178:../../libdaisy/src/dev/oled_ssd130x.h ****                 }
 179:../../libdaisy/src/dev/oled_ssd130x.h **** 
 180:../../libdaisy/src/dev/oled_ssd130x.h ****                 break;
 181:../../libdaisy/src/dev/oled_ssd130x.h ****             case 48:
 182:../../libdaisy/src/dev/oled_ssd130x.h ****                 // Display Clock Divide Ratio
 183:../../libdaisy/src/dev/oled_ssd130x.h ****                 transport_.SendCommand(0xD5);
 184:../../libdaisy/src/dev/oled_ssd130x.h ****                 transport_.SendCommand(0x80);
 185:../../libdaisy/src/dev/oled_ssd130x.h ****                 // Multiplex Ratio
 186:../../libdaisy/src/dev/oled_ssd130x.h ****                 transport_.SendCommand(0xA8);
 187:../../libdaisy/src/dev/oled_ssd130x.h ****                 transport_.SendCommand(0x2F);
 188:../../libdaisy/src/dev/oled_ssd130x.h ****                 // COM Pins
 189:../../libdaisy/src/dev/oled_ssd130x.h ****                 transport_.SendCommand(0xDA);
 190:../../libdaisy/src/dev/oled_ssd130x.h ****                 transport_.SendCommand(0x12);
 191:../../libdaisy/src/dev/oled_ssd130x.h ****                 break;
 192:../../libdaisy/src/dev/oled_ssd130x.h ****             default: // 128
 193:../../libdaisy/src/dev/oled_ssd130x.h ****                 // Display Clock Divide Ratio
 194:../../libdaisy/src/dev/oled_ssd130x.h ****                 transport_.SendCommand(0xD5);
 195:../../libdaisy/src/dev/oled_ssd130x.h ****                 transport_.SendCommand(0x80);
 196:../../libdaisy/src/dev/oled_ssd130x.h ****                 // Multiplex Ratio
 197:../../libdaisy/src/dev/oled_ssd130x.h ****                 transport_.SendCommand(0xA8);
 198:../../libdaisy/src/dev/oled_ssd130x.h ****                 transport_.SendCommand(0x3F);
 199:../../libdaisy/src/dev/oled_ssd130x.h ****                 // COM Pins
 200:../../libdaisy/src/dev/oled_ssd130x.h ****                 transport_.SendCommand(0xDA);
 201:../../libdaisy/src/dev/oled_ssd130x.h ****                 transport_.SendCommand(0x12);
 202:../../libdaisy/src/dev/oled_ssd130x.h ****                 break;
 203:../../libdaisy/src/dev/oled_ssd130x.h ****         }
 204:../../libdaisy/src/dev/oled_ssd130x.h **** 
 205:../../libdaisy/src/dev/oled_ssd130x.h ****         // Display Offset
 206:../../libdaisy/src/dev/oled_ssd130x.h ****         transport_.SendCommand(0xD3);
 207:../../libdaisy/src/dev/oled_ssd130x.h ****         transport_.SendCommand(0x00);
 208:../../libdaisy/src/dev/oled_ssd130x.h ****         // Start Line Address
 209:../../libdaisy/src/dev/oled_ssd130x.h ****         transport_.SendCommand(0x40);
 210:../../libdaisy/src/dev/oled_ssd130x.h ****         // Normal Display
 211:../../libdaisy/src/dev/oled_ssd130x.h ****         transport_.SendCommand(0xA6);
 212:../../libdaisy/src/dev/oled_ssd130x.h ****         // All On Resume
 213:../../libdaisy/src/dev/oled_ssd130x.h ****         transport_.SendCommand(0xA4);
 214:../../libdaisy/src/dev/oled_ssd130x.h ****         // Charge Pump
 215:../../libdaisy/src/dev/oled_ssd130x.h ****         transport_.SendCommand(0x8D);
ARM GAS  C:\Users\VINCIU~1\AppData\Local\Temp\cco4z3dl.s 			page 36


 216:../../libdaisy/src/dev/oled_ssd130x.h ****         transport_.SendCommand(0x14);
 217:../../libdaisy/src/dev/oled_ssd130x.h ****         // Set Segment Remap
 218:../../libdaisy/src/dev/oled_ssd130x.h ****         transport_.SendCommand(0xA1);
 219:../../libdaisy/src/dev/oled_ssd130x.h ****         // COM Output Scan Direction
 220:../../libdaisy/src/dev/oled_ssd130x.h ****         transport_.SendCommand(0xC8);
 221:../../libdaisy/src/dev/oled_ssd130x.h ****         // Contrast Control
 222:../../libdaisy/src/dev/oled_ssd130x.h ****         transport_.SendCommand(0x81);
 223:../../libdaisy/src/dev/oled_ssd130x.h ****         transport_.SendCommand(0x8F);
 224:../../libdaisy/src/dev/oled_ssd130x.h ****         // Pre Charge
 225:../../libdaisy/src/dev/oled_ssd130x.h ****         transport_.SendCommand(0xD9);
 226:../../libdaisy/src/dev/oled_ssd130x.h ****         transport_.SendCommand(0x25);
 227:../../libdaisy/src/dev/oled_ssd130x.h ****         // VCOM Detect
 228:../../libdaisy/src/dev/oled_ssd130x.h ****         transport_.SendCommand(0xDB);
 229:../../libdaisy/src/dev/oled_ssd130x.h ****         transport_.SendCommand(0x34);
 230:../../libdaisy/src/dev/oled_ssd130x.h **** 
 231:../../libdaisy/src/dev/oled_ssd130x.h **** 
 232:../../libdaisy/src/dev/oled_ssd130x.h ****         // Display On
 233:../../libdaisy/src/dev/oled_ssd130x.h ****         transport_.SendCommand(0xAF); //--turn on oled panel
 234:../../libdaisy/src/dev/oled_ssd130x.h ****     };
 1040              		.loc 5 234 5 view .LVU302
 1041 02c4 0CB0     		add	sp, sp, #48
 1042              		.cfi_def_cfa_offset 24
 1043              		@ sp needed
 1044 02c6 BDE8F081 		pop	{r4, r5, r6, r7, r8, pc}
 1045              	.LVL91:
 1046              	.L18:
 1047              		.loc 5 234 5 view .LVU303
 1048 02ca 00BF     		.align	2
 1049              	.L17:
 1050 02cc 060B0B00 		.word	723718
 1051 02d0 0105060A 		.word	168166657
 1052              		.cfi_endproc
 1053              	.LFE4447:
 1055              		.section	.text._Z9SynthInitPN5daisy9DaisySeedEPNS_11OledDisplayINS_13SSD130xDriverILj128ELj64ENS_2
 1056              		.align	1
 1057              		.p2align 2,,3
 1058              		.global	_Z9SynthInitPN5daisy9DaisySeedEPNS_11OledDisplayINS_13SSD130xDriverILj128ELj64ENS_24SSD130
 1059              		.syntax unified
 1060              		.thumb
 1061              		.thumb_func
 1062              		.fpu fpv5-d16
 1064              	_Z9SynthInitPN5daisy9DaisySeedEPNS_11OledDisplayINS_13SSD130xDriverILj128ELj64ENS_24SSD130x4WireSpi
 1065              	.LVL92:
 1066              	.LFB4034:
   8:globalFunc.cpp **** {
 1067              		.loc 1 8 1 is_stmt 1 view -0
 1068              		.cfi_startproc
 1069              		@ args = 0, pretend = 0, frame = 32
 1070              		@ frame_needed = 0, uses_anonymous_args = 0
   8:globalFunc.cpp **** {
 1071              		.loc 1 8 1 is_stmt 0 view .LVU305
 1072 0000 F0B5     		push	{r4, r5, r6, r7, lr}
 1073              		.cfi_def_cfa_offset 20
 1074              		.cfi_offset 4, -20
 1075              		.cfi_offset 5, -16
 1076              		.cfi_offset 6, -12
 1077              		.cfi_offset 7, -8
ARM GAS  C:\Users\VINCIU~1\AppData\Local\Temp\cco4z3dl.s 			page 37


 1078              		.cfi_offset 14, -4
 1079 0002 0646     		mov	r6, r0
 1080 0004 89B0     		sub	sp, sp, #36
 1081              		.cfi_def_cfa_offset 56
   8:globalFunc.cpp **** {
 1082              		.loc 1 8 1 view .LVU306
 1083 0006 1446     		mov	r4, r2
 1084 0008 1D46     		mov	r5, r3
   9:globalFunc.cpp ****     MidiHandler<MidiUartTransport>::Config midi_cfg;
 1085              		.loc 1 9 5 is_stmt 1 view .LVU307
 1086              	.LVL93:
 1087              	.LBB230:
 1088              	.LBI230:
 1089              		.file 6 "../../libdaisy/src/hid/midi.h"
   1:../../libdaisy/src/hid/midi.h **** #pragma once
   2:../../libdaisy/src/hid/midi.h **** #ifndef DSY_MIDI_H
   3:../../libdaisy/src/hid/midi.h **** #define DSY_MIDI_H
   4:../../libdaisy/src/hid/midi.h **** 
   5:../../libdaisy/src/hid/midi.h **** // TODO: make this adjustable
   6:../../libdaisy/src/hid/midi.h **** #define SYSEX_BUFFER_LEN 100
   7:../../libdaisy/src/hid/midi.h **** 
   8:../../libdaisy/src/hid/midi.h **** #include <stdint.h>
   9:../../libdaisy/src/hid/midi.h **** #include <stdlib.h>
  10:../../libdaisy/src/hid/midi.h **** #include "per/uart.h"
  11:../../libdaisy/src/hid/midi.h **** #include "util/ringbuffer.h"
  12:../../libdaisy/src/hid/midi.h **** #include "hid/MidiEvent.h"
  13:../../libdaisy/src/hid/midi.h **** 
  14:../../libdaisy/src/hid/midi.h **** namespace daisy
  15:../../libdaisy/src/hid/midi.h **** {
  16:../../libdaisy/src/hid/midi.h **** /** @addtogroup external 
  17:../../libdaisy/src/hid/midi.h ****     @{ 
  18:../../libdaisy/src/hid/midi.h **** */
  19:../../libdaisy/src/hid/midi.h **** 
  20:../../libdaisy/src/hid/midi.h **** class MidiUartTransport
  21:../../libdaisy/src/hid/midi.h **** {
  22:../../libdaisy/src/hid/midi.h ****   public:
  23:../../libdaisy/src/hid/midi.h ****     MidiUartTransport() {}
  24:../../libdaisy/src/hid/midi.h ****     ~MidiUartTransport() {}
  25:../../libdaisy/src/hid/midi.h **** 
  26:../../libdaisy/src/hid/midi.h ****     struct Config
  27:../../libdaisy/src/hid/midi.h ****     {
  28:../../libdaisy/src/hid/midi.h ****         UartHandler::Config::Peripheral periph;
  29:../../libdaisy/src/hid/midi.h ****         dsy_gpio_pin                    rx;
  30:../../libdaisy/src/hid/midi.h ****         dsy_gpio_pin                    tx;
  31:../../libdaisy/src/hid/midi.h **** 
  32:../../libdaisy/src/hid/midi.h ****         Config()
  33:../../libdaisy/src/hid/midi.h ****         {
  34:../../libdaisy/src/hid/midi.h ****             periph = UartHandler::Config::Peripheral::USART_1;
  35:../../libdaisy/src/hid/midi.h ****             rx     = {DSY_GPIOB, 7};
  36:../../libdaisy/src/hid/midi.h ****             tx     = {DSY_GPIOB, 6};
  37:../../libdaisy/src/hid/midi.h ****         }
  38:../../libdaisy/src/hid/midi.h ****     };
  39:../../libdaisy/src/hid/midi.h **** 
  40:../../libdaisy/src/hid/midi.h ****     inline void Init(Config config)
  41:../../libdaisy/src/hid/midi.h ****     {
  42:../../libdaisy/src/hid/midi.h ****         UartHandler::Config uart_config;
  43:../../libdaisy/src/hid/midi.h **** 
ARM GAS  C:\Users\VINCIU~1\AppData\Local\Temp\cco4z3dl.s 			page 38


  44:../../libdaisy/src/hid/midi.h ****         //defaults
  45:../../libdaisy/src/hid/midi.h ****         uart_config.baudrate   = 31250;
  46:../../libdaisy/src/hid/midi.h ****         uart_config.stopbits   = UartHandler::Config::StopBits::BITS_1;
  47:../../libdaisy/src/hid/midi.h ****         uart_config.parity     = UartHandler::Config::Parity::NONE;
  48:../../libdaisy/src/hid/midi.h ****         uart_config.mode       = UartHandler::Config::Mode::TX_RX;
  49:../../libdaisy/src/hid/midi.h ****         uart_config.wordlength = UartHandler::Config::WordLength::BITS_8;
  50:../../libdaisy/src/hid/midi.h **** 
  51:../../libdaisy/src/hid/midi.h ****         //user settings
  52:../../libdaisy/src/hid/midi.h ****         uart_config.periph        = config.periph;
  53:../../libdaisy/src/hid/midi.h ****         uart_config.pin_config.rx = config.rx;
  54:../../libdaisy/src/hid/midi.h ****         uart_config.pin_config.tx = config.tx;
  55:../../libdaisy/src/hid/midi.h **** 
  56:../../libdaisy/src/hid/midi.h ****         uart_.Init(uart_config);
  57:../../libdaisy/src/hid/midi.h ****     }
  58:../../libdaisy/src/hid/midi.h **** 
  59:../../libdaisy/src/hid/midi.h ****     inline void    StartRx() { uart_.StartRx(); }
  60:../../libdaisy/src/hid/midi.h ****     inline size_t  Readable() { return uart_.Readable(); }
  61:../../libdaisy/src/hid/midi.h ****     inline uint8_t Rx() { return uart_.PopRx(); }
  62:../../libdaisy/src/hid/midi.h ****     inline bool    RxActive() { return uart_.RxActive(); }
  63:../../libdaisy/src/hid/midi.h ****     inline void    FlushRx() { uart_.FlushRx(); }
  64:../../libdaisy/src/hid/midi.h ****     inline void    Tx(uint8_t* buff, size_t size) { uart_.PollTx(buff, size); }
  65:../../libdaisy/src/hid/midi.h **** 
  66:../../libdaisy/src/hid/midi.h ****   private:
  67:../../libdaisy/src/hid/midi.h ****     UartHandler uart_;
  68:../../libdaisy/src/hid/midi.h **** };
  69:../../libdaisy/src/hid/midi.h **** 
  70:../../libdaisy/src/hid/midi.h **** /** 
  71:../../libdaisy/src/hid/midi.h ****     @brief Simple MIDI Handler \n 
  72:../../libdaisy/src/hid/midi.h ****     Parses bytes from an input into valid MidiEvents. \n 
  73:../../libdaisy/src/hid/midi.h ****     The MidiEvents fill a FIFO queue that the user can pop messages from.
  74:../../libdaisy/src/hid/midi.h ****     @author shensley
  75:../../libdaisy/src/hid/midi.h ****     @date March 2020
  76:../../libdaisy/src/hid/midi.h **** */
  77:../../libdaisy/src/hid/midi.h **** template <typename Transport>
  78:../../libdaisy/src/hid/midi.h **** class MidiHandler
  79:../../libdaisy/src/hid/midi.h **** {
  80:../../libdaisy/src/hid/midi.h ****   public:
  81:../../libdaisy/src/hid/midi.h ****     MidiHandler() {}
  82:../../libdaisy/src/hid/midi.h ****     ~MidiHandler() {}
  83:../../libdaisy/src/hid/midi.h **** 
  84:../../libdaisy/src/hid/midi.h ****     struct Config
 1090              		.loc 6 84 12 view .LVU308
 1091              	.LBB231:
 1092              	.LBI231:
  32:../../libdaisy/src/hid/midi.h ****         {
 1093              		.loc 6 32 9 view .LVU309
 1094              	.LBE231:
 1095              	.LBE230:
  34:../../libdaisy/src/hid/midi.h ****             rx     = {DSY_GPIOB, 7};
 1096              		.loc 6 34 13 view .LVU310
  35:../../libdaisy/src/hid/midi.h ****             tx     = {DSY_GPIOB, 6};
 1097              		.loc 6 35 13 view .LVU311
  36:../../libdaisy/src/hid/midi.h ****         }
 1098              		.loc 6 36 13 view .LVU312
  10:globalFunc.cpp ****     seed->Configure();
 1099              		.loc 1 10 5 view .LVU313
   8:globalFunc.cpp **** {
ARM GAS  C:\Users\VINCIU~1\AppData\Local\Temp\cco4z3dl.s 			page 39


 1100              		.loc 1 8 1 is_stmt 0 view .LVU314
 1101 000a 0F46     		mov	r7, r1
  10:globalFunc.cpp ****     seed->Configure();
 1102              		.loc 1 10 20 view .LVU315
 1103 000c FFF7FEFF 		bl	_ZN5daisy9DaisySeed9ConfigureEv
 1104              	.LVL94:
  11:globalFunc.cpp ****     seed->Init();
 1105              		.loc 1 11 5 is_stmt 1 view .LVU316
  11:globalFunc.cpp ****     seed->Init();
 1106              		.loc 1 11 15 is_stmt 0 view .LVU317
 1107 0010 0021     		movs	r1, #0
 1108 0012 3046     		mov	r0, r6
 1109 0014 FFF7FEFF 		bl	_ZN5daisy9DaisySeed4InitEb
 1110              	.LVL95:
  13:globalFunc.cpp ****     OledDisplay<SSD130x4WireSpi128x64Driver>::Config disp_cfg;
 1111              		.loc 1 13 5 is_stmt 1 view .LVU318
  14:globalFunc.cpp ****     disp_cfg.driver_config.transport_config.pin_config.dc    = seed->GetPin(9);
 1112              		.loc 1 14 5 view .LVU319
  14:globalFunc.cpp ****     disp_cfg.driver_config.transport_config.pin_config.dc    = seed->GetPin(9);
 1113              		.loc 1 14 78 is_stmt 0 view .LVU320
 1114 0018 0920     		movs	r0, #9
 1115 001a FFF7FEFF 		bl	_ZN5daisy9DaisySeed6GetPinEh
 1116              	.LVL96:
 1117 001e ADF80000 		strh	r0, [sp]	@ movhi
  15:globalFunc.cpp ****     disp_cfg.driver_config.transport_config.pin_config.reset = seed->GetPin(30);
 1118              		.loc 1 15 5 is_stmt 1 view .LVU321
  15:globalFunc.cpp ****     disp_cfg.driver_config.transport_config.pin_config.reset = seed->GetPin(30);
 1119              		.loc 1 15 79 is_stmt 0 view .LVU322
 1120 0022 1E20     		movs	r0, #30
 1121 0024 FFF7FEFF 		bl	_ZN5daisy9DaisySeed6GetPinEh
 1122              	.LVL97:
 1123 0028 0346     		mov	r3, r0	@ movhi
 1124              	.LBB232:
 1125              	.LBB233:
 1126              		.file 7 "../../libdaisy/src/hid/disp/oled_display.h"
   1:../../libdaisy/src/hid/disp/oled_display.h **** #pragma once
   2:../../libdaisy/src/hid/disp/oled_display.h **** #ifndef DSY_OLED_DISPLAY_H
   3:../../libdaisy/src/hid/disp/oled_display.h **** #define DSY_OLED_DISPLAY_H /**< Macro */
   4:../../libdaisy/src/hid/disp/oled_display.h **** 
   5:../../libdaisy/src/hid/disp/oled_display.h **** #include "display.h"
   6:../../libdaisy/src/hid/disp/oled_display.h **** 
   7:../../libdaisy/src/hid/disp/oled_display.h **** namespace daisy
   8:../../libdaisy/src/hid/disp/oled_display.h **** {
   9:../../libdaisy/src/hid/disp/oled_display.h **** /** 
  10:../../libdaisy/src/hid/disp/oled_display.h ****  * This class is for drawing to a monochrome OLED display. 
  11:../../libdaisy/src/hid/disp/oled_display.h **** */
  12:../../libdaisy/src/hid/disp/oled_display.h **** template <typename DisplayDriver>
  13:../../libdaisy/src/hid/disp/oled_display.h **** class OledDisplay : public OneBitGraphicsDisplayImpl<OledDisplay<DisplayDriver>>
  14:../../libdaisy/src/hid/disp/oled_display.h **** {
  15:../../libdaisy/src/hid/disp/oled_display.h ****   public:
  16:../../libdaisy/src/hid/disp/oled_display.h ****     OledDisplay() {}
  17:../../libdaisy/src/hid/disp/oled_display.h ****     virtual ~OledDisplay() {}
  18:../../libdaisy/src/hid/disp/oled_display.h **** 
  19:../../libdaisy/src/hid/disp/oled_display.h ****     struct Config
  20:../../libdaisy/src/hid/disp/oled_display.h ****     {
  21:../../libdaisy/src/hid/disp/oled_display.h ****         typename DisplayDriver::Config driver_config;
  22:../../libdaisy/src/hid/disp/oled_display.h ****     };
ARM GAS  C:\Users\VINCIU~1\AppData\Local\Temp\cco4z3dl.s 			page 40


  23:../../libdaisy/src/hid/disp/oled_display.h **** 
  24:../../libdaisy/src/hid/disp/oled_display.h ****     void Init(Config config) { driver_.Init(config.driver_config); }
 1127              		.loc 7 24 44 view .LVU323
 1128 002a 07F10800 		add	r0, r7, #8
 1129              	.LBE233:
 1130              	.LBE232:
 1131              	.LBB235:
 1132              	.LBB236:
  68:../../DaisySP/Source/Synthesis/oscillator.h ****     /** Sets the waveform to be synthesized by the Process() function.
  69:../../DaisySP/Source/Synthesis/oscillator.h ****     */
  70:../../DaisySP/Source/Synthesis/oscillator.h ****     inline void SetWaveform(const uint8_t wf)
  71:../../DaisySP/Source/Synthesis/oscillator.h ****     {
  72:../../DaisySP/Source/Synthesis/oscillator.h ****         waveform_ = wf < WAVE_LAST ? wf : WAVE_SIN;
 1133              		.loc 3 72 19 view .LVU324
 1134 002e 0227     		movs	r7, #2
 1135              	.LVL98:
 1136              		.loc 3 72 19 view .LVU325
 1137              	.LBE236:
 1138              	.LBE235:
  15:globalFunc.cpp ****     disp_cfg.driver_config.transport_config.pin_config.reset = seed->GetPin(30);
 1139              		.loc 1 15 79 view .LVU326
 1140 0030 ADF80230 		strh	r3, [sp, #2]	@ movhi
  17:globalFunc.cpp ****     oledScreen->Init(disp_cfg);
 1141              		.loc 1 17 5 is_stmt 1 view .LVU327
 1142              	.LVL99:
  17:globalFunc.cpp ****     oledScreen->Init(disp_cfg);
 1143              		.loc 1 17 5 is_stmt 0 view .LVU328
 1144 0034 0099     		ldr	r1, [sp]
 1145 0036 0191     		str	r1, [sp, #4]
 1146              	.LBB239:
 1147              	.LBI232:
 1148              		.loc 7 24 10 is_stmt 1 view .LVU329
 1149              	.LBB234:
 1150              		.loc 7 24 44 is_stmt 0 view .LVU330
 1151 0038 FFF7FEFF 		bl	_ZN5daisy13SSD130xDriverILj128ELj64ENS_24SSD130x4WireSpiTransportEE4InitENS2_6ConfigE
 1152              	.LVL100:
 1153              		.loc 7 24 44 view .LVU331
 1154              	.LBE234:
 1155              	.LBE239:
  18:globalFunc.cpp ****     osc->Init(seed->AudioSampleRate());
 1156              		.loc 1 18 5 is_stmt 1 view .LVU332
  18:globalFunc.cpp ****     osc->Init(seed->AudioSampleRate());
 1157              		.loc 1 18 14 is_stmt 0 view .LVU333
 1158 003c 3046     		mov	r0, r6
 1159              	.LBB240:
 1160              	.LBB241:
  47:../../DaisySP/Source/Synthesis/oscillator.h ****         phase_     = 0.0f;
 1161              		.loc 3 47 20 view .LVU334
 1162 003e 4FF07C56 		mov	r6, #1056964608
 1163              	.LVL101:
  47:../../DaisySP/Source/Synthesis/oscillator.h ****         phase_     = 0.0f;
 1164              		.loc 3 47 20 view .LVU335
 1165              	.LBE241:
 1166              	.LBE240:
  18:globalFunc.cpp ****     osc->Init(seed->AudioSampleRate());
 1167              		.loc 1 18 14 view .LVU336
 1168 0042 FFF7FEFF 		bl	_ZN5daisy9DaisySeed15AudioSampleRateEv
ARM GAS  C:\Users\VINCIU~1\AppData\Local\Temp\cco4z3dl.s 			page 41


 1169              	.LVL102:
 1170              	.LBB247:
 1171              	.LBB242:
  45:../../DaisySP/Source/Synthesis/oscillator.h ****         freq_      = 100.0f;
 1172              		.loc 3 45 27 view .LVU337
 1173 0046 F7EE006A 		vmov.f32	s13, #1.0e+0
 1174              	.LBE242:
 1175              	.LBE247:
  18:globalFunc.cpp ****     osc->Init(seed->AudioSampleRate());
 1176              		.loc 1 18 14 view .LVU338
 1177 004a F0EE407A 		vmov.f32	s15, s0
 1178              	.LVL103:
 1179              	.LBB248:
 1180              	.LBI240:
  42:../../DaisySP/Source/Synthesis/oscillator.h ****     {
 1181              		.loc 3 42 10 is_stmt 1 view .LVU339
 1182              	.LBB243:
  44:../../DaisySP/Source/Synthesis/oscillator.h ****         sr_recip_  = 1.0f / sample_rate;
 1183              		.loc 3 44 9 view .LVU340
  48:../../DaisySP/Source/Synthesis/oscillator.h ****         phase_inc_ = CalcPhaseInc(freq_);
 1184              		.loc 3 48 20 is_stmt 0 view .LVU341
 1185 004e 0023     		movs	r3, #0
  46:../../DaisySP/Source/Synthesis/oscillator.h ****         amp_       = 0.5f;
 1186              		.loc 3 46 20 view .LVU342
 1187 0050 9FED250A 		vldr.32	s0, .L21
 1188              	.LVL104:
  49:../../DaisySP/Source/Synthesis/oscillator.h ****         waveform_  = WAVE_SIN;
 1189              		.loc 3 49 34 view .LVU343
 1190 0054 2046     		mov	r0, r4
  47:../../DaisySP/Source/Synthesis/oscillator.h ****         phase_     = 0.0f;
 1191              		.loc 3 47 20 view .LVU344
 1192 0056 6660     		str	r6, [r4, #4]	@ float
  45:../../DaisySP/Source/Synthesis/oscillator.h ****         freq_      = 100.0f;
 1193              		.loc 3 45 27 view .LVU345
 1194 0058 86EEA77A 		vdiv.f32	s14, s13, s15
  44:../../DaisySP/Source/Synthesis/oscillator.h ****         sr_recip_  = 1.0f / sample_rate;
 1195              		.loc 3 44 20 view .LVU346
 1196 005c C4ED037A 		vstr.32	s15, [r4, #12]
  45:../../DaisySP/Source/Synthesis/oscillator.h ****         freq_      = 100.0f;
 1197              		.loc 3 45 9 is_stmt 1 view .LVU347
  48:../../DaisySP/Source/Synthesis/oscillator.h ****         phase_inc_ = CalcPhaseInc(freq_);
 1198              		.loc 3 48 20 is_stmt 0 view .LVU348
 1199 0060 6361     		str	r3, [r4, #20]	@ float
  46:../../DaisySP/Source/Synthesis/oscillator.h ****         amp_       = 0.5f;
 1200              		.loc 3 46 20 view .LVU349
 1201 0062 84ED020A 		vstr.32	s0, [r4, #8]
  45:../../DaisySP/Source/Synthesis/oscillator.h ****         freq_      = 100.0f;
 1202              		.loc 3 45 20 view .LVU350
 1203 0066 84ED047A 		vstr.32	s14, [r4, #16]
  46:../../DaisySP/Source/Synthesis/oscillator.h ****         amp_       = 0.5f;
 1204              		.loc 3 46 9 is_stmt 1 view .LVU351
  47:../../DaisySP/Source/Synthesis/oscillator.h ****         phase_     = 0.0f;
 1205              		.loc 3 47 9 view .LVU352
  48:../../DaisySP/Source/Synthesis/oscillator.h ****         phase_inc_ = CalcPhaseInc(freq_);
 1206              		.loc 3 48 9 view .LVU353
  49:../../DaisySP/Source/Synthesis/oscillator.h ****         waveform_  = WAVE_SIN;
 1207              		.loc 3 49 9 view .LVU354
ARM GAS  C:\Users\VINCIU~1\AppData\Local\Temp\cco4z3dl.s 			page 42


  49:../../DaisySP/Source/Synthesis/oscillator.h ****         waveform_  = WAVE_SIN;
 1208              		.loc 3 49 34 is_stmt 0 view .LVU355
 1209 006a FFF7FEFF 		bl	_ZN7daisysp10Oscillator12CalcPhaseIncEf
 1210              	.LVL105:
  49:../../DaisySP/Source/Synthesis/oscillator.h ****         waveform_  = WAVE_SIN;
 1211              		.loc 3 49 34 view .LVU356
 1212              	.LBE243:
 1213              	.LBE248:
 1214              	.LBB249:
 1215              	.LBB250:
  60:../../DaisySP/Source/Synthesis/oscillator.h ****         phase_inc_ = CalcPhaseInc(f);
 1216              		.loc 3 60 20 view .LVU357
 1217 006e DFED1F7A 		vldr.32	s15, .L21+4
 1218              	.LBE250:
 1219              	.LBE249:
 1220              	.LBB255:
 1221              	.LBB244:
  52:../../DaisySP/Source/Synthesis/oscillator.h ****     }
 1222              		.loc 3 52 20 view .LVU358
 1223 0072 40F20113 		movw	r3, #257
 1224              	.LBE244:
 1225              	.LBE255:
 1226              	.LBB256:
 1227              	.LBB251:
  61:../../DaisySP/Source/Synthesis/oscillator.h ****     }
 1228              		.loc 3 61 34 view .LVU359
 1229 0076 2046     		mov	r0, r4
  60:../../DaisySP/Source/Synthesis/oscillator.h ****         phase_inc_ = CalcPhaseInc(f);
 1230              		.loc 3 60 20 view .LVU360
 1231 0078 C4ED027A 		vstr.32	s15, [r4, #8]
 1232              	.LBE251:
 1233              	.LBE256:
 1234              	.LBB257:
 1235              	.LBB237:
 1236              		.loc 3 72 19 view .LVU361
 1237 007c 2770     		strb	r7, [r4]
 1238              	.LBE237:
 1239              	.LBE257:
 1240              	.LBB258:
 1241              	.LBB245:
  49:../../DaisySP/Source/Synthesis/oscillator.h ****         waveform_  = WAVE_SIN;
 1242              		.loc 3 49 20 view .LVU362
 1243 007e 84ED060A 		vstr.32	s0, [r4, #24]
  50:../../DaisySP/Source/Synthesis/oscillator.h ****         eoc_       = true;
 1244              		.loc 3 50 9 is_stmt 1 view .LVU363
  51:../../DaisySP/Source/Synthesis/oscillator.h ****         eor_       = true;
 1245              		.loc 3 51 9 view .LVU364
  52:../../DaisySP/Source/Synthesis/oscillator.h ****     }
 1246              		.loc 3 52 9 view .LVU365
 1247              	.LBE245:
 1248              	.LBE258:
 1249              	.LBB259:
 1250              	.LBB252:
  61:../../DaisySP/Source/Synthesis/oscillator.h ****     }
 1251              		.loc 3 61 34 is_stmt 0 view .LVU366
 1252 0082 B0EE670A 		vmov.f32	s0, s15
 1253              	.LBE252:
ARM GAS  C:\Users\VINCIU~1\AppData\Local\Temp\cco4z3dl.s 			page 43


 1254              	.LBE259:
 1255              	.LBB260:
 1256              	.LBB261:
  67:../../DaisySP/Source/Synthesis/oscillator.h ****     /** Sets the waveform to be synthesized by the Process() function.
 1257              		.loc 3 67 46 view .LVU367
 1258 0086 6660     		str	r6, [r4, #4]	@ float
 1259              	.LBE261:
 1260              	.LBE260:
 1261              	.LBB263:
 1262              	.LBB264:
  85:../../libdaisy/src/hid/midi.h ****     {
  86:../../libdaisy/src/hid/midi.h ****         typename Transport::Config transport_config;
  87:../../libdaisy/src/hid/midi.h ****     };
  88:../../libdaisy/src/hid/midi.h **** 
  89:../../libdaisy/src/hid/midi.h ****     /** Initializes the MidiHandler 
  90:../../libdaisy/src/hid/midi.h ****     \param in_mode Input mode
  91:../../libdaisy/src/hid/midi.h ****     \param out_mode Output mode
  92:../../libdaisy/src/hid/midi.h ****      */
  93:../../libdaisy/src/hid/midi.h ****     void Init(Config config)
  94:../../libdaisy/src/hid/midi.h ****     {
  95:../../libdaisy/src/hid/midi.h ****         config_ = config;
 1263              		.loc 6 95 9 view .LVU368
 1264 0088 0026     		movs	r6, #0
 1265              	.LBE264:
 1266              	.LBE263:
 1267              	.LBB277:
 1268              	.LBB246:
  52:../../DaisySP/Source/Synthesis/oscillator.h ****     }
 1269              		.loc 3 52 20 view .LVU369
 1270 008a A384     		strh	r3, [r4, #36]	@ movhi
 1271              	.LVL106:
  52:../../DaisySP/Source/Synthesis/oscillator.h ****     }
 1272              		.loc 3 52 20 view .LVU370
 1273              	.LBE246:
 1274              	.LBE277:
  19:globalFunc.cpp ****     osc->SetWaveform(osc->WAVE_SAW);
 1275              		.loc 1 19 5 is_stmt 1 view .LVU371
 1276              	.LBB278:
 1277              	.LBI235:
  70:../../DaisySP/Source/Synthesis/oscillator.h ****     {
 1278              		.loc 3 70 17 view .LVU372
 1279              	.LBB238:
 1280              		.loc 3 72 9 view .LVU373
 1281              		.loc 3 72 9 is_stmt 0 view .LVU374
 1282              	.LBE238:
 1283              	.LBE278:
  20:globalFunc.cpp ****     osc->SetAmp(0.5);
 1284              		.loc 1 20 5 is_stmt 1 view .LVU375
 1285              	.LBB279:
 1286              	.LBI260:
  67:../../DaisySP/Source/Synthesis/oscillator.h ****     /** Sets the waveform to be synthesized by the Process() function.
 1287              		.loc 3 67 17 view .LVU376
 1288              	.LBB262:
  67:../../DaisySP/Source/Synthesis/oscillator.h ****     /** Sets the waveform to be synthesized by the Process() function.
 1289              		.loc 3 67 41 view .LVU377
  67:../../DaisySP/Source/Synthesis/oscillator.h ****     /** Sets the waveform to be synthesized by the Process() function.
 1290              		.loc 3 67 41 is_stmt 0 view .LVU378
ARM GAS  C:\Users\VINCIU~1\AppData\Local\Temp\cco4z3dl.s 			page 44


 1291              	.LBE262:
 1292              	.LBE279:
  21:globalFunc.cpp ****     osc->SetFreq(440);
 1293              		.loc 1 21 5 is_stmt 1 view .LVU379
 1294              	.LBB280:
 1295              	.LBI249:
  58:../../DaisySP/Source/Synthesis/oscillator.h ****     {
 1296              		.loc 3 58 17 view .LVU380
 1297              	.LBB253:
  60:../../DaisySP/Source/Synthesis/oscillator.h ****         phase_inc_ = CalcPhaseInc(f);
 1298              		.loc 3 60 9 view .LVU381
  61:../../DaisySP/Source/Synthesis/oscillator.h ****     }
 1299              		.loc 3 61 9 view .LVU382
  61:../../DaisySP/Source/Synthesis/oscillator.h ****     }
 1300              		.loc 3 61 34 is_stmt 0 view .LVU383
 1301 008c FFF7FEFF 		bl	_ZN7daisysp10Oscillator12CalcPhaseIncEf
 1302              	.LVL107:
 1303              	.LBE253:
 1304              	.LBE280:
 1305              	.LBB281:
 1306              	.LBB274:
 1307              		.loc 6 95 9 view .LVU384
 1308 0090 174B     		ldr	r3, .L21+8
 1309              	.LBE274:
 1310              	.LBE281:
 1311              	.LBB282:
 1312              	.LBB254:
  61:../../DaisySP/Source/Synthesis/oscillator.h ****     }
 1313              		.loc 3 61 20 view .LVU385
 1314 0092 84ED060A 		vstr.32	s0, [r4, #24]
 1315              	.LVL108:
  61:../../DaisySP/Source/Synthesis/oscillator.h ****     }
 1316              		.loc 3 61 20 view .LVU386
 1317              	.LBE254:
 1318              	.LBE282:
  22:globalFunc.cpp ****     midi->Init(midi_cfg);
 1319              		.loc 1 22 5 is_stmt 1 view .LVU387
 1320              	.LBB283:
 1321              	.LBI263:
  93:../../libdaisy/src/hid/midi.h ****     {
 1322              		.loc 6 93 10 view .LVU388
 1323              	.LBB275:
 1324              		.loc 6 95 9 is_stmt 0 view .LVU389
 1325 0096 05F5E044 		add	r4, r5, #28672
 1326              	.LVL109:
 1327              	.LBB265:
 1328              	.LBB266:
  48:../../libdaisy/src/hid/midi.h ****         uart_config.wordlength = UartHandler::Config::WordLength::BITS_8;
 1329              		.loc 6 48 32 view .LVU390
 1330 009a 0597     		str	r7, [sp, #20]
  56:../../libdaisy/src/hid/midi.h ****     }
 1331              		.loc 6 56 19 view .LVU391
 1332 009c 47F29447 		movw	r7, #29844
 1333              	.LBE266:
 1334              	.LBE265:
 1335              		.loc 6 95 9 view .LVU392
 1336 00a0 C4F89034 		str	r3, [r4, #1168]
ARM GAS  C:\Users\VINCIU~1\AppData\Local\Temp\cco4z3dl.s 			page 45


 1337              	.LVL110:
 1338              	.LBB269:
 1339              	.LBI265:
  40:../../libdaisy/src/hid/midi.h ****     {
 1340              		.loc 6 40 17 is_stmt 1 view .LVU393
 1341              	.LBB267:
  42:../../libdaisy/src/hid/midi.h **** 
 1342              		.loc 6 42 9 view .LVU394
  45:../../libdaisy/src/hid/midi.h ****         uart_config.stopbits   = UartHandler::Config::StopBits::BITS_1;
 1343              		.loc 6 45 9 view .LVU395
  46:../../libdaisy/src/hid/midi.h ****         uart_config.parity     = UartHandler::Config::Parity::NONE;
 1344              		.loc 6 46 9 view .LVU396
  47:../../libdaisy/src/hid/midi.h ****         uart_config.mode       = UartHandler::Config::Mode::TX_RX;
 1345              		.loc 6 47 9 view .LVU397
  48:../../libdaisy/src/hid/midi.h ****         uart_config.wordlength = UartHandler::Config::WordLength::BITS_8;
 1346              		.loc 6 48 9 view .LVU398
  49:../../libdaisy/src/hid/midi.h **** 
 1347              		.loc 6 49 9 view .LVU399
  52:../../libdaisy/src/hid/midi.h ****         uart_config.pin_config.rx = config.rx;
 1348              		.loc 6 52 9 view .LVU400
  53:../../libdaisy/src/hid/midi.h ****         uart_config.pin_config.tx = config.tx;
 1349              		.loc 6 53 9 view .LVU401
  54:../../libdaisy/src/hid/midi.h **** 
 1350              		.loc 6 54 9 view .LVU402
  54:../../libdaisy/src/hid/midi.h **** 
 1351              		.loc 6 54 35 is_stmt 0 view .LVU403
 1352 00a4 03F57F03 		add	r3, r3, #16711680
  56:../../libdaisy/src/hid/midi.h ****     }
 1353              		.loc 6 56 19 view .LVU404
 1354 00a8 2F44     		add	r7, r7, r5
 1355              	.LVL111:
  45:../../libdaisy/src/hid/midi.h ****         uart_config.stopbits   = UartHandler::Config::StopBits::BITS_1;
 1356              		.loc 6 45 32 view .LVU405
 1357 00aa 47F61222 		movw	r2, #31250
  54:../../libdaisy/src/hid/midi.h **** 
 1358              		.loc 6 54 35 view .LVU406
 1359 00ae 03F57F43 		add	r3, r3, #65280
  56:../../libdaisy/src/hid/midi.h ****     }
 1360              		.loc 6 56 19 view .LVU407
 1361 00b2 01A9     		add	r1, sp, #4
 1362 00b4 3846     		mov	r0, r7
 1363              	.LBE267:
 1364              	.LBE269:
 1365              		.loc 6 95 9 view .LVU408
 1366 00b6 C4F88C64 		str	r6, [r4, #1164]
 1367              	.LBB270:
 1368              	.LBB268:
  54:../../libdaisy/src/hid/midi.h **** 
 1369              		.loc 6 54 35 view .LVU409
 1370 00ba 0193     		str	r3, [sp, #4]
  46:../../libdaisy/src/hid/midi.h ****         uart_config.parity     = UartHandler::Config::Parity::NONE;
 1371              		.loc 6 46 32 view .LVU410
 1372 00bc 0123     		movs	r3, #1
  52:../../libdaisy/src/hid/midi.h ****         uart_config.pin_config.rx = config.rx;
 1373              		.loc 6 52 35 view .LVU411
 1374 00be 0296     		str	r6, [sp, #8]
  46:../../libdaisy/src/hid/midi.h ****         uart_config.parity     = UartHandler::Config::Parity::NONE;
ARM GAS  C:\Users\VINCIU~1\AppData\Local\Temp\cco4z3dl.s 			page 46


 1375              		.loc 6 46 32 view .LVU412
 1376 00c0 0393     		str	r3, [sp, #12]
  49:../../libdaisy/src/hid/midi.h **** 
 1377              		.loc 6 49 32 view .LVU413
 1378 00c2 0693     		str	r3, [sp, #24]
  47:../../libdaisy/src/hid/midi.h ****         uart_config.mode       = UartHandler::Config::Mode::TX_RX;
 1379              		.loc 6 47 32 view .LVU414
 1380 00c4 0496     		str	r6, [sp, #16]
  45:../../libdaisy/src/hid/midi.h ****         uart_config.stopbits   = UartHandler::Config::StopBits::BITS_1;
 1381              		.loc 6 45 32 view .LVU415
 1382 00c6 0792     		str	r2, [sp, #28]
  56:../../libdaisy/src/hid/midi.h ****     }
 1383              		.loc 6 56 9 is_stmt 1 view .LVU416
  56:../../libdaisy/src/hid/midi.h ****     }
 1384              		.loc 6 56 19 is_stmt 0 view .LVU417
 1385 00c8 FFF7FEFF 		bl	_ZN5daisy11UartHandler4InitERKNS0_6ConfigE
 1386              	.LVL112:
  56:../../libdaisy/src/hid/midi.h ****     }
 1387              		.loc 6 56 19 view .LVU418
 1388              	.LBE268:
 1389              	.LBE270:
 1390              	.LBB271:
 1391              	.LBI271:
 1392              		.file 8 "../../libdaisy/src/util/ringbuffer.h"
   1:../../libdaisy/src/util/ringbuffer.h **** #pragma once
   2:../../libdaisy/src/util/ringbuffer.h **** #ifndef DSY_RINGBUFFER_H
   3:../../libdaisy/src/util/ringbuffer.h **** #define DSY_RINGBUFFER_H
   4:../../libdaisy/src/util/ringbuffer.h **** 
   5:../../libdaisy/src/util/ringbuffer.h **** #include <algorithm>
   6:../../libdaisy/src/util/ringbuffer.h **** 
   7:../../libdaisy/src/util/ringbuffer.h **** namespace daisy
   8:../../libdaisy/src/util/ringbuffer.h **** {
   9:../../libdaisy/src/util/ringbuffer.h **** /** @addtogroup utility
  10:../../libdaisy/src/util/ringbuffer.h ****     @{
  11:../../libdaisy/src/util/ringbuffer.h **** */
  12:../../libdaisy/src/util/ringbuffer.h **** 
  13:../../libdaisy/src/util/ringbuffer.h **** /**
  14:../../libdaisy/src/util/ringbuffer.h **** Utility Ring Buffer \n 
  15:../../libdaisy/src/util/ringbuffer.h **** imported from pichenettes/stmlib
  16:../../libdaisy/src/util/ringbuffer.h **** */
  17:../../libdaisy/src/util/ringbuffer.h **** template <typename T, size_t size>
  18:../../libdaisy/src/util/ringbuffer.h **** class RingBuffer
  19:../../libdaisy/src/util/ringbuffer.h **** {
  20:../../libdaisy/src/util/ringbuffer.h ****   public:
  21:../../libdaisy/src/util/ringbuffer.h ****     RingBuffer() {}
  22:../../libdaisy/src/util/ringbuffer.h **** 
  23:../../libdaisy/src/util/ringbuffer.h ****     /** Initializes the Ring Buffer */
  24:../../libdaisy/src/util/ringbuffer.h ****     inline void Init() { read_ptr_ = write_ptr_ = 0; }
 1393              		.loc 8 24 17 is_stmt 1 view .LVU419
 1394              	.LBE271:
  96:../../libdaisy/src/hid/midi.h **** 
  97:../../libdaisy/src/hid/midi.h ****         transport_.Init(config_.transport_config);
  98:../../libdaisy/src/hid/midi.h **** 
  99:../../libdaisy/src/hid/midi.h ****         event_q_.Init();
 100:../../libdaisy/src/hid/midi.h ****         incoming_message_.type = MessageLast;
 1395              		.loc 6 100 32 is_stmt 0 view .LVU420
 1396 00cc 0A23     		movs	r3, #10
ARM GAS  C:\Users\VINCIU~1\AppData\Local\Temp\cco4z3dl.s 			page 47


 1397              	.LBE275:
 1398              	.LBE283:
 1399              	.LBB284:
 1400              	.LBB285:
 1401              	.LBB286:
  59:../../libdaisy/src/hid/midi.h ****     inline size_t  Readable() { return uart_.Readable(); }
 1402              		.loc 6 59 45 view .LVU421
 1403 00ce 3846     		mov	r0, r7
 1404              	.LBE286:
 1405              	.LBE285:
 1406              	.LBE284:
 1407              	.LBB291:
 1408              	.LBB276:
 1409              	.LBB273:
 1410              	.LBB272:
 1411              		.loc 8 24 49 view .LVU422
 1412 00d0 C4F88064 		str	r6, [r4, #1152]
 1413              		.loc 8 24 36 view .LVU423
 1414 00d4 C4F87C64 		str	r6, [r4, #1148]
 1415              	.LVL113:
 1416              		.loc 8 24 36 view .LVU424
 1417              	.LBE272:
 1418              	.LBE273:
 1419              		.loc 6 100 32 view .LVU425
 1420 00d8 2B72     		strb	r3, [r5, #8]
 101:../../libdaisy/src/hid/midi.h ****         pstate_                = ParserEmpty;
 1421              		.loc 6 101 32 view .LVU426
 1422 00da 2E71     		strb	r6, [r5, #4]
 1423              	.LVL114:
 1424              		.loc 6 101 32 view .LVU427
 1425              	.LBE276:
 1426              	.LBE291:
  23:globalFunc.cpp ****     midi->StartReceive();
 1427              		.loc 1 23 5 is_stmt 1 view .LVU428
 1428              	.LBB292:
 1429              	.LBI284:
 102:../../libdaisy/src/hid/midi.h ****     }
 103:../../libdaisy/src/hid/midi.h **** 
 104:../../libdaisy/src/hid/midi.h ****     /** Starts listening on the selected input mode(s). MidiEvent Queue will begin to fill, and can
 105:../../libdaisy/src/hid/midi.h ****     void StartReceive() { transport_.StartRx(); }
 1430              		.loc 6 105 10 view .LVU429
 1431              	.LBB289:
 1432              	.LBI285:
  59:../../libdaisy/src/hid/midi.h ****     inline size_t  Readable() { return uart_.Readable(); }
 1433              		.loc 6 59 20 view .LVU430
 1434              	.LBB287:
  59:../../libdaisy/src/hid/midi.h ****     inline size_t  Readable() { return uart_.Readable(); }
 1435              		.loc 6 59 32 view .LVU431
 1436              	.LBE287:
 1437              	.LBE289:
 1438              	.LBE292:
  24:globalFunc.cpp **** }
 1439              		.loc 1 24 1 is_stmt 0 view .LVU432
 1440 00dc 09B0     		add	sp, sp, #36
 1441              		.cfi_def_cfa_offset 20
 1442              		@ sp needed
 1443 00de BDE8F040 		pop	{r4, r5, r6, r7, lr}
ARM GAS  C:\Users\VINCIU~1\AppData\Local\Temp\cco4z3dl.s 			page 48


 1444              		.cfi_restore 14
 1445              		.cfi_restore 7
 1446              		.cfi_restore 6
 1447              		.cfi_restore 5
 1448              		.cfi_restore 4
 1449              		.cfi_def_cfa_offset 0
 1450              	.LVL115:
 1451              	.LBB293:
 1452              	.LBB290:
 1453              	.LBB288:
  59:../../libdaisy/src/hid/midi.h ****     inline size_t  Readable() { return uart_.Readable(); }
 1454              		.loc 6 59 45 view .LVU433
 1455 00e2 FFF7FEBF 		b	_ZN5daisy11UartHandler7StartRxEv
 1456              	.LVL116:
 1457              	.L22:
 1458 00e6 00BF     		.align	2
 1459              	.L21:
 1460 00e8 0000C842 		.word	1120403456
 1461 00ec 0000DC43 		.word	1138491392
 1462 00f0 01070106 		.word	100730625
 1463              	.LBE288:
 1464              	.LBE290:
 1465              	.LBE293:
 1466              		.cfi_endproc
 1467              	.LFE4034:
 1469              		.text
 1470              	.Letext0:
 1471              		.file 9 "c:\\users\\vin\355cius\\documents\\daisytoolchain-0.3.1\\windows\\arm-none-eabi\\include\
 1472              		.file 10 "c:\\users\\vin\355cius\\documents\\daisytoolchain-0.3.1\\windows\\arm-none-eabi\\include
 1473              		.file 11 "c:\\users\\vin\355cius\\documents\\daisytoolchain-0.3.1\\windows\\arm-none-eabi\\include
 1474              		.file 12 "c:\\users\\vin\355cius\\documents\\daisytoolchain-0.3.1\\windows\\lib\\gcc\\arm-none-eab
 1475              		.file 13 "c:\\users\\vin\355cius\\documents\\daisytoolchain-0.3.1\\windows\\arm-none-eabi\\include
 1476              		.file 14 "c:\\users\\vin\355cius\\documents\\daisytoolchain-0.3.1\\windows\\arm-none-eabi\\include
 1477              		.file 15 "c:\\users\\vin\355cius\\documents\\daisytoolchain-0.3.1\\windows\\arm-none-eabi\\include
 1478              		.file 16 "c:\\users\\vin\355cius\\documents\\daisytoolchain-0.3.1\\windows\\arm-none-eabi\\include
 1479              		.file 17 "c:\\users\\vin\355cius\\documents\\daisytoolchain-0.3.1\\windows\\arm-none-eabi\\include
 1480              		.file 18 "c:\\users\\vin\355cius\\documents\\daisytoolchain-0.3.1\\windows\\arm-none-eabi\\include
 1481              		.file 19 "c:\\users\\vin\355cius\\documents\\daisytoolchain-0.3.1\\windows\\arm-none-eabi\\include
 1482              		.file 20 "c:\\users\\vin\355cius\\documents\\daisytoolchain-0.3.1\\windows\\arm-none-eabi\\include
 1483              		.file 21 "c:\\users\\vin\355cius\\documents\\daisytoolchain-0.3.1\\windows\\arm-none-eabi\\include
 1484              		.file 22 "c:\\users\\vin\355cius\\documents\\daisytoolchain-0.3.1\\windows\\arm-none-eabi\\include
 1485              		.file 23 "c:\\users\\vin\355cius\\documents\\daisytoolchain-0.3.1\\windows\\arm-none-eabi\\include
 1486              		.file 24 "c:\\users\\vin\355cius\\documents\\daisytoolchain-0.3.1\\windows\\arm-none-eabi\\include
 1487              		.file 25 "c:\\users\\vin\355cius\\documents\\daisytoolchain-0.3.1\\windows\\arm-none-eabi\\include
 1488              		.file 26 "c:\\users\\vin\355cius\\documents\\daisytoolchain-0.3.1\\windows\\arm-none-eabi\\include
 1489              		.file 27 "c:\\users\\vin\355cius\\documents\\daisytoolchain-0.3.1\\windows\\arm-none-eabi\\include
 1490              		.file 28 "c:\\users\\vin\355cius\\documents\\daisytoolchain-0.3.1\\windows\\arm-none-eabi\\include
 1491              		.file 29 "c:\\users\\vin\355cius\\documents\\daisytoolchain-0.3.1\\windows\\arm-none-eabi\\include
 1492              		.file 30 "c:\\users\\vin\355cius\\documents\\daisytoolchain-0.3.1\\windows\\arm-none-eabi\\include
 1493              		.file 31 "c:\\users\\vin\355cius\\documents\\daisytoolchain-0.3.1\\windows\\arm-none-eabi\\include
 1494              		.file 32 "c:\\users\\vin\355cius\\documents\\daisytoolchain-0.3.1\\windows\\arm-none-eabi\\include
 1495              		.file 33 "c:\\users\\vin\355cius\\documents\\daisytoolchain-0.3.1\\windows\\arm-none-eabi\\include
 1496              		.file 34 "c:\\users\\vin\355cius\\documents\\daisytoolchain-0.3.1\\windows\\arm-none-eabi\\include
 1497              		.file 35 "c:\\users\\vin\355cius\\documents\\daisytoolchain-0.3.1\\windows\\arm-none-eabi\\include
 1498              		.file 36 "c:\\users\\vin\355cius\\documents\\daisytoolchain-0.3.1\\windows\\arm-none-eabi\\include
 1499              		.file 37 "c:\\users\\vin\355cius\\documents\\daisytoolchain-0.3.1\\windows\\arm-none-eabi\\include
 1500              		.file 38 "../../libdaisy/src/daisy_core.h"
ARM GAS  C:\Users\VINCIU~1\AppData\Local\Temp\cco4z3dl.s 			page 49


 1501              		.file 39 "../../libdaisy/src/per/tim.h"
 1502              		.file 40 "../../libdaisy/src/sys/system.h"
 1503              		.file 41 "../../libdaisy/src/per/dac.h"
 1504              		.file 42 "../../libdaisy/src/per/sai.h"
 1505              		.file 43 "../../libdaisy/src/hid/audio.h"
 1506              		.file 44 "../../libdaisy/src/per/adc.h"
 1507              		.file 45 "../../libdaisy/src/per/uart.h"
 1508              		.file 46 "../../libdaisy/src/hid/usb.h"
 1509              		.file 47 "../../libdaisy/src/per/spi.h"
 1510              		.file 48 "../../libdaisy/src/util/wav_format.h"
 1511              		.file 49 "../../libdaisy/src/daisy_seed.h"
 1512              		.file 50 "../../libdaisy/src/per/qspi.h"
 1513              		.file 51 "../../libdaisy/src/per/gpio.h"
 1514              		.file 52 "../../libdaisy/src/dev/sdram.h"
 1515              		.file 53 "c:\\users\\vin\355cius\\documents\\daisytoolchain-0.3.1\\windows\\lib\\gcc\\arm-none-eab
 1516              		.file 54 "c:\\users\\vin\355cius\\documents\\daisytoolchain-0.3.1\\windows\\arm-none-eabi\\include
 1517              		.file 55 "../../DaisySP/Source/Control/adenv.h"
 1518              		.file 56 "c:\\users\\vin\355cius\\documents\\daisytoolchain-0.3.1\\windows\\arm-none-eabi\\include
 1519              		.file 57 "c:\\users\\vin\355cius\\documents\\daisytoolchain-0.3.1\\windows\\arm-none-eabi\\include
 1520              		.file 58 "c:\\users\\vin\355cius\\documents\\daisytoolchain-0.3.1\\windows\\arm-none-eabi\\include
 1521              		.file 59 "globalFunc.h"
 1522              		.file 60 "../../libdaisy/src/dev/sr_595.h"
 1523              		.file 61 "<built-in>"
ARM GAS  C:\Users\VINCIU~1\AppData\Local\Temp\cco4z3dl.s 			page 50


DEFINED SYMBOLS
                            *ABS*:00000000 globalFunc.cpp
C:\Users\VINCIU~1\AppData\Local\Temp\cco4z3dl.s:17     .text._Z17HandleMidiMessage9MidiEventPN7daisysp10OscillatorE:00000000 $t
C:\Users\VINCIU~1\AppData\Local\Temp\cco4z3dl.s:26     .text._Z17HandleMidiMessage9MidiEventPN7daisysp10OscillatorE:00000000 _Z17HandleMidiMessage9MidiEventPN7daisysp10OscillatorE
C:\Users\VINCIU~1\AppData\Local\Temp\cco4z3dl.s:239    .text._Z17HandleMidiMessage9MidiEventPN7daisysp10OscillatorE:00000080 $d
C:\Users\VINCIU~1\AppData\Local\Temp\cco4z3dl.s:246    .text._ZN5daisy13SSD130xDriverILj128ELj64ENS_24SSD130x4WireSpiTransportEE4InitENS2_6ConfigE:00000000 $t
C:\Users\VINCIU~1\AppData\Local\Temp\cco4z3dl.s:254    .text._ZN5daisy13SSD130xDriverILj128ELj64ENS_24SSD130x4WireSpiTransportEE4InitENS2_6ConfigE:00000000 _ZN5daisy13SSD130xDriverILj128ELj64ENS_24SSD130x4WireSpiTransportEE4InitENS2_6ConfigE
C:\Users\VINCIU~1\AppData\Local\Temp\cco4z3dl.s:1050   .text._ZN5daisy13SSD130xDriverILj128ELj64ENS_24SSD130x4WireSpiTransportEE4InitENS2_6ConfigE:000002cc $d
C:\Users\VINCIU~1\AppData\Local\Temp\cco4z3dl.s:1056   .text._Z9SynthInitPN5daisy9DaisySeedEPNS_11OledDisplayINS_13SSD130xDriverILj128ELj64ENS_24SSD130x4WireSpiTransportEEEEEPN7daisysp10OscillatorEPNS_11MidiHandlerINS_17MidiUartTransportEEE:00000000 $t
C:\Users\VINCIU~1\AppData\Local\Temp\cco4z3dl.s:1064   .text._Z9SynthInitPN5daisy9DaisySeedEPNS_11OledDisplayINS_13SSD130xDriverILj128ELj64ENS_24SSD130x4WireSpiTransportEEEEEPN7daisysp10OscillatorEPNS_11MidiHandlerINS_17MidiUartTransportEEE:00000000 _Z9SynthInitPN5daisy9DaisySeedEPNS_11OledDisplayINS_13SSD130xDriverILj128ELj64ENS_24SSD130x4WireSpiTransportEEEEEPN7daisysp10OscillatorEPNS_11MidiHandlerINS_17MidiUartTransportEEE
C:\Users\VINCIU~1\AppData\Local\Temp\cco4z3dl.s:1460   .text._Z9SynthInitPN5daisy9DaisySeedEPNS_11OledDisplayINS_13SSD130xDriverILj128ELj64ENS_24SSD130x4WireSpiTransportEEEEEPN7daisysp10OscillatorEPNS_11MidiHandlerINS_17MidiUartTransportEEE:000000e8 $d

UNDEFINED SYMBOLS
powf
_ZN7daisysp10Oscillator12CalcPhaseIncEf
dsy_gpio_init
_ZN5daisy9SpiHandle4InitERKNS0_6ConfigE
dsy_gpio_write
_ZN5daisy6System5DelayEm
_ZN5daisy9SpiHandle16BlockingTransmitEPhjm
_ZN5daisy9DaisySeed9ConfigureEv
_ZN5daisy9DaisySeed4InitEb
_ZN5daisy9DaisySeed6GetPinEh
_ZN5daisy9DaisySeed15AudioSampleRateEv
_ZN5daisy11UartHandler4InitERKNS0_6ConfigE
_ZN5daisy11UartHandler7StartRxEv
