ARM GAS  C:\Users\VINCIU~1\AppData\Local\Temp\cc9kCTNX.s 			page 1


   1              		.cpu cortex-m7
   2              		.eabi_attribute 28, 1
   3              		.eabi_attribute 20, 1
   4              		.eabi_attribute 21, 1
   5              		.eabi_attribute 23, 3
   6              		.eabi_attribute 24, 1
   7              		.eabi_attribute 25, 1
   8              		.eabi_attribute 26, 1
   9              		.eabi_attribute 30, 2
  10              		.eabi_attribute 34, 1
  11              		.eabi_attribute 18, 4
  12              		.file	"menus.cpp"
  13              		.text
  14              	.Ltext0:
  15              		.cfi_sections	.debug_frame
  16              		.section	.text._ZN5daisy11OledDisplayINS_13SSD130xDriverILj128ELj64ENS_24SSD130x4WireSpiTransportE
  17              		.align	1
  18              		.p2align 2,,3
  19              		.weak	_ZN5daisy11OledDisplayINS_13SSD130xDriverILj128ELj64ENS_24SSD130x4WireSpiTransportEEEE4FillE
  20              		.arch armv7e-m
  21              		.syntax unified
  22              		.thumb
  23              		.thumb_func
  24              		.fpu fpv5-d16
  26              	_ZN5daisy11OledDisplayINS_13SSD130xDriverILj128ELj64ENS_24SSD130x4WireSpiTransportEEEE4FillEb:
  27              	.LVL0:
  28              	.LFB1813:
  29              		.file 1 "../../libdaisy/src/hid/disp/oled_display.h"
   1:../../libdaisy/src/hid/disp/oled_display.h **** #pragma once
   2:../../libdaisy/src/hid/disp/oled_display.h **** #ifndef DSY_OLED_DISPLAY_H
   3:../../libdaisy/src/hid/disp/oled_display.h **** #define DSY_OLED_DISPLAY_H /**< Macro */
   4:../../libdaisy/src/hid/disp/oled_display.h **** 
   5:../../libdaisy/src/hid/disp/oled_display.h **** #include "display.h"
   6:../../libdaisy/src/hid/disp/oled_display.h **** 
   7:../../libdaisy/src/hid/disp/oled_display.h **** namespace daisy
   8:../../libdaisy/src/hid/disp/oled_display.h **** {
   9:../../libdaisy/src/hid/disp/oled_display.h **** /** 
  10:../../libdaisy/src/hid/disp/oled_display.h ****  * This class is for drawing to a monochrome OLED display. 
  11:../../libdaisy/src/hid/disp/oled_display.h **** */
  12:../../libdaisy/src/hid/disp/oled_display.h **** template <typename DisplayDriver>
  13:../../libdaisy/src/hid/disp/oled_display.h **** class OledDisplay : public OneBitGraphicsDisplayImpl<OledDisplay<DisplayDriver>>
  14:../../libdaisy/src/hid/disp/oled_display.h **** {
  15:../../libdaisy/src/hid/disp/oled_display.h ****   public:
  16:../../libdaisy/src/hid/disp/oled_display.h ****     OledDisplay() {}
  17:../../libdaisy/src/hid/disp/oled_display.h ****     virtual ~OledDisplay() {}
  18:../../libdaisy/src/hid/disp/oled_display.h **** 
  19:../../libdaisy/src/hid/disp/oled_display.h ****     struct Config
  20:../../libdaisy/src/hid/disp/oled_display.h ****     {
  21:../../libdaisy/src/hid/disp/oled_display.h ****         typename DisplayDriver::Config driver_config;
  22:../../libdaisy/src/hid/disp/oled_display.h ****     };
  23:../../libdaisy/src/hid/disp/oled_display.h **** 
  24:../../libdaisy/src/hid/disp/oled_display.h ****     void Init(Config config) { driver_.Init(config.driver_config); }
  25:../../libdaisy/src/hid/disp/oled_display.h **** 
  26:../../libdaisy/src/hid/disp/oled_display.h ****     uint16_t Height() const override { return driver_.Height(); }
  27:../../libdaisy/src/hid/disp/oled_display.h ****     uint16_t Width() const override { return driver_.Width(); }
  28:../../libdaisy/src/hid/disp/oled_display.h **** 
  29:../../libdaisy/src/hid/disp/oled_display.h ****     /** 
ARM GAS  C:\Users\VINCIU~1\AppData\Local\Temp\cc9kCTNX.s 			page 2


  30:../../libdaisy/src/hid/disp/oled_display.h ****     Fills the entire display with either on/off.
  31:../../libdaisy/src/hid/disp/oled_display.h ****     \param on Sets on or off.
  32:../../libdaisy/src/hid/disp/oled_display.h ****     */
  33:../../libdaisy/src/hid/disp/oled_display.h ****     void Fill(bool on) override { driver_.Fill(on); }
  30              		.loc 1 33 10 view -0
  31              		.cfi_startproc
  32              		@ args = 0, pretend = 0, frame = 0
  33              		@ frame_needed = 0, uses_anonymous_args = 0
  34              		@ link register save eliminated.
  35              	.LBB20:
  36              	.LBI20:
  37              		.file 2 "../../libdaisy/src/dev/oled_ssd130x.h"
   1:../../libdaisy/src/dev/oled_ssd130x.h **** #pragma once
   2:../../libdaisy/src/dev/oled_ssd130x.h **** #ifndef SA_OLED_SSD130X_H
   3:../../libdaisy/src/dev/oled_ssd130x.h **** #define SA_OLED_SSD130X_H /**< & */
   4:../../libdaisy/src/dev/oled_ssd130x.h **** 
   5:../../libdaisy/src/dev/oled_ssd130x.h **** #include "per/i2c.h"
   6:../../libdaisy/src/dev/oled_ssd130x.h **** #include "per/spi.h"
   7:../../libdaisy/src/dev/oled_ssd130x.h **** #include "per/gpio.h"
   8:../../libdaisy/src/dev/oled_ssd130x.h **** #include "sys/system.h"
   9:../../libdaisy/src/dev/oled_ssd130x.h **** 
  10:../../libdaisy/src/dev/oled_ssd130x.h **** namespace daisy
  11:../../libdaisy/src/dev/oled_ssd130x.h **** {
  12:../../libdaisy/src/dev/oled_ssd130x.h **** /**
  13:../../libdaisy/src/dev/oled_ssd130x.h ****  * I2C Transport for SSD1306 / SSD1309 OLED display devices
  14:../../libdaisy/src/dev/oled_ssd130x.h ****  */
  15:../../libdaisy/src/dev/oled_ssd130x.h **** class SSD130xI2CTransport
  16:../../libdaisy/src/dev/oled_ssd130x.h **** {
  17:../../libdaisy/src/dev/oled_ssd130x.h ****   public:
  18:../../libdaisy/src/dev/oled_ssd130x.h ****     struct Config
  19:../../libdaisy/src/dev/oled_ssd130x.h ****     {
  20:../../libdaisy/src/dev/oled_ssd130x.h ****         I2CHandle::Config i2c_config;
  21:../../libdaisy/src/dev/oled_ssd130x.h ****         uint8_t           i2c_address;
  22:../../libdaisy/src/dev/oled_ssd130x.h ****         void              Defaults()
  23:../../libdaisy/src/dev/oled_ssd130x.h ****         {
  24:../../libdaisy/src/dev/oled_ssd130x.h ****             i2c_config.periph         = I2CHandle::Config::Peripheral::I2C_1;
  25:../../libdaisy/src/dev/oled_ssd130x.h ****             i2c_config.speed          = I2CHandle::Config::Speed::I2C_1MHZ;
  26:../../libdaisy/src/dev/oled_ssd130x.h ****             i2c_config.mode           = I2CHandle::Config::Mode::I2C_MASTER;
  27:../../libdaisy/src/dev/oled_ssd130x.h ****             i2c_config.pin_config.scl = {DSY_GPIOB, 8};
  28:../../libdaisy/src/dev/oled_ssd130x.h ****             i2c_config.pin_config.sda = {DSY_GPIOB, 9};
  29:../../libdaisy/src/dev/oled_ssd130x.h ****             i2c_address               = 0x3C;
  30:../../libdaisy/src/dev/oled_ssd130x.h ****         }
  31:../../libdaisy/src/dev/oled_ssd130x.h ****     };
  32:../../libdaisy/src/dev/oled_ssd130x.h ****     void Init(const Config& config)
  33:../../libdaisy/src/dev/oled_ssd130x.h ****     {
  34:../../libdaisy/src/dev/oled_ssd130x.h ****         i2c_address_ = config.i2c_address;
  35:../../libdaisy/src/dev/oled_ssd130x.h ****         i2c_.Init(config.i2c_config);
  36:../../libdaisy/src/dev/oled_ssd130x.h ****     };
  37:../../libdaisy/src/dev/oled_ssd130x.h ****     void SendCommand(uint8_t cmd)
  38:../../libdaisy/src/dev/oled_ssd130x.h ****     {
  39:../../libdaisy/src/dev/oled_ssd130x.h ****         uint8_t buf[2] = {0X00, cmd};
  40:../../libdaisy/src/dev/oled_ssd130x.h ****         i2c_.TransmitBlocking(i2c_address_, buf, 2, 1000);
  41:../../libdaisy/src/dev/oled_ssd130x.h ****     };
  42:../../libdaisy/src/dev/oled_ssd130x.h **** 
  43:../../libdaisy/src/dev/oled_ssd130x.h ****     void SendData(uint8_t* buff, size_t size)
  44:../../libdaisy/src/dev/oled_ssd130x.h ****     {
  45:../../libdaisy/src/dev/oled_ssd130x.h ****         for(size_t i = 0; i < size; i++)
ARM GAS  C:\Users\VINCIU~1\AppData\Local\Temp\cc9kCTNX.s 			page 3


  46:../../libdaisy/src/dev/oled_ssd130x.h ****         {
  47:../../libdaisy/src/dev/oled_ssd130x.h ****             uint8_t buf[2] = {0X40, buff[i]};
  48:../../libdaisy/src/dev/oled_ssd130x.h ****             i2c_.TransmitBlocking(i2c_address_, buf, 2, 1000);
  49:../../libdaisy/src/dev/oled_ssd130x.h ****         }
  50:../../libdaisy/src/dev/oled_ssd130x.h ****     };
  51:../../libdaisy/src/dev/oled_ssd130x.h **** 
  52:../../libdaisy/src/dev/oled_ssd130x.h ****   private:
  53:../../libdaisy/src/dev/oled_ssd130x.h ****     daisy::I2CHandle i2c_;
  54:../../libdaisy/src/dev/oled_ssd130x.h ****     uint8_t          i2c_address_;
  55:../../libdaisy/src/dev/oled_ssd130x.h **** };
  56:../../libdaisy/src/dev/oled_ssd130x.h **** 
  57:../../libdaisy/src/dev/oled_ssd130x.h **** /**
  58:../../libdaisy/src/dev/oled_ssd130x.h ****  * 4 Wire SPI Transport for SSD1306 / SSD1309 OLED display devices
  59:../../libdaisy/src/dev/oled_ssd130x.h ****  */
  60:../../libdaisy/src/dev/oled_ssd130x.h **** class SSD130x4WireSpiTransport
  61:../../libdaisy/src/dev/oled_ssd130x.h **** {
  62:../../libdaisy/src/dev/oled_ssd130x.h ****   public:
  63:../../libdaisy/src/dev/oled_ssd130x.h ****     struct Config
  64:../../libdaisy/src/dev/oled_ssd130x.h ****     {
  65:../../libdaisy/src/dev/oled_ssd130x.h ****         struct
  66:../../libdaisy/src/dev/oled_ssd130x.h ****         {
  67:../../libdaisy/src/dev/oled_ssd130x.h ****             dsy_gpio_pin dc;    /**< & */
  68:../../libdaisy/src/dev/oled_ssd130x.h ****             dsy_gpio_pin reset; /**< & */
  69:../../libdaisy/src/dev/oled_ssd130x.h ****         } pin_config;
  70:../../libdaisy/src/dev/oled_ssd130x.h ****         void Defaults()
  71:../../libdaisy/src/dev/oled_ssd130x.h ****         {
  72:../../libdaisy/src/dev/oled_ssd130x.h ****             pin_config.dc    = {DSY_GPIOB, 4};
  73:../../libdaisy/src/dev/oled_ssd130x.h ****             pin_config.reset = {DSY_GPIOB, 15};
  74:../../libdaisy/src/dev/oled_ssd130x.h ****         }
  75:../../libdaisy/src/dev/oled_ssd130x.h ****     };
  76:../../libdaisy/src/dev/oled_ssd130x.h ****     void Init(const Config& config)
  77:../../libdaisy/src/dev/oled_ssd130x.h ****     {
  78:../../libdaisy/src/dev/oled_ssd130x.h ****         // Initialize both GPIO
  79:../../libdaisy/src/dev/oled_ssd130x.h ****         pin_dc_.mode = DSY_GPIO_MODE_OUTPUT_PP;
  80:../../libdaisy/src/dev/oled_ssd130x.h ****         pin_dc_.pin  = config.pin_config.dc;
  81:../../libdaisy/src/dev/oled_ssd130x.h ****         dsy_gpio_init(&pin_dc_);
  82:../../libdaisy/src/dev/oled_ssd130x.h ****         pin_reset_.mode = DSY_GPIO_MODE_OUTPUT_PP;
  83:../../libdaisy/src/dev/oled_ssd130x.h ****         pin_reset_.pin  = config.pin_config.reset;
  84:../../libdaisy/src/dev/oled_ssd130x.h ****         dsy_gpio_init(&pin_reset_);
  85:../../libdaisy/src/dev/oled_ssd130x.h ****         // Initialize SPI
  86:../../libdaisy/src/dev/oled_ssd130x.h ****         SpiHandle::Config spi_config;
  87:../../libdaisy/src/dev/oled_ssd130x.h ****         spi_config.periph    = SpiHandle::Config::Peripheral::SPI_1;
  88:../../libdaisy/src/dev/oled_ssd130x.h ****         spi_config.mode      = SpiHandle::Config::Mode::MASTER;
  89:../../libdaisy/src/dev/oled_ssd130x.h ****         spi_config.direction = SpiHandle::Config::Direction::TWO_LINES_TX_ONLY;
  90:../../libdaisy/src/dev/oled_ssd130x.h ****         spi_config.datasize  = 8;
  91:../../libdaisy/src/dev/oled_ssd130x.h ****         spi_config.clock_polarity = SpiHandle::Config::ClockPolarity::LOW;
  92:../../libdaisy/src/dev/oled_ssd130x.h ****         spi_config.clock_phase    = SpiHandle::Config::ClockPhase::ONE_EDGE;
  93:../../libdaisy/src/dev/oled_ssd130x.h ****         spi_config.nss            = SpiHandle::Config::NSS::HARD_OUTPUT;
  94:../../libdaisy/src/dev/oled_ssd130x.h ****         spi_config.baud_prescaler = SpiHandle::Config::BaudPrescaler::PS_8;
  95:../../libdaisy/src/dev/oled_ssd130x.h **** 
  96:../../libdaisy/src/dev/oled_ssd130x.h ****         spi_config.pin_config.sclk = {DSY_GPIOG, 11};
  97:../../libdaisy/src/dev/oled_ssd130x.h ****         spi_config.pin_config.miso = {DSY_GPIOX, 0};
  98:../../libdaisy/src/dev/oled_ssd130x.h ****         spi_config.pin_config.mosi = {DSY_GPIOB, 5};
  99:../../libdaisy/src/dev/oled_ssd130x.h ****         spi_config.pin_config.nss  = {DSY_GPIOG, 10};
 100:../../libdaisy/src/dev/oled_ssd130x.h **** 
 101:../../libdaisy/src/dev/oled_ssd130x.h ****         spi_.Init(spi_config);
 102:../../libdaisy/src/dev/oled_ssd130x.h **** 
ARM GAS  C:\Users\VINCIU~1\AppData\Local\Temp\cc9kCTNX.s 			page 4


 103:../../libdaisy/src/dev/oled_ssd130x.h ****         // Reset and Configure OLED.
 104:../../libdaisy/src/dev/oled_ssd130x.h ****         dsy_gpio_write(&pin_reset_, 0);
 105:../../libdaisy/src/dev/oled_ssd130x.h ****         System::Delay(10);
 106:../../libdaisy/src/dev/oled_ssd130x.h ****         dsy_gpio_write(&pin_reset_, 1);
 107:../../libdaisy/src/dev/oled_ssd130x.h ****         System::Delay(10);
 108:../../libdaisy/src/dev/oled_ssd130x.h ****     };
 109:../../libdaisy/src/dev/oled_ssd130x.h ****     void SendCommand(uint8_t cmd)
 110:../../libdaisy/src/dev/oled_ssd130x.h ****     {
 111:../../libdaisy/src/dev/oled_ssd130x.h ****         dsy_gpio_write(&pin_dc_, 0);
 112:../../libdaisy/src/dev/oled_ssd130x.h ****         spi_.BlockingTransmit(&cmd, 1);
 113:../../libdaisy/src/dev/oled_ssd130x.h ****     };
 114:../../libdaisy/src/dev/oled_ssd130x.h **** 
 115:../../libdaisy/src/dev/oled_ssd130x.h ****     void SendData(uint8_t* buff, size_t size)
 116:../../libdaisy/src/dev/oled_ssd130x.h ****     {
 117:../../libdaisy/src/dev/oled_ssd130x.h ****         dsy_gpio_write(&pin_dc_, 1);
 118:../../libdaisy/src/dev/oled_ssd130x.h ****         spi_.BlockingTransmit(buff, size);
 119:../../libdaisy/src/dev/oled_ssd130x.h ****     };
 120:../../libdaisy/src/dev/oled_ssd130x.h **** 
 121:../../libdaisy/src/dev/oled_ssd130x.h ****   private:
 122:../../libdaisy/src/dev/oled_ssd130x.h ****     SpiHandle spi_;
 123:../../libdaisy/src/dev/oled_ssd130x.h ****     dsy_gpio  pin_reset_;
 124:../../libdaisy/src/dev/oled_ssd130x.h ****     dsy_gpio  pin_dc_;
 125:../../libdaisy/src/dev/oled_ssd130x.h **** };
 126:../../libdaisy/src/dev/oled_ssd130x.h **** 
 127:../../libdaisy/src/dev/oled_ssd130x.h **** 
 128:../../libdaisy/src/dev/oled_ssd130x.h **** /**
 129:../../libdaisy/src/dev/oled_ssd130x.h ****  * A driver implementation for the SSD1306/SSD1309
 130:../../libdaisy/src/dev/oled_ssd130x.h ****  */
 131:../../libdaisy/src/dev/oled_ssd130x.h **** template <size_t width, size_t height, typename Transport>
 132:../../libdaisy/src/dev/oled_ssd130x.h **** class SSD130xDriver
 133:../../libdaisy/src/dev/oled_ssd130x.h **** {
 134:../../libdaisy/src/dev/oled_ssd130x.h ****   public:
 135:../../libdaisy/src/dev/oled_ssd130x.h ****     struct Config
 136:../../libdaisy/src/dev/oled_ssd130x.h ****     {
 137:../../libdaisy/src/dev/oled_ssd130x.h ****         typename Transport::Config transport_config;
 138:../../libdaisy/src/dev/oled_ssd130x.h ****     };
 139:../../libdaisy/src/dev/oled_ssd130x.h **** 
 140:../../libdaisy/src/dev/oled_ssd130x.h ****     void Init(Config config)
 141:../../libdaisy/src/dev/oled_ssd130x.h ****     {
 142:../../libdaisy/src/dev/oled_ssd130x.h ****         transport_.Init(config.transport_config);
 143:../../libdaisy/src/dev/oled_ssd130x.h **** 
 144:../../libdaisy/src/dev/oled_ssd130x.h ****         // Init routine...
 145:../../libdaisy/src/dev/oled_ssd130x.h **** 
 146:../../libdaisy/src/dev/oled_ssd130x.h ****         // Display Off
 147:../../libdaisy/src/dev/oled_ssd130x.h ****         transport_.SendCommand(0xaE);
 148:../../libdaisy/src/dev/oled_ssd130x.h ****         // Dimension dependent commands...
 149:../../libdaisy/src/dev/oled_ssd130x.h ****         switch(height)
 150:../../libdaisy/src/dev/oled_ssd130x.h ****         {
 151:../../libdaisy/src/dev/oled_ssd130x.h ****             case 16:
 152:../../libdaisy/src/dev/oled_ssd130x.h ****                 // Display Clock Divide Ratio
 153:../../libdaisy/src/dev/oled_ssd130x.h ****                 transport_.SendCommand(0xD5);
 154:../../libdaisy/src/dev/oled_ssd130x.h ****                 transport_.SendCommand(0x60);
 155:../../libdaisy/src/dev/oled_ssd130x.h ****                 // Multiplex Ratio
 156:../../libdaisy/src/dev/oled_ssd130x.h ****                 transport_.SendCommand(0xA8);
 157:../../libdaisy/src/dev/oled_ssd130x.h ****                 transport_.SendCommand(0x0F);
 158:../../libdaisy/src/dev/oled_ssd130x.h ****                 // COM Pins
 159:../../libdaisy/src/dev/oled_ssd130x.h ****                 transport_.SendCommand(0xDA);
ARM GAS  C:\Users\VINCIU~1\AppData\Local\Temp\cc9kCTNX.s 			page 5


 160:../../libdaisy/src/dev/oled_ssd130x.h ****                 transport_.SendCommand(0x02);
 161:../../libdaisy/src/dev/oled_ssd130x.h ****                 break;
 162:../../libdaisy/src/dev/oled_ssd130x.h ****             case 32:
 163:../../libdaisy/src/dev/oled_ssd130x.h ****                 // Display Clock Divide Ratio
 164:../../libdaisy/src/dev/oled_ssd130x.h ****                 transport_.SendCommand(0xD5);
 165:../../libdaisy/src/dev/oled_ssd130x.h ****                 transport_.SendCommand(0x80);
 166:../../libdaisy/src/dev/oled_ssd130x.h ****                 // Multiplex Ratio
 167:../../libdaisy/src/dev/oled_ssd130x.h ****                 transport_.SendCommand(0xA8);
 168:../../libdaisy/src/dev/oled_ssd130x.h ****                 transport_.SendCommand(0x1F);
 169:../../libdaisy/src/dev/oled_ssd130x.h ****                 // COM Pins
 170:../../libdaisy/src/dev/oled_ssd130x.h ****                 transport_.SendCommand(0xDA);
 171:../../libdaisy/src/dev/oled_ssd130x.h ****                 if(width == 64)
 172:../../libdaisy/src/dev/oled_ssd130x.h ****                 {
 173:../../libdaisy/src/dev/oled_ssd130x.h ****                     transport_.SendCommand(0x12);
 174:../../libdaisy/src/dev/oled_ssd130x.h ****                 }
 175:../../libdaisy/src/dev/oled_ssd130x.h ****                 else
 176:../../libdaisy/src/dev/oled_ssd130x.h ****                 {
 177:../../libdaisy/src/dev/oled_ssd130x.h ****                     transport_.SendCommand(0x02);
 178:../../libdaisy/src/dev/oled_ssd130x.h ****                 }
 179:../../libdaisy/src/dev/oled_ssd130x.h **** 
 180:../../libdaisy/src/dev/oled_ssd130x.h ****                 break;
 181:../../libdaisy/src/dev/oled_ssd130x.h ****             case 48:
 182:../../libdaisy/src/dev/oled_ssd130x.h ****                 // Display Clock Divide Ratio
 183:../../libdaisy/src/dev/oled_ssd130x.h ****                 transport_.SendCommand(0xD5);
 184:../../libdaisy/src/dev/oled_ssd130x.h ****                 transport_.SendCommand(0x80);
 185:../../libdaisy/src/dev/oled_ssd130x.h ****                 // Multiplex Ratio
 186:../../libdaisy/src/dev/oled_ssd130x.h ****                 transport_.SendCommand(0xA8);
 187:../../libdaisy/src/dev/oled_ssd130x.h ****                 transport_.SendCommand(0x2F);
 188:../../libdaisy/src/dev/oled_ssd130x.h ****                 // COM Pins
 189:../../libdaisy/src/dev/oled_ssd130x.h ****                 transport_.SendCommand(0xDA);
 190:../../libdaisy/src/dev/oled_ssd130x.h ****                 transport_.SendCommand(0x12);
 191:../../libdaisy/src/dev/oled_ssd130x.h ****                 break;
 192:../../libdaisy/src/dev/oled_ssd130x.h ****             default: // 128
 193:../../libdaisy/src/dev/oled_ssd130x.h ****                 // Display Clock Divide Ratio
 194:../../libdaisy/src/dev/oled_ssd130x.h ****                 transport_.SendCommand(0xD5);
 195:../../libdaisy/src/dev/oled_ssd130x.h ****                 transport_.SendCommand(0x80);
 196:../../libdaisy/src/dev/oled_ssd130x.h ****                 // Multiplex Ratio
 197:../../libdaisy/src/dev/oled_ssd130x.h ****                 transport_.SendCommand(0xA8);
 198:../../libdaisy/src/dev/oled_ssd130x.h ****                 transport_.SendCommand(0x3F);
 199:../../libdaisy/src/dev/oled_ssd130x.h ****                 // COM Pins
 200:../../libdaisy/src/dev/oled_ssd130x.h ****                 transport_.SendCommand(0xDA);
 201:../../libdaisy/src/dev/oled_ssd130x.h ****                 transport_.SendCommand(0x12);
 202:../../libdaisy/src/dev/oled_ssd130x.h ****                 break;
 203:../../libdaisy/src/dev/oled_ssd130x.h ****         }
 204:../../libdaisy/src/dev/oled_ssd130x.h **** 
 205:../../libdaisy/src/dev/oled_ssd130x.h ****         // Display Offset
 206:../../libdaisy/src/dev/oled_ssd130x.h ****         transport_.SendCommand(0xD3);
 207:../../libdaisy/src/dev/oled_ssd130x.h ****         transport_.SendCommand(0x00);
 208:../../libdaisy/src/dev/oled_ssd130x.h ****         // Start Line Address
 209:../../libdaisy/src/dev/oled_ssd130x.h ****         transport_.SendCommand(0x40);
 210:../../libdaisy/src/dev/oled_ssd130x.h ****         // Normal Display
 211:../../libdaisy/src/dev/oled_ssd130x.h ****         transport_.SendCommand(0xA6);
 212:../../libdaisy/src/dev/oled_ssd130x.h ****         // All On Resume
 213:../../libdaisy/src/dev/oled_ssd130x.h ****         transport_.SendCommand(0xA4);
 214:../../libdaisy/src/dev/oled_ssd130x.h ****         // Charge Pump
 215:../../libdaisy/src/dev/oled_ssd130x.h ****         transport_.SendCommand(0x8D);
 216:../../libdaisy/src/dev/oled_ssd130x.h ****         transport_.SendCommand(0x14);
ARM GAS  C:\Users\VINCIU~1\AppData\Local\Temp\cc9kCTNX.s 			page 6


 217:../../libdaisy/src/dev/oled_ssd130x.h ****         // Set Segment Remap
 218:../../libdaisy/src/dev/oled_ssd130x.h ****         transport_.SendCommand(0xA1);
 219:../../libdaisy/src/dev/oled_ssd130x.h ****         // COM Output Scan Direction
 220:../../libdaisy/src/dev/oled_ssd130x.h ****         transport_.SendCommand(0xC8);
 221:../../libdaisy/src/dev/oled_ssd130x.h ****         // Contrast Control
 222:../../libdaisy/src/dev/oled_ssd130x.h ****         transport_.SendCommand(0x81);
 223:../../libdaisy/src/dev/oled_ssd130x.h ****         transport_.SendCommand(0x8F);
 224:../../libdaisy/src/dev/oled_ssd130x.h ****         // Pre Charge
 225:../../libdaisy/src/dev/oled_ssd130x.h ****         transport_.SendCommand(0xD9);
 226:../../libdaisy/src/dev/oled_ssd130x.h ****         transport_.SendCommand(0x25);
 227:../../libdaisy/src/dev/oled_ssd130x.h ****         // VCOM Detect
 228:../../libdaisy/src/dev/oled_ssd130x.h ****         transport_.SendCommand(0xDB);
 229:../../libdaisy/src/dev/oled_ssd130x.h ****         transport_.SendCommand(0x34);
 230:../../libdaisy/src/dev/oled_ssd130x.h **** 
 231:../../libdaisy/src/dev/oled_ssd130x.h **** 
 232:../../libdaisy/src/dev/oled_ssd130x.h ****         // Display On
 233:../../libdaisy/src/dev/oled_ssd130x.h ****         transport_.SendCommand(0xAF); //--turn on oled panel
 234:../../libdaisy/src/dev/oled_ssd130x.h ****     };
 235:../../libdaisy/src/dev/oled_ssd130x.h **** 
 236:../../libdaisy/src/dev/oled_ssd130x.h ****     size_t Width() const { return width; };
 237:../../libdaisy/src/dev/oled_ssd130x.h ****     size_t Height() const { return height; };
 238:../../libdaisy/src/dev/oled_ssd130x.h **** 
 239:../../libdaisy/src/dev/oled_ssd130x.h ****     void DrawPixel(uint_fast8_t x, uint_fast8_t y, bool on)
 240:../../libdaisy/src/dev/oled_ssd130x.h ****     {
 241:../../libdaisy/src/dev/oled_ssd130x.h ****         if(x >= width || y >= height)
 242:../../libdaisy/src/dev/oled_ssd130x.h ****             return;
 243:../../libdaisy/src/dev/oled_ssd130x.h ****         if(on)
 244:../../libdaisy/src/dev/oled_ssd130x.h ****             buffer_[x + (y / 8) * width] |= (1 << (y % 8));
 245:../../libdaisy/src/dev/oled_ssd130x.h ****         else
 246:../../libdaisy/src/dev/oled_ssd130x.h ****             buffer_[x + (y / 8) * width] &= ~(1 << (y % 8));
 247:../../libdaisy/src/dev/oled_ssd130x.h ****     }
 248:../../libdaisy/src/dev/oled_ssd130x.h **** 
 249:../../libdaisy/src/dev/oled_ssd130x.h ****     void Fill(bool on)
  38              		.loc 2 249 10 view .LVU1
  39              	.LBB21:
 250:../../libdaisy/src/dev/oled_ssd130x.h ****     {
 251:../../libdaisy/src/dev/oled_ssd130x.h ****         for(size_t i = 0; i < sizeof(buffer_); i++)
  40              		.loc 2 251 29 view .LVU2
 252:../../libdaisy/src/dev/oled_ssd130x.h ****         {
 253:../../libdaisy/src/dev/oled_ssd130x.h ****             buffer_[i] = on ? 0xff : 0x00;
  41              		.loc 2 253 24 is_stmt 0 view .LVU3
  42 0000 4942     		rsbs	r1, r1, #0
  43              	.LVL1:
  44              		.loc 2 253 24 view .LVU4
  45 0002 4FF48062 		mov	r2, #1024
  46 0006 1430     		adds	r0, r0, #20
  47              	.LVL2:
  48              		.loc 2 253 24 view .LVU5
  49 0008 C9B2     		uxtb	r1, r1
  50 000a FFF7FEBF 		b	memset
  51              	.LVL3:
  52              		.loc 2 253 24 view .LVU6
  53              	.LBE21:
  54              	.LBE20:
  55              		.cfi_endproc
  56              	.LFE1813:
  58 000e 00BF     		.section	.text._ZNK5daisy11OledDisplayINS_13SSD130xDriverILj128ELj64ENS_24SSD130x4WireSpiTransport
ARM GAS  C:\Users\VINCIU~1\AppData\Local\Temp\cc9kCTNX.s 			page 7


  59              		.align	1
  60              		.p2align 2,,3
  61              		.weak	_ZNK5daisy11OledDisplayINS_13SSD130xDriverILj128ELj64ENS_24SSD130x4WireSpiTransportEEEE5Widt
  62              		.syntax unified
  63              		.thumb
  64              		.thumb_func
  65              		.fpu fpv5-d16
  67              	_ZNK5daisy11OledDisplayINS_13SSD130xDriverILj128ELj64ENS_24SSD130x4WireSpiTransportEEEE5WidthEv:
  68              	.LVL4:
  69              	.LFB1814:
  27:../../libdaisy/src/hid/disp/oled_display.h **** 
  70              		.loc 1 27 14 is_stmt 1 view -0
  71              		.cfi_startproc
  72              		@ args = 0, pretend = 0, frame = 0
  73              		@ frame_needed = 0, uses_anonymous_args = 0
  74              		@ link register save eliminated.
  27:../../libdaisy/src/hid/disp/oled_display.h **** 
  75              		.loc 1 27 63 is_stmt 0 view .LVU8
  76 0000 8020     		movs	r0, #128
  77              	.LVL5:
  27:../../libdaisy/src/hid/disp/oled_display.h **** 
  78              		.loc 1 27 63 view .LVU9
  79 0002 7047     		bx	lr
  80              		.cfi_endproc
  81              	.LFE1814:
  83              		.section	.text._ZNK5daisy11OledDisplayINS_13SSD130xDriverILj128ELj64ENS_24SSD130x4WireSpiTransport
  84              		.align	1
  85              		.p2align 2,,3
  86              		.weak	_ZNK5daisy11OledDisplayINS_13SSD130xDriverILj128ELj64ENS_24SSD130x4WireSpiTransportEEEE6Heig
  87              		.syntax unified
  88              		.thumb
  89              		.thumb_func
  90              		.fpu fpv5-d16
  92              	_ZNK5daisy11OledDisplayINS_13SSD130xDriverILj128ELj64ENS_24SSD130x4WireSpiTransportEEEE6HeightEv:
  93              	.LVL6:
  94              	.LFB1817:
  26:../../libdaisy/src/hid/disp/oled_display.h ****     uint16_t Width() const override { return driver_.Width(); }
  95              		.loc 1 26 14 is_stmt 1 view -0
  96              		.cfi_startproc
  97              		@ args = 0, pretend = 0, frame = 0
  98              		@ frame_needed = 0, uses_anonymous_args = 0
  99              		@ link register save eliminated.
  26:../../libdaisy/src/hid/disp/oled_display.h ****     uint16_t Width() const override { return driver_.Width(); }
 100              		.loc 1 26 65 is_stmt 0 view .LVU11
 101 0000 4020     		movs	r0, #64
 102              	.LVL7:
  26:../../libdaisy/src/hid/disp/oled_display.h ****     uint16_t Width() const override { return driver_.Width(); }
 103              		.loc 1 26 65 view .LVU12
 104 0002 7047     		bx	lr
 105              		.cfi_endproc
 106              	.LFE1817:
 108              		.section	.text._ZN5daisy11OledDisplayINS_13SSD130xDriverILj128ELj64ENS_24SSD130x4WireSpiTransportE
 109              		.align	1
 110              		.p2align 2,,3
 111              		.weak	_ZN5daisy11OledDisplayINS_13SSD130xDriverILj128ELj64ENS_24SSD130x4WireSpiTransportEEEE6Updat
 112              		.syntax unified
 113              		.thumb
ARM GAS  C:\Users\VINCIU~1\AppData\Local\Temp\cc9kCTNX.s 			page 8


 114              		.thumb_func
 115              		.fpu fpv5-d16
 117              	_ZN5daisy11OledDisplayINS_13SSD130xDriverILj128ELj64ENS_24SSD130x4WireSpiTransportEEEE6UpdateEv:
 118              	.LVL8:
 119              	.LFB1818:
  34:../../libdaisy/src/hid/disp/oled_display.h **** 
  35:../../libdaisy/src/hid/disp/oled_display.h ****     /**
  36:../../libdaisy/src/hid/disp/oled_display.h ****     Sets the pixel at the specified coordinate to be on/off.
  37:../../libdaisy/src/hid/disp/oled_display.h ****     \param x   x Coordinate
  38:../../libdaisy/src/hid/disp/oled_display.h ****     \param y   y coordinate
  39:../../libdaisy/src/hid/disp/oled_display.h ****     \param on  on or off
  40:../../libdaisy/src/hid/disp/oled_display.h ****     */
  41:../../libdaisy/src/hid/disp/oled_display.h ****     void DrawPixel(uint_fast8_t x, uint_fast8_t y, bool on) override
  42:../../libdaisy/src/hid/disp/oled_display.h ****     {
  43:../../libdaisy/src/hid/disp/oled_display.h ****         driver_.DrawPixel(x, y, on);
  44:../../libdaisy/src/hid/disp/oled_display.h ****     }
  45:../../libdaisy/src/hid/disp/oled_display.h **** 
  46:../../libdaisy/src/hid/disp/oled_display.h ****     /** 
  47:../../libdaisy/src/hid/disp/oled_display.h ****     Writes the current display buffer to the OLED device using SPI or I2C depending on 
  48:../../libdaisy/src/hid/disp/oled_display.h ****     how the object was initialized.
  49:../../libdaisy/src/hid/disp/oled_display.h ****     */
  50:../../libdaisy/src/hid/disp/oled_display.h ****     void Update() override { driver_.Update(); }
 120              		.loc 1 50 10 is_stmt 1 view -0
 121              		.cfi_startproc
 122              		@ args = 0, pretend = 0, frame = 8
 123              		@ frame_needed = 0, uses_anonymous_args = 0
 124              	.LBB32:
 125              	.LBI32:
 254:../../libdaisy/src/dev/oled_ssd130x.h ****         }
 255:../../libdaisy/src/dev/oled_ssd130x.h ****     };
 256:../../libdaisy/src/dev/oled_ssd130x.h **** 
 257:../../libdaisy/src/dev/oled_ssd130x.h ****     /**
 258:../../libdaisy/src/dev/oled_ssd130x.h ****      * Update the display 
 259:../../libdaisy/src/dev/oled_ssd130x.h ****     */
 260:../../libdaisy/src/dev/oled_ssd130x.h ****     void Update()
 126              		.loc 2 260 10 view .LVU14
 127              	.LBB33:
 261:../../libdaisy/src/dev/oled_ssd130x.h ****     {
 262:../../libdaisy/src/dev/oled_ssd130x.h ****         uint8_t i;
 263:../../libdaisy/src/dev/oled_ssd130x.h ****         uint8_t high_column_addr;
 264:../../libdaisy/src/dev/oled_ssd130x.h ****         switch(height)
 265:../../libdaisy/src/dev/oled_ssd130x.h ****         {
 266:../../libdaisy/src/dev/oled_ssd130x.h ****             case 32: high_column_addr = 0x12; break;
 267:../../libdaisy/src/dev/oled_ssd130x.h **** 
 268:../../libdaisy/src/dev/oled_ssd130x.h ****             default: high_column_addr = 0x10; break;
 269:../../libdaisy/src/dev/oled_ssd130x.h ****         }
 270:../../libdaisy/src/dev/oled_ssd130x.h ****         for(i = 0; i < (height / 8); i++)
 128              		.loc 2 270 22 view .LVU15
 129              	.LBE33:
 130              	.LBE32:
 131              		.loc 1 50 10 is_stmt 0 view .LVU16
 132 0000 2DE9F041 		push	{r4, r5, r6, r7, r8, lr}
 133              		.cfi_def_cfa_offset 24
 134              		.cfi_offset 4, -24
 135              		.cfi_offset 5, -20
 136              		.cfi_offset 6, -16
 137              		.cfi_offset 7, -12
ARM GAS  C:\Users\VINCIU~1\AppData\Local\Temp\cc9kCTNX.s 			page 9


 138              		.cfi_offset 8, -8
 139              		.cfi_offset 14, -4
 140              	.LBB55:
 141              	.LBB53:
 142              	.LBB34:
 143              	.LBB35:
 112:../../libdaisy/src/dev/oled_ssd130x.h ****     };
 144              		.loc 2 112 30 view .LVU17
 145 0004 B024     		movs	r4, #176
 146              	.LBE35:
 147              	.LBE34:
 148              	.LBE53:
 149              	.LBE55:
 150              		.loc 1 50 10 view .LVU18
 151 0006 82B0     		sub	sp, sp, #8
 152              		.cfi_def_cfa_offset 32
 153              	.LBB56:
 154              	.LBB54:
 155              	.LBB40:
 156              	.LBB36:
 111:../../libdaisy/src/dev/oled_ssd130x.h ****         spi_.BlockingTransmit(&cmd, 1);
 157              		.loc 2 111 24 view .LVU19
 158 0008 00F10806 		add	r6, r0, #8
 159 000c 00F11005 		add	r5, r0, #16
 160 0010 00F11408 		add	r8, r0, #20
 161              	.LVL9:
 162              	.L6:
 111:../../libdaisy/src/dev/oled_ssd130x.h ****         spi_.BlockingTransmit(&cmd, 1);
 163              		.loc 2 111 24 view .LVU20
 164 0014 0027     		movs	r7, #0
 111:../../libdaisy/src/dev/oled_ssd130x.h ****         spi_.BlockingTransmit(&cmd, 1);
 165              		.loc 2 111 23 view .LVU21
 166 0016 2846     		mov	r0, r5
 167 0018 8DF80740 		strb	r4, [sp, #7]
 168              	.LVL10:
 111:../../libdaisy/src/dev/oled_ssd130x.h ****         spi_.BlockingTransmit(&cmd, 1);
 169              		.loc 2 111 23 view .LVU22
 170              	.LBE36:
 171              	.LBI34:
 109:../../libdaisy/src/dev/oled_ssd130x.h ****     {
 172              		.loc 2 109 10 is_stmt 1 view .LVU23
 173              	.LBB37:
 111:../../libdaisy/src/dev/oled_ssd130x.h ****         spi_.BlockingTransmit(&cmd, 1);
 174              		.loc 2 111 9 view .LVU24
 175              	.LBE37:
 176              	.LBE40:
 177              		.loc 2 270 22 is_stmt 0 view .LVU25
 178 001c 0134     		adds	r4, r4, #1
 179              	.LVL11:
 180              	.LBB41:
 181              	.LBB38:
 111:../../libdaisy/src/dev/oled_ssd130x.h ****         spi_.BlockingTransmit(&cmd, 1);
 182              		.loc 2 111 23 view .LVU26
 183 001e 3946     		mov	r1, r7
 184 0020 FFF7FEFF 		bl	dsy_gpio_write
 185              	.LVL12:
 112:../../libdaisy/src/dev/oled_ssd130x.h ****     };
ARM GAS  C:\Users\VINCIU~1\AppData\Local\Temp\cc9kCTNX.s 			page 10


 186              		.loc 2 112 9 is_stmt 1 view .LVU27
 112:../../libdaisy/src/dev/oled_ssd130x.h ****     };
 187              		.loc 2 112 30 is_stmt 0 view .LVU28
 188 0024 6423     		movs	r3, #100
 189 0026 0122     		movs	r2, #1
 190 0028 0DF10701 		add	r1, sp, #7
 191 002c 3046     		mov	r0, r6
 192              	.LBE38:
 193              	.LBE41:
 194              		.loc 2 270 22 view .LVU29
 195 002e E4B2     		uxtb	r4, r4
 196              	.LBB42:
 197              	.LBB39:
 112:../../libdaisy/src/dev/oled_ssd130x.h ****     };
 198              		.loc 2 112 30 view .LVU30
 199 0030 FFF7FEFF 		bl	_ZN5daisy9SpiHandle16BlockingTransmitEPhjm
 200              	.LVL13:
 112:../../libdaisy/src/dev/oled_ssd130x.h ****     };
 201              		.loc 2 112 30 view .LVU31
 202              	.LBE39:
 203              	.LBE42:
 204              	.LBB43:
 205              	.LBB44:
 111:../../libdaisy/src/dev/oled_ssd130x.h ****         spi_.BlockingTransmit(&cmd, 1);
 206              		.loc 2 111 23 view .LVU32
 207 0034 3946     		mov	r1, r7
 208 0036 2846     		mov	r0, r5
 209 0038 8DF80770 		strb	r7, [sp, #7]
 210              	.LVL14:
 111:../../libdaisy/src/dev/oled_ssd130x.h ****         spi_.BlockingTransmit(&cmd, 1);
 211              		.loc 2 111 23 view .LVU33
 212              	.LBE44:
 213              	.LBI43:
 109:../../libdaisy/src/dev/oled_ssd130x.h ****     {
 214              		.loc 2 109 10 is_stmt 1 view .LVU34
 215              	.LBB45:
 111:../../libdaisy/src/dev/oled_ssd130x.h ****         spi_.BlockingTransmit(&cmd, 1);
 216              		.loc 2 111 9 view .LVU35
 111:../../libdaisy/src/dev/oled_ssd130x.h ****         spi_.BlockingTransmit(&cmd, 1);
 217              		.loc 2 111 23 is_stmt 0 view .LVU36
 218 003c FFF7FEFF 		bl	dsy_gpio_write
 219              	.LVL15:
 112:../../libdaisy/src/dev/oled_ssd130x.h ****     };
 220              		.loc 2 112 9 is_stmt 1 view .LVU37
 112:../../libdaisy/src/dev/oled_ssd130x.h ****     };
 221              		.loc 2 112 30 is_stmt 0 view .LVU38
 222 0040 0122     		movs	r2, #1
 223 0042 6423     		movs	r3, #100
 224 0044 0DF10701 		add	r1, sp, #7
 225 0048 3046     		mov	r0, r6
 226 004a FFF7FEFF 		bl	_ZN5daisy9SpiHandle16BlockingTransmitEPhjm
 227              	.LVL16:
 112:../../libdaisy/src/dev/oled_ssd130x.h ****     };
 228              		.loc 2 112 30 view .LVU39
 229 004e 1023     		movs	r3, #16
 230              	.LBE45:
 231              	.LBE43:
ARM GAS  C:\Users\VINCIU~1\AppData\Local\Temp\cc9kCTNX.s 			page 11


 232              	.LBB46:
 233              	.LBB47:
 111:../../libdaisy/src/dev/oled_ssd130x.h ****         spi_.BlockingTransmit(&cmd, 1);
 234              		.loc 2 111 23 view .LVU40
 235 0050 3946     		mov	r1, r7
 236 0052 2846     		mov	r0, r5
 237 0054 8DF80730 		strb	r3, [sp, #7]
 238              	.LVL17:
 111:../../libdaisy/src/dev/oled_ssd130x.h ****         spi_.BlockingTransmit(&cmd, 1);
 239              		.loc 2 111 23 view .LVU41
 240              	.LBE47:
 241              	.LBI46:
 109:../../libdaisy/src/dev/oled_ssd130x.h ****     {
 242              		.loc 2 109 10 is_stmt 1 view .LVU42
 243              	.LBB48:
 111:../../libdaisy/src/dev/oled_ssd130x.h ****         spi_.BlockingTransmit(&cmd, 1);
 244              		.loc 2 111 9 view .LVU43
 111:../../libdaisy/src/dev/oled_ssd130x.h ****         spi_.BlockingTransmit(&cmd, 1);
 245              		.loc 2 111 23 is_stmt 0 view .LVU44
 246 0058 FFF7FEFF 		bl	dsy_gpio_write
 247              	.LVL18:
 112:../../libdaisy/src/dev/oled_ssd130x.h ****     };
 248              		.loc 2 112 9 is_stmt 1 view .LVU45
 112:../../libdaisy/src/dev/oled_ssd130x.h ****     };
 249              		.loc 2 112 30 is_stmt 0 view .LVU46
 250 005c 6423     		movs	r3, #100
 251 005e 0122     		movs	r2, #1
 252 0060 0DF10701 		add	r1, sp, #7
 253 0064 3046     		mov	r0, r6
 254 0066 FFF7FEFF 		bl	_ZN5daisy9SpiHandle16BlockingTransmitEPhjm
 255              	.LVL19:
 112:../../libdaisy/src/dev/oled_ssd130x.h ****     };
 256              		.loc 2 112 30 view .LVU47
 257              	.LBE48:
 258              	.LBE46:
 259              	.LBB49:
 260              	.LBI49:
 115:../../libdaisy/src/dev/oled_ssd130x.h ****     {
 261              		.loc 2 115 10 is_stmt 1 view .LVU48
 262              	.LBB50:
 117:../../libdaisy/src/dev/oled_ssd130x.h ****         spi_.BlockingTransmit(buff, size);
 263              		.loc 2 117 9 view .LVU49
 117:../../libdaisy/src/dev/oled_ssd130x.h ****         spi_.BlockingTransmit(buff, size);
 264              		.loc 2 117 23 is_stmt 0 view .LVU50
 265 006a 0121     		movs	r1, #1
 266 006c 2846     		mov	r0, r5
 267 006e FFF7FEFF 		bl	dsy_gpio_write
 268              	.LVL20:
 118:../../libdaisy/src/dev/oled_ssd130x.h ****     };
 269              		.loc 2 118 9 is_stmt 1 view .LVU51
 118:../../libdaisy/src/dev/oled_ssd130x.h ****     };
 270              		.loc 2 118 30 is_stmt 0 view .LVU52
 271 0072 8022     		movs	r2, #128
 272 0074 4146     		mov	r1, r8
 273 0076 6423     		movs	r3, #100
 274 0078 3046     		mov	r0, r6
 275              	.LBE50:
ARM GAS  C:\Users\VINCIU~1\AppData\Local\Temp\cc9kCTNX.s 			page 12


 276              	.LBE49:
 277              		.loc 2 270 22 view .LVU53
 278 007a 9044     		add	r8, r8, r2
 279              	.LVL21:
 280              	.LBB52:
 281              	.LBB51:
 118:../../libdaisy/src/dev/oled_ssd130x.h ****     };
 282              		.loc 2 118 30 view .LVU54
 283 007c FFF7FEFF 		bl	_ZN5daisy9SpiHandle16BlockingTransmitEPhjm
 284              	.LVL22:
 118:../../libdaisy/src/dev/oled_ssd130x.h ****     };
 285              		.loc 2 118 30 view .LVU55
 286              	.LBE51:
 287              	.LBE52:
 288              		.loc 2 270 9 is_stmt 1 view .LVU56
 289              		.loc 2 270 22 view .LVU57
 290 0080 B82C     		cmp	r4, #184
 291 0082 C7D1     		bne	.L6
 292              	.LBE54:
 293              	.LBE56:
 294              		.loc 1 50 48 is_stmt 0 view .LVU58
 295 0084 02B0     		add	sp, sp, #8
 296              		.cfi_def_cfa_offset 24
 297              		@ sp needed
 298 0086 BDE8F081 		pop	{r4, r5, r6, r7, r8, pc}
 299              		.loc 1 50 48 view .LVU59
 300              		.cfi_endproc
 301              	.LFE1818:
 303 008a 00BF     		.section	.text._ZN5daisy25OneBitGraphicsDisplayImplINS_11OledDisplayINS_13SSD130xDriverILj128ELj64
 304              		.align	1
 305              		.p2align 2,,3
 306              		.weak	_ZN5daisy25OneBitGraphicsDisplayImplINS_11OledDisplayINS_13SSD130xDriverILj128ELj64ENS_24SSD
 307              		.syntax unified
 308              		.thumb
 309              		.thumb_func
 310              		.fpu fpv5-d16
 312              	_ZN5daisy25OneBitGraphicsDisplayImplINS_11OledDisplayINS_13SSD130xDriverILj128ELj64ENS_24SSD130x4Wi
 313              	.LVL23:
 314              	.LFB1816:
 315              		.file 3 "../../libdaisy/src/hid/disp/display.h"
   1:../../libdaisy/src/hid/disp/display.h **** #pragma once
   2:../../libdaisy/src/hid/disp/display.h **** #ifndef DSY_DISPLAY_H
   3:../../libdaisy/src/hid/disp/display.h **** #define DSY_DISPLAY_H /**< Macro */
   4:../../libdaisy/src/hid/disp/display.h **** #include <cmath>
   5:../../libdaisy/src/hid/disp/display.h **** #include "util/oled_fonts.h"
   6:../../libdaisy/src/hid/disp/display.h **** #include "daisy_core.h"
   7:../../libdaisy/src/hid/disp/display.h **** 
   8:../../libdaisy/src/hid/disp/display.h **** #ifndef deg2rad
   9:../../libdaisy/src/hid/disp/display.h **** #define deg2rad(deg) ((deg)*3.141592 / 180.0)
  10:../../libdaisy/src/hid/disp/display.h **** #endif
  11:../../libdaisy/src/hid/disp/display.h **** 
  12:../../libdaisy/src/hid/disp/display.h **** namespace daisy
  13:../../libdaisy/src/hid/disp/display.h **** {
  14:../../libdaisy/src/hid/disp/display.h **** /** 
  15:../../libdaisy/src/hid/disp/display.h ****  * This interface is used as a base class for all types of 1bit-per-pixel
  16:../../libdaisy/src/hid/disp/display.h ****  * graphics displays.
  17:../../libdaisy/src/hid/disp/display.h **** */
ARM GAS  C:\Users\VINCIU~1\AppData\Local\Temp\cc9kCTNX.s 			page 13


  18:../../libdaisy/src/hid/disp/display.h **** class OneBitGraphicsDisplay
  19:../../libdaisy/src/hid/disp/display.h **** {
  20:../../libdaisy/src/hid/disp/display.h ****   public:
  21:../../libdaisy/src/hid/disp/display.h ****     OneBitGraphicsDisplay() {}
  22:../../libdaisy/src/hid/disp/display.h ****     virtual ~OneBitGraphicsDisplay() {}
  23:../../libdaisy/src/hid/disp/display.h **** 
  24:../../libdaisy/src/hid/disp/display.h ****     virtual uint16_t Height() const = 0;
  25:../../libdaisy/src/hid/disp/display.h ****     virtual uint16_t Width() const  = 0;
  26:../../libdaisy/src/hid/disp/display.h **** 
  27:../../libdaisy/src/hid/disp/display.h ****     size_t CurrentX() { return currentX_; };
  28:../../libdaisy/src/hid/disp/display.h ****     size_t CurrentY() { return currentY_; };
  29:../../libdaisy/src/hid/disp/display.h **** 
  30:../../libdaisy/src/hid/disp/display.h ****     /** 
  31:../../libdaisy/src/hid/disp/display.h ****     Fills the entire display with either on/off.
  32:../../libdaisy/src/hid/disp/display.h ****     \param on Sets on or off.
  33:../../libdaisy/src/hid/disp/display.h ****     */
  34:../../libdaisy/src/hid/disp/display.h ****     virtual void Fill(bool on) = 0;
  35:../../libdaisy/src/hid/disp/display.h **** 
  36:../../libdaisy/src/hid/disp/display.h ****     /**
  37:../../libdaisy/src/hid/disp/display.h ****     Sets the pixel at the specified coordinate to be on/off.
  38:../../libdaisy/src/hid/disp/display.h ****     \param x   x Coordinate
  39:../../libdaisy/src/hid/disp/display.h ****     \param y   y coordinate
  40:../../libdaisy/src/hid/disp/display.h ****     \param on  on or off
  41:../../libdaisy/src/hid/disp/display.h ****     */
  42:../../libdaisy/src/hid/disp/display.h ****     virtual void DrawPixel(uint_fast8_t x, uint_fast8_t y, bool on) = 0;
  43:../../libdaisy/src/hid/disp/display.h **** 
  44:../../libdaisy/src/hid/disp/display.h ****     /**
  45:../../libdaisy/src/hid/disp/display.h ****     Draws a line from (x1, y1) to (y1, y2)
  46:../../libdaisy/src/hid/disp/display.h ****     \param x1  x Coordinate of the starting point
  47:../../libdaisy/src/hid/disp/display.h ****     \param y1  y Coordinate of the starting point
  48:../../libdaisy/src/hid/disp/display.h ****     \param x2  x Coordinate of the ending point
  49:../../libdaisy/src/hid/disp/display.h ****     \param y2  y Coordinate of the ending point
  50:../../libdaisy/src/hid/disp/display.h ****     \param on  on or off
  51:../../libdaisy/src/hid/disp/display.h ****     */
  52:../../libdaisy/src/hid/disp/display.h ****     virtual void DrawLine(uint_fast8_t x1,
  53:../../libdaisy/src/hid/disp/display.h ****                           uint_fast8_t y1,
  54:../../libdaisy/src/hid/disp/display.h ****                           uint_fast8_t x2,
  55:../../libdaisy/src/hid/disp/display.h ****                           uint_fast8_t y2,
  56:../../libdaisy/src/hid/disp/display.h ****                           bool         on)
  57:../../libdaisy/src/hid/disp/display.h ****         = 0;
  58:../../libdaisy/src/hid/disp/display.h **** 
  59:../../libdaisy/src/hid/disp/display.h ****     /**
  60:../../libdaisy/src/hid/disp/display.h ****     Draws a rectangle based on two coordinates.
  61:../../libdaisy/src/hid/disp/display.h ****     \param x1 x Coordinate of the first point
  62:../../libdaisy/src/hid/disp/display.h ****     \param y1 y Coordinate of the first point
  63:../../libdaisy/src/hid/disp/display.h ****     \param x2 x Coordinate of the second point
  64:../../libdaisy/src/hid/disp/display.h ****     \param y2 y Coordinate of the second point
  65:../../libdaisy/src/hid/disp/display.h ****     \param on on or off
  66:../../libdaisy/src/hid/disp/display.h ****     */
  67:../../libdaisy/src/hid/disp/display.h ****     virtual void DrawRect(uint_fast8_t x1,
  68:../../libdaisy/src/hid/disp/display.h ****                           uint_fast8_t y1,
  69:../../libdaisy/src/hid/disp/display.h ****                           uint_fast8_t x2,
  70:../../libdaisy/src/hid/disp/display.h ****                           uint_fast8_t y2,
  71:../../libdaisy/src/hid/disp/display.h ****                           bool         on,
  72:../../libdaisy/src/hid/disp/display.h ****                           bool         fill = false)
  73:../../libdaisy/src/hid/disp/display.h ****         = 0;
  74:../../libdaisy/src/hid/disp/display.h **** 
ARM GAS  C:\Users\VINCIU~1\AppData\Local\Temp\cc9kCTNX.s 			page 14


  75:../../libdaisy/src/hid/disp/display.h ****     /**
  76:../../libdaisy/src/hid/disp/display.h ****     Draws an arc around the specified coordinate
  77:../../libdaisy/src/hid/disp/display.h ****     \param x           x Coordinate of the center of the arc
  78:../../libdaisy/src/hid/disp/display.h ****     \param y           y Coordinate of the center of the arc
  79:../../libdaisy/src/hid/disp/display.h ****     \param radius      radius of the arc
  80:../../libdaisy/src/hid/disp/display.h ****     \param start_angle angle where to start the arc
  81:../../libdaisy/src/hid/disp/display.h ****     \param sweep       total angle of the arc
  82:../../libdaisy/src/hid/disp/display.h ****     \param on  on or off
  83:../../libdaisy/src/hid/disp/display.h ****     */
  84:../../libdaisy/src/hid/disp/display.h ****     virtual void DrawArc(uint_fast8_t x,
  85:../../libdaisy/src/hid/disp/display.h ****                          uint_fast8_t y,
  86:../../libdaisy/src/hid/disp/display.h ****                          uint_fast8_t radius,
  87:../../libdaisy/src/hid/disp/display.h ****                          int_fast16_t start_angle,
  88:../../libdaisy/src/hid/disp/display.h ****                          int_fast16_t sweep,
  89:../../libdaisy/src/hid/disp/display.h ****                          bool         on)
  90:../../libdaisy/src/hid/disp/display.h ****         = 0;
  91:../../libdaisy/src/hid/disp/display.h **** 
  92:../../libdaisy/src/hid/disp/display.h ****     /**
  93:../../libdaisy/src/hid/disp/display.h ****     Draws a circle around the specified coordinate
  94:../../libdaisy/src/hid/disp/display.h ****     \param x           x Coordinate of the center of the circle
  95:../../libdaisy/src/hid/disp/display.h ****     \param y           y Coordinate of the center of the circle
  96:../../libdaisy/src/hid/disp/display.h ****     \param radius      radius of the circle
  97:../../libdaisy/src/hid/disp/display.h ****     \param on  on or off
  98:../../libdaisy/src/hid/disp/display.h ****     */
  99:../../libdaisy/src/hid/disp/display.h ****     void
 100:../../libdaisy/src/hid/disp/display.h ****     DrawCircle(uint_fast8_t x, uint_fast8_t y, uint_fast8_t radius, bool on)
 101:../../libdaisy/src/hid/disp/display.h ****     {
 102:../../libdaisy/src/hid/disp/display.h ****         DrawArc(x, y, radius, 0, 360, on);
 103:../../libdaisy/src/hid/disp/display.h ****     };
 104:../../libdaisy/src/hid/disp/display.h **** 
 105:../../libdaisy/src/hid/disp/display.h ****     /** 
 106:../../libdaisy/src/hid/disp/display.h ****     Writes the character with the specific FontDef
 107:../../libdaisy/src/hid/disp/display.h ****     to the display buffer at the current Cursor position.
 108:../../libdaisy/src/hid/disp/display.h ****     \param ch character to be written
 109:../../libdaisy/src/hid/disp/display.h ****     \param font font to be written in
 110:../../libdaisy/src/hid/disp/display.h ****     \param on    on or off
 111:../../libdaisy/src/hid/disp/display.h ****     \return &
 112:../../libdaisy/src/hid/disp/display.h ****     */
 113:../../libdaisy/src/hid/disp/display.h ****     virtual char WriteChar(char ch, FontDef font, bool on) = 0;
 114:../../libdaisy/src/hid/disp/display.h **** 
 115:../../libdaisy/src/hid/disp/display.h ****     /** 
 116:../../libdaisy/src/hid/disp/display.h ****     Similar to WriteChar, except it will handle an entire String.
 117:../../libdaisy/src/hid/disp/display.h ****     Wrapping does not happen automatically, so the width
 118:../../libdaisy/src/hid/disp/display.h ****     of the string must be kept within the dimensions of the screen.
 119:../../libdaisy/src/hid/disp/display.h ****     \param str string to be written
 120:../../libdaisy/src/hid/disp/display.h ****     \param font font to use
 121:../../libdaisy/src/hid/disp/display.h ****     \param on  on or off
 122:../../libdaisy/src/hid/disp/display.h ****     \return &
 123:../../libdaisy/src/hid/disp/display.h ****     */
 124:../../libdaisy/src/hid/disp/display.h ****     virtual char WriteString(const char* str, FontDef font, bool on) = 0;
 125:../../libdaisy/src/hid/disp/display.h **** 
 126:../../libdaisy/src/hid/disp/display.h ****     /** 
 127:../../libdaisy/src/hid/disp/display.h ****     Moves the 'Cursor' position used for WriteChar, and WriteStr to the specified coordinate.
 128:../../libdaisy/src/hid/disp/display.h ****     \param x x pos
 129:../../libdaisy/src/hid/disp/display.h ****     \param y y pos
 130:../../libdaisy/src/hid/disp/display.h ****     */
 131:../../libdaisy/src/hid/disp/display.h ****     void SetCursor(uint16_t x, uint16_t y)
ARM GAS  C:\Users\VINCIU~1\AppData\Local\Temp\cc9kCTNX.s 			page 15


 132:../../libdaisy/src/hid/disp/display.h ****     {
 133:../../libdaisy/src/hid/disp/display.h ****         currentX_ = (x >= Width()) ? Width() - 1 : x;
 134:../../libdaisy/src/hid/disp/display.h ****         currentY_ = (y >= Height()) ? Height() - 1 : y;
 135:../../libdaisy/src/hid/disp/display.h ****     }
 136:../../libdaisy/src/hid/disp/display.h **** 
 137:../../libdaisy/src/hid/disp/display.h ****     /** 
 138:../../libdaisy/src/hid/disp/display.h ****     Writes the current display buffer to the OLED device using SPI or I2C depending on 
 139:../../libdaisy/src/hid/disp/display.h ****     how the object was initialized.
 140:../../libdaisy/src/hid/disp/display.h ****     */
 141:../../libdaisy/src/hid/disp/display.h ****     virtual void Update() = 0;
 142:../../libdaisy/src/hid/disp/display.h **** 
 143:../../libdaisy/src/hid/disp/display.h ****   protected:
 144:../../libdaisy/src/hid/disp/display.h ****     uint16_t currentX_;
 145:../../libdaisy/src/hid/disp/display.h ****     uint16_t currentY_;
 146:../../libdaisy/src/hid/disp/display.h **** };
 147:../../libdaisy/src/hid/disp/display.h **** 
 148:../../libdaisy/src/hid/disp/display.h **** /** This class is intended as a intermediary class for your actual implementation of the OneBitGrap
 149:../../libdaisy/src/hid/disp/display.h ****  *  interface. It uses the CRTP design pattern where the template argument is the child class. It p
 150:../../libdaisy/src/hid/disp/display.h ****  *  implementations for most of the functions, except DrawPixel(), Update() and Fill(), which you'l
 151:../../libdaisy/src/hid/disp/display.h ****  *  to provide in your child class.
 152:../../libdaisy/src/hid/disp/display.h ****  *  The main goal of this class is to provide common drawing functions without relying on massive a
 153:../../libdaisy/src/hid/disp/display.h ****  *  virtual function calls that would result in a performance loss. To achieve this, any drawing fu
 154:../../libdaisy/src/hid/disp/display.h ****  *  is implemented here and internally calls other drawing functions (e.g. DrawRect() which interna
 155:../../libdaisy/src/hid/disp/display.h ****  *  DrawPixel() and DrawLine()) makes these calls via the qualified name of these functions to expl
 156:../../libdaisy/src/hid/disp/display.h ****  *  suppress the virtual dispatch mechanism like this:
 157:../../libdaisy/src/hid/disp/display.h ****  * 
 158:../../libdaisy/src/hid/disp/display.h ****  *      ChildType::DrawPixel(...); // no virtual function call; direct call into the child class fu
 159:../../libdaisy/src/hid/disp/display.h ****  *  
 160:../../libdaisy/src/hid/disp/display.h ****  *  To create a custom OneBitGraphicsDisplay implementation, you can 
 161:../../libdaisy/src/hid/disp/display.h ****  *  A) inherit from OneBitGraphicsDisplay directly and provide all the drawing functions yourself
 162:../../libdaisy/src/hid/disp/display.h ****  *  B) Inherit from OneBitGraphicsDisplayImpl and only provide DrawPixel(), Fill() and Update()
 163:../../libdaisy/src/hid/disp/display.h ****  *     like this:
 164:../../libdaisy/src/hid/disp/display.h ****  *  
 165:../../libdaisy/src/hid/disp/display.h ****  *      class MyDisplayClass : public OneBitGraphicsDisplayImpl<MyDisplayClass> 
 166:../../libdaisy/src/hid/disp/display.h ****  *      {
 167:../../libdaisy/src/hid/disp/display.h ****  *      public:
 168:../../libdaisy/src/hid/disp/display.h ****  *          void Fill() override { ... };
 169:../../libdaisy/src/hid/disp/display.h ****  *          void DrawPixel(uint_fast8_t x, uint_fast8_t y, bool on) override { ... };
 170:../../libdaisy/src/hid/disp/display.h ****  *          void Update() override { ... }
 171:../../libdaisy/src/hid/disp/display.h ****  *      };
 172:../../libdaisy/src/hid/disp/display.h ****  *  
 173:../../libdaisy/src/hid/disp/display.h ****  */
 174:../../libdaisy/src/hid/disp/display.h **** template <class ChildType>
 175:../../libdaisy/src/hid/disp/display.h **** class OneBitGraphicsDisplayImpl : public OneBitGraphicsDisplay
 176:../../libdaisy/src/hid/disp/display.h **** {
 177:../../libdaisy/src/hid/disp/display.h ****   public:
 178:../../libdaisy/src/hid/disp/display.h ****     OneBitGraphicsDisplayImpl() {}
 179:../../libdaisy/src/hid/disp/display.h ****     virtual ~OneBitGraphicsDisplayImpl() {}
 180:../../libdaisy/src/hid/disp/display.h **** 
 181:../../libdaisy/src/hid/disp/display.h ****     void DrawLine(uint_fast8_t x1,
 316              		.loc 3 181 10 is_stmt 1 view -0
 317              		.cfi_startproc
 318              		@ args = 8, pretend = 0, frame = 8
 319              		@ frame_needed = 0, uses_anonymous_args = 0
 320              		.loc 3 181 10 is_stmt 0 view .LVU61
 321 0000 2DE9F04F 		push	{r4, r5, r6, r7, r8, r9, r10, fp, lr}
 322              		.cfi_def_cfa_offset 36
ARM GAS  C:\Users\VINCIU~1\AppData\Local\Temp\cc9kCTNX.s 			page 16


 323              		.cfi_offset 4, -36
 324              		.cfi_offset 5, -32
 325              		.cfi_offset 6, -28
 326              		.cfi_offset 7, -24
 327              		.cfi_offset 8, -20
 328              		.cfi_offset 9, -16
 329              		.cfi_offset 10, -12
 330              		.cfi_offset 11, -8
 331              		.cfi_offset 14, -4
 332 0004 83B0     		sub	sp, sp, #12
 333              		.cfi_def_cfa_offset 48
 182:../../libdaisy/src/hid/disp/display.h ****                   uint_fast8_t y1,
 183:../../libdaisy/src/hid/disp/display.h ****                   uint_fast8_t x2,
 184:../../libdaisy/src/hid/disp/display.h ****                   uint_fast8_t y2,
 185:../../libdaisy/src/hid/disp/display.h ****                   bool         on) override
 186:../../libdaisy/src/hid/disp/display.h ****     {
 187:../../libdaisy/src/hid/disp/display.h ****         int_fast16_t deltaX = abs((int_fast16_t)x2 - (int_fast16_t)x1);
 334              		.loc 3 187 52 view .LVU62
 335 0006 5C1A     		subs	r4, r3, r1
 181:../../libdaisy/src/hid/disp/display.h ****                   uint_fast8_t y1,
 336              		.loc 3 181 10 view .LVU63
 337 0008 0C9E     		ldr	r6, [sp, #48]
 338              		.loc 3 187 22 view .LVU64
 339 000a 002C     		cmp	r4, #0
 181:../../libdaisy/src/hid/disp/display.h ****                   uint_fast8_t y1,
 340              		.loc 3 181 10 view .LVU65
 341 000c 9DF83490 		ldrb	r9, [sp, #52]	@ zero_extendqisi2
 188:../../libdaisy/src/hid/disp/display.h ****         int_fast16_t deltaY = abs((int_fast16_t)y2 - (int_fast16_t)y1);
 342              		.loc 3 188 52 view .LVU66
 343 0010 A6EB0208 		sub	r8, r6, r2
 187:../../libdaisy/src/hid/disp/display.h ****         int_fast16_t deltaY = abs((int_fast16_t)y2 - (int_fast16_t)y1);
 344              		.loc 3 187 22 view .LVU67
 345 0014 B8BF     		it	lt
 346 0016 6442     		rsblt	r4, r4, #0
 347              	.LVL24:
 348              		.loc 3 188 22 view .LVU68
 349 0018 B8F1000F 		cmp	r8, #0
 350 001c B8BF     		it	lt
 351 001e C8F10008 		rsblt	r8, r8, #0
 352              	.LVL25:
 189:../../libdaisy/src/hid/disp/display.h ****         int_fast16_t signX  = ((x1 < x2) ? 1 : -1);
 353              		.loc 3 189 42 view .LVU69
 354 0022 8B42     		cmp	r3, r1
 355 0024 8CBF     		ite	hi
 356 0026 4FF0010A 		movhi	r10, #1
 357 002a 4FF0FF3A 		movls	r10, #-1
 358              	.LVL26:
 190:../../libdaisy/src/hid/disp/display.h ****         int_fast16_t signY  = ((y1 < y2) ? 1 : -1);
 359              		.loc 3 190 42 view .LVU70
 360 002e 9642     		cmp	r6, r2
 191:../../libdaisy/src/hid/disp/display.h ****         int_fast16_t error  = deltaX - deltaY;
 361              		.loc 3 191 22 view .LVU71
 362 0030 A4EB080C 		sub	ip, r4, r8
 190:../../libdaisy/src/hid/disp/display.h ****         int_fast16_t signY  = ((y1 < y2) ? 1 : -1);
 363              		.loc 3 190 42 view .LVU72
 364 0034 51D8     		bhi	.L11
 365              	.LVL27:
ARM GAS  C:\Users\VINCIU~1\AppData\Local\Temp\cc9kCTNX.s 			page 17


 366              	.LBB73:
 367              	.LBI73:
  41:../../libdaisy/src/hid/disp/oled_display.h ****     {
 368              		.loc 1 41 10 is_stmt 1 discriminator 4 view .LVU73
 369              	.LBB74:
 370              	.LBI74:
 239:../../libdaisy/src/dev/oled_ssd130x.h ****     {
 371              		.loc 2 239 10 discriminator 4 view .LVU74
 372              	.LBE74:
 373              	.LBE73:
 190:../../libdaisy/src/hid/disp/display.h ****         int_fast16_t error  = deltaX - deltaY;
 374              		.loc 3 190 42 is_stmt 0 discriminator 4 view .LVU75
 375 0036 4FF0FF35 		mov	r5, #-1
 376              	.LBB90:
 377              	.LBB84:
 378              	.LBB75:
 241:../../libdaisy/src/dev/oled_ssd130x.h ****             return;
 379              		.loc 2 241 9 discriminator 4 view .LVU76
 380 003a 7F2B     		cmp	r3, #127
 381              	.LBE75:
 382              	.LBE84:
 383              	.LBE90:
 190:../../libdaisy/src/hid/disp/display.h ****         int_fast16_t error  = deltaX - deltaY;
 384              		.loc 3 190 42 discriminator 4 view .LVU77
 385 003c 0195     		str	r5, [sp, #4]
 386              	.LBB91:
 387              	.LBB85:
 388              	.LBB80:
 241:../../libdaisy/src/dev/oled_ssd130x.h ****             return;
 389              		.loc 2 241 9 discriminator 4 view .LVU78
 390 003e 12D8     		bhi	.L12
 391 0040 3F2E     		cmp	r6, #63
 392 0042 10D8     		bhi	.L12
 393              	.LVL28:
 394              	.L23:
 244:../../libdaisy/src/dev/oled_ssd130x.h ****         else
 395              		.loc 2 244 28 view .LVU79
 396 0044 F508     		lsrs	r5, r6, #3
 244:../../libdaisy/src/dev/oled_ssd130x.h ****         else
 397              		.loc 2 244 54 view .LVU80
 398 0046 06F0070E 		and	lr, r6, #7
 244:../../libdaisy/src/dev/oled_ssd130x.h ****         else
 399              		.loc 2 244 48 view .LVU81
 400 004a 0127     		movs	r7, #1
 244:../../libdaisy/src/dev/oled_ssd130x.h ****         else
 401              		.loc 2 244 42 view .LVU82
 402 004c 03EBC515 		add	r5, r3, r5, lsl #7
 403 0050 0544     		add	r5, r5, r0
 243:../../libdaisy/src/dev/oled_ssd130x.h ****             buffer_[x + (y / 8) * width] |= (1 << (y % 8));
 404              		.loc 2 243 9 view .LVU83
 405 0052 B9F1000F 		cmp	r9, #0
 406 0056 47D0     		beq	.L13
 244:../../libdaisy/src/dev/oled_ssd130x.h ****         else
 407              		.loc 2 244 48 view .LVU84
 408 0058 07FA0EF7 		lsl	r7, r7, lr
 244:../../libdaisy/src/dev/oled_ssd130x.h ****         else
 409              		.loc 2 244 42 view .LVU85
ARM GAS  C:\Users\VINCIU~1\AppData\Local\Temp\cc9kCTNX.s 			page 18


 410 005c 95F814E0 		ldrb	lr, [r5, #20]	@ zero_extendqisi2
 411 0060 47EA0E07 		orr	r7, r7, lr
 412 0064 2F75     		strb	r7, [r5, #20]
 413              	.LVL29:
 414              	.L12:
 244:../../libdaisy/src/dev/oled_ssd130x.h ****         else
 415              		.loc 2 244 42 view .LVU86
 416              	.LBE80:
 417              	.LBE85:
 418              	.LBE91:
 192:../../libdaisy/src/hid/disp/display.h ****         int_fast16_t error2;
 193:../../libdaisy/src/hid/disp/display.h **** 
 194:../../libdaisy/src/hid/disp/display.h ****         // If we write "ChildType::DrawPixel(x2, y2, on);", we end up with
 195:../../libdaisy/src/hid/disp/display.h ****         // all sorts of weird compiler errors when the Child class is a template
 196:../../libdaisy/src/hid/disp/display.h ****         // class. The only way around this is to use this very verbose syntax:
 197:../../libdaisy/src/hid/disp/display.h ****         ((ChildType*)(this))->ChildType::DrawPixel(x2, y2, on);
 198:../../libdaisy/src/hid/disp/display.h **** 
 199:../../libdaisy/src/hid/disp/display.h ****         while((x1 != x2) || (y1 != y2))
 419              		.loc 3 199 26 is_stmt 1 view .LVU87
 420 0066 9642     		cmp	r6, r2
 421 0068 01D1     		bne	.L16
 422              	.L35:
 423              		.loc 3 199 26 is_stmt 0 view .LVU88
 424 006a 8B42     		cmp	r3, r1
 425 006c 29D0     		beq	.L9
 426              	.L16:
 427              	.LVL30:
 200:../../libdaisy/src/hid/disp/display.h ****         {
 201:../../libdaisy/src/hid/disp/display.h ****             ((ChildType*)(this))->ChildType::DrawPixel(x1, y1, on);
 202:../../libdaisy/src/hid/disp/display.h ****             error2 = error * 2;
 203:../../libdaisy/src/hid/disp/display.h ****             if(error2 > -deltaY)
 428              		.loc 3 203 23 view .LVU89
 429 006e C8F10007 		rsb	r7, r8, #0
 430              	.L18:
 431              	.LVL31:
 432              	.LBB92:
 433              	.LBI92:
  41:../../libdaisy/src/hid/disp/oled_display.h ****     {
 434              		.loc 1 41 10 is_stmt 1 view .LVU90
 435              	.LBB93:
 436              	.LBI93:
 239:../../libdaisy/src/dev/oled_ssd130x.h ****     {
 437              		.loc 2 239 10 view .LVU91
 438              	.LBB94:
 241:../../libdaisy/src/dev/oled_ssd130x.h ****             return;
 439              		.loc 2 241 9 is_stmt 0 view .LVU92
 440 0072 7F29     		cmp	r1, #127
 441 0074 14D8     		bhi	.L19
 442 0076 3F2A     		cmp	r2, #63
 443 0078 12D8     		bhi	.L19
 244:../../libdaisy/src/dev/oled_ssd130x.h ****         else
 444              		.loc 2 244 28 view .LVU93
 445 007a D508     		lsrs	r5, r2, #3
 244:../../libdaisy/src/dev/oled_ssd130x.h ****         else
 446              		.loc 2 244 54 view .LVU94
 447 007c 02F0070B 		and	fp, r2, #7
 244:../../libdaisy/src/dev/oled_ssd130x.h ****         else
ARM GAS  C:\Users\VINCIU~1\AppData\Local\Temp\cc9kCTNX.s 			page 19


 448              		.loc 2 244 48 view .LVU95
 449 0080 4FF0010E 		mov	lr, #1
 244:../../libdaisy/src/dev/oled_ssd130x.h ****         else
 450              		.loc 2 244 42 view .LVU96
 451 0084 01EBC515 		add	r5, r1, r5, lsl #7
 452 0088 0544     		add	r5, r5, r0
 243:../../libdaisy/src/dev/oled_ssd130x.h ****             buffer_[x + (y / 8) * width] |= (1 << (y % 8));
 453              		.loc 2 243 9 view .LVU97
 454 008a B9F1000F 		cmp	r9, #0
 455 008e 1BD0     		beq	.L20
 244:../../libdaisy/src/dev/oled_ssd130x.h ****         else
 456              		.loc 2 244 48 view .LVU98
 457 0090 0EFA0BFE 		lsl	lr, lr, fp
 244:../../libdaisy/src/dev/oled_ssd130x.h ****         else
 458              		.loc 2 244 42 view .LVU99
 459 0094 95F814B0 		ldrb	fp, [r5, #20]	@ zero_extendqisi2
 460 0098 4EEA0B0E 		orr	lr, lr, fp
 461 009c 85F814E0 		strb	lr, [r5, #20]
 462              	.L19:
 463              	.LVL32:
 244:../../libdaisy/src/dev/oled_ssd130x.h ****         else
 464              		.loc 2 244 42 view .LVU100
 465              	.LBE94:
 466              	.LBE93:
 467              	.LBE92:
 468              		.loc 3 203 13 view .LVU101
 469 00a0 B7EB4C0F 		cmp	r7, ip, lsl #1
 202:../../libdaisy/src/hid/disp/display.h ****             if(error2 > -deltaY)
 470              		.loc 3 202 20 view .LVU102
 471 00a4 4FEA4C05 		lsl	r5, ip, #1
 472              	.LVL33:
 473              		.loc 3 203 13 view .LVU103
 474 00a8 02DA     		bge	.L21
 204:../../libdaisy/src/hid/disp/display.h ****             {
 205:../../libdaisy/src/hid/disp/display.h ****                 error -= deltaY;
 475              		.loc 3 205 23 view .LVU104
 476 00aa ACEB080C 		sub	ip, ip, r8
 477              	.LVL34:
 206:../../libdaisy/src/hid/disp/display.h ****                 x1 += signX;
 478              		.loc 3 206 20 view .LVU105
 479 00ae 5144     		add	r1, r1, r10
 480              	.LVL35:
 481              	.L21:
 207:../../libdaisy/src/hid/disp/display.h ****             }
 208:../../libdaisy/src/hid/disp/display.h **** 
 209:../../libdaisy/src/hid/disp/display.h ****             if(error2 < deltaX)
 482              		.loc 3 209 13 view .LVU106
 483 00b0 AC42     		cmp	r4, r5
 484 00b2 02DD     		ble	.L22
 210:../../libdaisy/src/hid/disp/display.h ****             {
 211:../../libdaisy/src/hid/disp/display.h ****                 error += deltaX;
 212:../../libdaisy/src/hid/disp/display.h ****                 y1 += signY;
 485              		.loc 3 212 20 view .LVU107
 486 00b4 019D     		ldr	r5, [sp, #4]
 487              	.LVL36:
 211:../../libdaisy/src/hid/disp/display.h ****                 y1 += signY;
 488              		.loc 3 211 23 view .LVU108
ARM GAS  C:\Users\VINCIU~1\AppData\Local\Temp\cc9kCTNX.s 			page 20


 489 00b6 A444     		add	ip, ip, r4
 490              	.LVL37:
 491              		.loc 3 212 20 view .LVU109
 492 00b8 2A44     		add	r2, r2, r5
 493              	.LVL38:
 494              	.L22:
 199:../../libdaisy/src/hid/disp/display.h ****         {
 495              		.loc 3 199 26 is_stmt 1 view .LVU110
 496 00ba 9942     		cmp	r1, r3
 497 00bc D9D1     		bne	.L18
 199:../../libdaisy/src/hid/disp/display.h ****         {
 498              		.loc 3 199 26 is_stmt 0 view .LVU111
 499 00be 9642     		cmp	r6, r2
 500 00c0 D7D1     		bne	.L18
 501              	.L9:
 213:../../libdaisy/src/hid/disp/display.h ****             }
 214:../../libdaisy/src/hid/disp/display.h ****         }
 215:../../libdaisy/src/hid/disp/display.h ****     }
 502              		.loc 3 215 5 view .LVU112
 503 00c2 03B0     		add	sp, sp, #12
 504              		.cfi_remember_state
 505              		.cfi_def_cfa_offset 36
 506              		@ sp needed
 507 00c4 BDE8F08F 		pop	{r4, r5, r6, r7, r8, r9, r10, fp, pc}
 508              	.LVL39:
 509              	.L20:
 510              		.cfi_restore_state
 511              	.LBB99:
 512              	.LBB98:
 513              	.LBB97:
 514              	.LBB95:
 515              	.LBI95:
 239:../../libdaisy/src/dev/oled_ssd130x.h ****     {
 516              		.loc 2 239 10 is_stmt 1 view .LVU113
 517              	.LBB96:
 246:../../libdaisy/src/dev/oled_ssd130x.h ****     }
 518              		.loc 2 246 49 is_stmt 0 view .LVU114
 519 00c8 0EFA0BFB 		lsl	fp, lr, fp
 246:../../libdaisy/src/dev/oled_ssd130x.h ****     }
 520              		.loc 2 246 42 view .LVU115
 521 00cc 95F814E0 		ldrb	lr, [r5, #20]	@ zero_extendqisi2
 522 00d0 2EEA0B0E 		bic	lr, lr, fp
 523 00d4 85F814E0 		strb	lr, [r5, #20]
 524 00d8 E2E7     		b	.L19
 525              	.LVL40:
 526              	.L11:
 246:../../libdaisy/src/dev/oled_ssd130x.h ****     }
 527              		.loc 2 246 42 view .LVU116
 528              	.LBE96:
 529              	.LBE95:
 530              	.LBE97:
 531              	.LBE98:
 532              	.LBE99:
 533              	.LBB100:
  41:../../libdaisy/src/hid/disp/oled_display.h ****     {
 534              		.loc 1 41 10 is_stmt 1 view .LVU117
 535              	.LBB86:
ARM GAS  C:\Users\VINCIU~1\AppData\Local\Temp\cc9kCTNX.s 			page 21


 239:../../libdaisy/src/dev/oled_ssd130x.h ****     {
 536              		.loc 2 239 10 view .LVU118
 537              	.LBE86:
 538              	.LBE100:
 190:../../libdaisy/src/hid/disp/display.h ****         int_fast16_t error  = deltaX - deltaY;
 539              		.loc 3 190 42 is_stmt 0 view .LVU119
 540 00da 0125     		movs	r5, #1
 541              	.LBB101:
 542              	.LBB87:
 543              	.LBB81:
 241:../../libdaisy/src/dev/oled_ssd130x.h ****             return;
 544              		.loc 2 241 9 view .LVU120
 545 00dc 7F2B     		cmp	r3, #127
 546              	.LBE81:
 547              	.LBE87:
 548              	.LBE101:
 190:../../libdaisy/src/hid/disp/display.h ****         int_fast16_t error  = deltaX - deltaY;
 549              		.loc 3 190 42 view .LVU121
 550 00de 0195     		str	r5, [sp, #4]
 551              	.LBB102:
 552              	.LBB88:
 553              	.LBB82:
 241:../../libdaisy/src/dev/oled_ssd130x.h ****             return;
 554              		.loc 2 241 9 view .LVU122
 555 00e0 C5D8     		bhi	.L16
 556 00e2 3F2E     		cmp	r6, #63
 557 00e4 AED9     		bls	.L23
 558 00e6 C2E7     		b	.L16
 559              	.LVL41:
 560              	.L13:
 561              	.LBB76:
 562              	.LBI76:
 239:../../libdaisy/src/dev/oled_ssd130x.h ****     {
 563              		.loc 2 239 10 is_stmt 1 view .LVU123
 564              	.LBB77:
 246:../../libdaisy/src/dev/oled_ssd130x.h ****     }
 565              		.loc 2 246 49 is_stmt 0 view .LVU124
 566 00e8 07FA0EFE 		lsl	lr, r7, lr
 246:../../libdaisy/src/dev/oled_ssd130x.h ****     }
 567              		.loc 2 246 42 view .LVU125
 568 00ec 2F7D     		ldrb	r7, [r5, #20]	@ zero_extendqisi2
 569              	.LBE77:
 570              	.LBE76:
 571              	.LBE82:
 572              	.LBE88:
 573              	.LBE102:
 199:../../libdaisy/src/hid/disp/display.h ****         {
 574              		.loc 3 199 26 view .LVU126
 575 00ee 9642     		cmp	r6, r2
 576              	.LBB103:
 577              	.LBB89:
 578              	.LBB83:
 579              	.LBB79:
 580              	.LBB78:
 246:../../libdaisy/src/dev/oled_ssd130x.h ****     }
 581              		.loc 2 246 42 view .LVU127
 582 00f0 27EA0E07 		bic	r7, r7, lr
ARM GAS  C:\Users\VINCIU~1\AppData\Local\Temp\cc9kCTNX.s 			page 22


 583 00f4 2F75     		strb	r7, [r5, #20]
 584              	.LVL42:
 246:../../libdaisy/src/dev/oled_ssd130x.h ****     }
 585              		.loc 2 246 42 view .LVU128
 586              	.LBE78:
 587              	.LBE79:
 588              	.LBE83:
 589              	.LBE89:
 590              	.LBE103:
 199:../../libdaisy/src/hid/disp/display.h ****         {
 591              		.loc 3 199 26 is_stmt 1 view .LVU129
 592 00f6 B8D0     		beq	.L35
 593 00f8 B9E7     		b	.L16
 594              		.cfi_endproc
 595              	.LFE1816:
 597 00fa 00BF     		.section	.text._ZN5daisy25OneBitGraphicsDisplayImplINS_11OledDisplayINS_13SSD130xDriverILj128ELj64
 598              		.align	1
 599              		.p2align 2,,3
 600              		.weak	_ZN5daisy25OneBitGraphicsDisplayImplINS_11OledDisplayINS_13SSD130xDriverILj128ELj64ENS_24SSD
 601              		.syntax unified
 602              		.thumb
 603              		.thumb_func
 604              		.fpu fpv5-d16
 606              	_ZN5daisy25OneBitGraphicsDisplayImplINS_11OledDisplayINS_13SSD130xDriverILj128ELj64ENS_24SSD130x4Wi
 607              	.LVL43:
 608              	.LFB1815:
 216:../../libdaisy/src/hid/disp/display.h **** 
 217:../../libdaisy/src/hid/disp/display.h ****     void DrawRect(uint_fast8_t x1,
 609              		.loc 3 217 10 view -0
 610              		.cfi_startproc
 611              		@ args = 12, pretend = 0, frame = 24
 612              		@ frame_needed = 0, uses_anonymous_args = 0
 613              		.loc 3 217 10 is_stmt 0 view .LVU131
 614 0000 2DE9F04F 		push	{r4, r5, r6, r7, r8, r9, r10, fp, lr}
 615              		.cfi_def_cfa_offset 36
 616              		.cfi_offset 4, -36
 617              		.cfi_offset 5, -32
 618              		.cfi_offset 6, -28
 619              		.cfi_offset 7, -24
 620              		.cfi_offset 8, -20
 621              		.cfi_offset 9, -16
 622              		.cfi_offset 10, -12
 623              		.cfi_offset 11, -8
 624              		.cfi_offset 14, -4
 625 0004 87B0     		sub	sp, sp, #28
 626              		.cfi_def_cfa_offset 64
 627              		.loc 3 217 10 view .LVU132
 628 0006 9DF84850 		ldrb	r5, [sp, #72]	@ zero_extendqisi2
 629 000a 109C     		ldr	r4, [sp, #64]
 630 000c 2E46     		mov	r6, r5
 631 000e 0195     		str	r5, [sp, #4]
 632 0010 9DF84450 		ldrb	r5, [sp, #68]	@ zero_extendqisi2
 633              	.LBB174:
 218:../../libdaisy/src/hid/disp/display.h ****                   uint_fast8_t y1,
 219:../../libdaisy/src/hid/disp/display.h ****                   uint_fast8_t x2,
 220:../../libdaisy/src/hid/disp/display.h ****                   uint_fast8_t y2,
 221:../../libdaisy/src/hid/disp/display.h ****                   bool         on,
ARM GAS  C:\Users\VINCIU~1\AppData\Local\Temp\cc9kCTNX.s 			page 23


 222:../../libdaisy/src/hid/disp/display.h ****                   bool         fill = false) override
 223:../../libdaisy/src/hid/disp/display.h ****     {
 224:../../libdaisy/src/hid/disp/display.h ****         if(fill)
 634              		.loc 3 224 9 view .LVU133
 635 0014 9EB3     		cbz	r6, .L37
 636              	.LVL44:
 637              	.LBB175:
 225:../../libdaisy/src/hid/disp/display.h ****         {
 226:../../libdaisy/src/hid/disp/display.h ****             for(uint_fast8_t x = x1; x <= x2; x++)
 638              		.loc 3 226 40 is_stmt 1 view .LVU134
 639 0016 9942     		cmp	r1, r3
 640 0018 2ED8     		bhi	.L36
 641 001a 9946     		mov	r9, r3
 642              	.LVL45:
 643              	.L40:
 644              	.LBB176:
 227:../../libdaisy/src/hid/disp/display.h ****             {
 228:../../libdaisy/src/hid/disp/display.h ****                 for(uint_fast8_t y = y1; y <= y2; y++)
 645              		.loc 3 228 44 view .LVU135
 646 001c A242     		cmp	r2, r4
 647 001e 28D8     		bhi	.L43
 648              	.LBB177:
 649              	.LBB178:
 650              	.LBB179:
 241:../../libdaisy/src/dev/oled_ssd130x.h ****             return;
 651              		.loc 2 241 14 is_stmt 0 view .LVU136
 652 0020 7F29     		cmp	r1, #127
 653 0022 1646     		mov	r6, r2
 654 0024 94BF     		ite	ls
 655 0026 0023     		movls	r3, #0
 656 0028 0123     		movhi	r3, #1
 657 002a 08E0     		b	.L44
 658              	.LVL46:
 659              	.L127:
 244:../../libdaisy/src/dev/oled_ssd130x.h ****         else
 660              		.loc 2 244 42 view .LVU137
 661 002c 9CF81480 		ldrb	r8, [ip, #20]	@ zero_extendqisi2
 662 0030 4EEA080E 		orr	lr, lr, r8
 663 0034 8CF814E0 		strb	lr, [ip, #20]
 664              	.LVL47:
 665              	.L41:
 244:../../libdaisy/src/dev/oled_ssd130x.h ****         else
 666              		.loc 2 244 42 view .LVU138
 667              	.LBE179:
 668              	.LBE178:
 669              	.LBE177:
 670              		.loc 3 228 17 is_stmt 1 view .LVU139
 671 0038 0136     		adds	r6, r6, #1
 672              	.LVL48:
 673              		.loc 3 228 44 view .LVU140
 674 003a B442     		cmp	r4, r6
 675 003c 19D3     		bcc	.L43
 676              	.L44:
 677              	.LVL49:
 678              	.LBB193:
 679              	.LBI177:
  41:../../libdaisy/src/hid/disp/oled_display.h ****     {
ARM GAS  C:\Users\VINCIU~1\AppData\Local\Temp\cc9kCTNX.s 			page 24


 680              		.loc 1 41 10 view .LVU141
 681              	.LBB190:
 682              	.LBI178:
 239:../../libdaisy/src/dev/oled_ssd130x.h ****     {
 683              		.loc 2 239 10 view .LVU142
 684              	.LBB187:
 241:../../libdaisy/src/dev/oled_ssd130x.h ****             return;
 685              		.loc 2 241 9 is_stmt 0 view .LVU143
 686 003e 3F2E     		cmp	r6, #63
 687 0040 FAD8     		bhi	.L41
 241:../../libdaisy/src/dev/oled_ssd130x.h ****             return;
 688              		.loc 2 241 9 view .LVU144
 689 0042 002B     		cmp	r3, #0
 690 0044 F8D1     		bne	.L41
 691              	.LVL50:
 692              	.LBB180:
 693              	.LBI180:
 239:../../libdaisy/src/dev/oled_ssd130x.h ****     {
 694              		.loc 2 239 10 is_stmt 1 view .LVU145
 239:../../libdaisy/src/dev/oled_ssd130x.h ****     {
 695              		.loc 2 239 10 is_stmt 0 view .LVU146
 696              	.LBE180:
 244:../../libdaisy/src/dev/oled_ssd130x.h ****         else
 697              		.loc 2 244 28 view .LVU147
 698 0046 4FEAD60C 		lsr	ip, r6, #3
 244:../../libdaisy/src/dev/oled_ssd130x.h ****         else
 699              		.loc 2 244 54 view .LVU148
 700 004a 06F0070E 		and	lr, r6, #7
 244:../../libdaisy/src/dev/oled_ssd130x.h ****         else
 701              		.loc 2 244 48 view .LVU149
 702 004e 4FF00108 		mov	r8, #1
 244:../../libdaisy/src/dev/oled_ssd130x.h ****         else
 703              		.loc 2 244 42 view .LVU150
 704 0052 01EBCC1C 		add	ip, r1, ip, lsl #7
 244:../../libdaisy/src/dev/oled_ssd130x.h ****         else
 705              		.loc 2 244 48 view .LVU151
 706 0056 08FA0EFE 		lsl	lr, r8, lr
 244:../../libdaisy/src/dev/oled_ssd130x.h ****         else
 707              		.loc 2 244 42 view .LVU152
 708 005a 8444     		add	ip, ip, r0
 243:../../libdaisy/src/dev/oled_ssd130x.h ****             buffer_[x + (y / 8) * width] |= (1 << (y % 8));
 709              		.loc 2 243 9 view .LVU153
 710 005c 002D     		cmp	r5, #0
 711 005e E5D1     		bne	.L127
 712              	.LBB184:
 713              	.LBB181:
 246:../../libdaisy/src/dev/oled_ssd130x.h ****     }
 714              		.loc 2 246 42 view .LVU154
 715 0060 9CF814B0 		ldrb	fp, [ip, #20]	@ zero_extendqisi2
 716              	.LBE181:
 717              	.LBE184:
 718              	.LBE187:
 719              	.LBE190:
 720              	.LBE193:
 721              		.loc 3 228 17 view .LVU155
 722 0064 0136     		adds	r6, r6, #1
 723              	.LVL51:
ARM GAS  C:\Users\VINCIU~1\AppData\Local\Temp\cc9kCTNX.s 			page 25


 724              	.LBB194:
 725              	.LBB191:
 726              	.LBB188:
 727              	.LBB185:
 728              	.LBB182:
 246:../../libdaisy/src/dev/oled_ssd130x.h ****     }
 729              		.loc 2 246 42 view .LVU156
 730 0066 2BEA0E0A 		bic	r10, fp, lr
 731              	.LBE182:
 732              	.LBE185:
 733              	.LBE188:
 734              	.LBE191:
 735              	.LBE194:
 736              		.loc 3 228 44 view .LVU157
 737 006a B442     		cmp	r4, r6
 738              	.LBB195:
 739              	.LBB192:
 740              	.LBB189:
 741              	.LBB186:
 742              	.LBB183:
 246:../../libdaisy/src/dev/oled_ssd130x.h ****     }
 743              		.loc 2 246 42 view .LVU158
 744 006c 8CF814A0 		strb	r10, [ip, #20]
 745              	.LVL52:
 246:../../libdaisy/src/dev/oled_ssd130x.h ****     }
 746              		.loc 2 246 42 view .LVU159
 747              	.LBE183:
 748              	.LBE186:
 749              	.LBE189:
 750              	.LBE192:
 751              	.LBE195:
 752              		.loc 3 228 17 is_stmt 1 view .LVU160
 753              		.loc 3 228 44 view .LVU161
 754 0070 E5D2     		bcs	.L44
 755              	.LVL53:
 756              	.L43:
 757              		.loc 3 228 44 is_stmt 0 view .LVU162
 758              	.LBE176:
 226:../../libdaisy/src/hid/disp/display.h ****             {
 759              		.loc 3 226 13 is_stmt 1 view .LVU163
 760 0072 0131     		adds	r1, r1, #1
 761              	.LVL54:
 226:../../libdaisy/src/hid/disp/display.h ****             {
 762              		.loc 3 226 40 view .LVU164
 763 0074 8945     		cmp	r9, r1
 764 0076 D1D2     		bcs	.L40
 765              	.LVL55:
 766              	.L36:
 226:../../libdaisy/src/hid/disp/display.h ****             {
 767              		.loc 3 226 40 is_stmt 0 view .LVU165
 768              	.LBE175:
 769              	.LBE174:
 229:../../libdaisy/src/hid/disp/display.h ****                 {
 230:../../libdaisy/src/hid/disp/display.h ****                     ((ChildType*)(this))->ChildType::DrawPixel(x, y, on);
 231:../../libdaisy/src/hid/disp/display.h ****                 }
 232:../../libdaisy/src/hid/disp/display.h ****             }
 233:../../libdaisy/src/hid/disp/display.h ****         }
ARM GAS  C:\Users\VINCIU~1\AppData\Local\Temp\cc9kCTNX.s 			page 26


 234:../../libdaisy/src/hid/disp/display.h ****         else
 235:../../libdaisy/src/hid/disp/display.h ****         {
 236:../../libdaisy/src/hid/disp/display.h ****             ((ChildType*)(this))->ChildType::DrawLine(x1, y1, x2, y1, on);
 237:../../libdaisy/src/hid/disp/display.h ****             ((ChildType*)(this))->ChildType::DrawLine(x2, y1, x2, y2, on);
 238:../../libdaisy/src/hid/disp/display.h ****             ((ChildType*)(this))->ChildType::DrawLine(x2, y2, x1, y2, on);
 239:../../libdaisy/src/hid/disp/display.h ****             ((ChildType*)(this))->ChildType::DrawLine(x1, y2, x1, y1, on);
 240:../../libdaisy/src/hid/disp/display.h ****         }
 241:../../libdaisy/src/hid/disp/display.h ****     }
 770              		.loc 3 241 5 view .LVU166
 771 0078 07B0     		add	sp, sp, #28
 772              		.cfi_remember_state
 773              		.cfi_def_cfa_offset 36
 774              		@ sp needed
 775 007a BDE8F08F 		pop	{r4, r5, r6, r7, r8, r9, r10, fp, pc}
 776              	.LVL56:
 777              	.L37:
 778              		.cfi_restore_state
 779              	.LBB314:
 780              	.LBB196:
 781              	.LBI196:
 181:../../libdaisy/src/hid/disp/display.h ****                   uint_fast8_t y1,
 782              		.loc 3 181 10 is_stmt 1 view .LVU167
 783              	.LBB197:
 187:../../libdaisy/src/hid/disp/display.h ****         int_fast16_t deltaY = abs((int_fast16_t)y2 - (int_fast16_t)y1);
 784              		.loc 3 187 52 is_stmt 0 view .LVU168
 785 007e A3EB0108 		sub	r8, r3, r1
 187:../../libdaisy/src/hid/disp/display.h ****         int_fast16_t deltaY = abs((int_fast16_t)y2 - (int_fast16_t)y1);
 786              		.loc 3 187 22 view .LVU169
 787 0082 B8F1000F 		cmp	r8, #0
 788 0086 B8BF     		it	lt
 789 0088 C8F10008 		rsblt	r8, r8, #0
 790              	.LVL57:
 189:../../libdaisy/src/hid/disp/display.h ****         int_fast16_t signY  = ((y1 < y2) ? 1 : -1);
 791              		.loc 3 189 42 view .LVU170
 792 008c 9942     		cmp	r1, r3
 793 008e C0F04E81 		bcc	.L45
 794              	.LVL58:
 795              	.LBB198:
 796              	.LBI198:
  41:../../libdaisy/src/hid/disp/oled_display.h ****     {
 797              		.loc 1 41 10 is_stmt 1 view .LVU171
 798              	.LBB199:
 799              	.LBI199:
 239:../../libdaisy/src/dev/oled_ssd130x.h ****     {
 800              		.loc 2 239 10 view .LVU172
 801              	.LBB200:
 241:../../libdaisy/src/dev/oled_ssd130x.h ****             return;
 802              		.loc 2 241 14 is_stmt 0 view .LVU173
 803 0092 7F2B     		cmp	r3, #127
 804              	.LBE200:
 805              	.LBE199:
 806              	.LBE198:
 189:../../libdaisy/src/hid/disp/display.h ****         int_fast16_t signY  = ((y1 < y2) ? 1 : -1);
 807              		.loc 3 189 42 view .LVU174
 808 0094 4FF0FF3A 		mov	r10, #-1
 809              	.LBB211:
 810              	.LBB207:
ARM GAS  C:\Users\VINCIU~1\AppData\Local\Temp\cc9kCTNX.s 			page 27


 811              	.LBB203:
 241:../../libdaisy/src/dev/oled_ssd130x.h ****             return;
 812              		.loc 2 241 14 view .LVU175
 813 0098 94BF     		ite	ls
 814 009a 0026     		movls	r6, #0
 815 009c 0126     		movhi	r6, #1
 241:../../libdaisy/src/dev/oled_ssd130x.h ****             return;
 816              		.loc 2 241 28 view .LVU176
 817 009e 3F2A     		cmp	r2, #63
 241:../../libdaisy/src/dev/oled_ssd130x.h ****             return;
 818              		.loc 2 241 14 view .LVU177
 819 00a0 0096     		str	r6, [sp]
 241:../../libdaisy/src/dev/oled_ssd130x.h ****             return;
 820              		.loc 2 241 28 view .LVU178
 821 00a2 94BF     		ite	ls
 822 00a4 0027     		movls	r7, #0
 823 00a6 0127     		movhi	r7, #1
 824 00a8 0397     		str	r7, [sp, #12]
 241:../../libdaisy/src/dev/oled_ssd130x.h ****             return;
 825              		.loc 2 241 9 view .LVU179
 826 00aa A6B9     		cbnz	r6, .L46
 827 00ac 9FB9     		cbnz	r7, .L46
 828              	.LVL59:
 829              	.L87:
 244:../../libdaisy/src/dev/oled_ssd130x.h ****         else
 830              		.loc 2 244 28 view .LVU180
 831 00ae D608     		lsrs	r6, r2, #3
 244:../../libdaisy/src/dev/oled_ssd130x.h ****         else
 832              		.loc 2 244 54 view .LVU181
 833 00b0 02F0070C 		and	ip, r2, #7
 244:../../libdaisy/src/dev/oled_ssd130x.h ****         else
 834              		.loc 2 244 48 view .LVU182
 835 00b4 0127     		movs	r7, #1
 244:../../libdaisy/src/dev/oled_ssd130x.h ****         else
 836              		.loc 2 244 42 view .LVU183
 837 00b6 03EBC616 		add	r6, r3, r6, lsl #7
 838 00ba 0644     		add	r6, r6, r0
 243:../../libdaisy/src/dev/oled_ssd130x.h ****             buffer_[x + (y / 8) * width] |= (1 << (y % 8));
 839              		.loc 2 243 9 view .LVU184
 840 00bc 002D     		cmp	r5, #0
 841 00be 00F09581 		beq	.L47
 244:../../libdaisy/src/dev/oled_ssd130x.h ****         else
 842              		.loc 2 244 48 view .LVU185
 843 00c2 07FA0CF7 		lsl	r7, r7, ip
 244:../../libdaisy/src/dev/oled_ssd130x.h ****         else
 844              		.loc 2 244 42 view .LVU186
 845 00c6 96F814C0 		ldrb	ip, [r6, #20]	@ zero_extendqisi2
 846 00ca 47EA0C07 		orr	r7, r7, ip
 847 00ce 3775     		strb	r7, [r6, #20]
 848 00d0 0026     		movs	r6, #0
 849 00d2 0396     		str	r6, [sp, #12]
 850 00d4 0096     		str	r6, [sp]
 851              	.L46:
 852              	.LVL60:
 244:../../libdaisy/src/dev/oled_ssd130x.h ****         else
 853              		.loc 2 244 42 view .LVU187
 854              	.LBE203:
ARM GAS  C:\Users\VINCIU~1\AppData\Local\Temp\cc9kCTNX.s 			page 28


 855              	.LBE207:
 856              	.LBE211:
 199:../../libdaisy/src/hid/disp/display.h ****         {
 857              		.loc 3 199 26 is_stmt 1 view .LVU188
 858 00d6 9942     		cmp	r1, r3
 859 00d8 00F09881 		beq	.L128
 860              	.L49:
 861              	.LVL61:
 187:../../libdaisy/src/hid/disp/display.h ****         int_fast16_t deltaY = abs((int_fast16_t)y2 - (int_fast16_t)y1);
 862              		.loc 3 187 22 is_stmt 0 view .LVU189
 863 00dc 4646     		mov	r6, r8
 864 00de 9446     		mov	ip, r2
 865 00e0 8E46     		mov	lr, r1
 866              	.LVL62:
 867              	.L51:
 868              	.LBB212:
 869              	.LBI212:
  41:../../libdaisy/src/hid/disp/oled_display.h ****     {
 870              		.loc 1 41 10 is_stmt 1 view .LVU190
 871              	.LBB213:
 872              	.LBI213:
 239:../../libdaisy/src/dev/oled_ssd130x.h ****     {
 873              		.loc 2 239 10 view .LVU191
 874              	.LBB214:
 241:../../libdaisy/src/dev/oled_ssd130x.h ****             return;
 875              		.loc 2 241 9 is_stmt 0 view .LVU192
 876 00e2 BEF17F0F 		cmp	lr, #127
 877 00e6 16D8     		bhi	.L52
 878 00e8 BCF13F0F 		cmp	ip, #63
 879 00ec 13D8     		bhi	.L52
 244:../../libdaisy/src/dev/oled_ssd130x.h ****         else
 880              		.loc 2 244 28 view .LVU193
 881 00ee 4FEADC07 		lsr	r7, ip, #3
 244:../../libdaisy/src/dev/oled_ssd130x.h ****         else
 882              		.loc 2 244 54 view .LVU194
 883 00f2 0CF0070B 		and	fp, ip, #7
 244:../../libdaisy/src/dev/oled_ssd130x.h ****         else
 884              		.loc 2 244 48 view .LVU195
 885 00f6 4FF00109 		mov	r9, #1
 244:../../libdaisy/src/dev/oled_ssd130x.h ****         else
 886              		.loc 2 244 42 view .LVU196
 887 00fa 0EEBC717 		add	r7, lr, r7, lsl #7
 888 00fe 0744     		add	r7, r7, r0
 243:../../libdaisy/src/dev/oled_ssd130x.h ****             buffer_[x + (y / 8) * width] |= (1 << (y % 8));
 889              		.loc 2 243 9 view .LVU197
 890 0100 002D     		cmp	r5, #0
 891 0102 00F03981 		beq	.L53
 244:../../libdaisy/src/dev/oled_ssd130x.h ****         else
 892              		.loc 2 244 48 view .LVU198
 893 0106 09FA0BF9 		lsl	r9, r9, fp
 244:../../libdaisy/src/dev/oled_ssd130x.h ****         else
 894              		.loc 2 244 42 view .LVU199
 895 010a 97F814B0 		ldrb	fp, [r7, #20]	@ zero_extendqisi2
 896 010e 49EA0B09 		orr	r9, r9, fp
 897 0112 87F81490 		strb	r9, [r7, #20]
 898              	.L52:
 899              	.LVL63:
ARM GAS  C:\Users\VINCIU~1\AppData\Local\Temp\cc9kCTNX.s 			page 29


 244:../../libdaisy/src/dev/oled_ssd130x.h ****         else
 900              		.loc 2 244 42 view .LVU200
 901              	.LBE214:
 902              	.LBE213:
 903              	.LBE212:
 203:../../libdaisy/src/hid/disp/display.h ****             {
 904              		.loc 3 203 13 view .LVU201
 905 0116 7700     		lsls	r7, r6, #1
 906              	.LVL64:
 206:../../libdaisy/src/hid/disp/display.h ****             }
 907              		.loc 3 206 20 view .LVU202
 908 0118 18BF     		it	ne
 909 011a D644     		addne	lr, lr, r10
 910              	.LVL65:
 209:../../libdaisy/src/hid/disp/display.h ****             {
 911              		.loc 3 209 13 view .LVU203
 912 011c B845     		cmp	r8, r7
 913 011e 02DD     		ble	.L55
 211:../../libdaisy/src/hid/disp/display.h ****                 y1 += signY;
 914              		.loc 3 211 23 view .LVU204
 915 0120 4644     		add	r6, r6, r8
 916              	.LVL66:
 212:../../libdaisy/src/hid/disp/display.h ****             }
 917              		.loc 3 212 20 view .LVU205
 918 0122 0CF1FF3C 		add	ip, ip, #-1
 919              	.LVL67:
 920              	.L55:
 199:../../libdaisy/src/hid/disp/display.h ****         {
 921              		.loc 3 199 26 is_stmt 1 view .LVU206
 922 0126 7345     		cmp	r3, lr
 923 0128 DBD1     		bne	.L51
 199:../../libdaisy/src/hid/disp/display.h ****         {
 924              		.loc 3 199 26 is_stmt 0 view .LVU207
 925 012a 6245     		cmp	r2, ip
 926 012c D9D1     		bne	.L51
 927 012e 0026     		movs	r6, #0
 928              	.LVL68:
 199:../../libdaisy/src/hid/disp/display.h ****         {
 929              		.loc 3 199 26 view .LVU208
 930 0130 0496     		str	r6, [sp, #16]
 931              	.LVL69:
 932              	.L48:
 199:../../libdaisy/src/hid/disp/display.h ****         {
 933              		.loc 3 199 26 view .LVU209
 934              	.LBE197:
 935              	.LBE196:
 936              	.LBB227:
 937              	.LBI227:
 181:../../libdaisy/src/hid/disp/display.h ****                   uint_fast8_t y1,
 938              		.loc 3 181 10 is_stmt 1 view .LVU210
 939              	.LBB228:
 188:../../libdaisy/src/hid/disp/display.h ****         int_fast16_t signX  = ((x1 < x2) ? 1 : -1);
 940              		.loc 3 188 52 is_stmt 0 view .LVU211
 941 0132 A4EB0209 		sub	r9, r4, r2
 188:../../libdaisy/src/hid/disp/display.h ****         int_fast16_t signX  = ((x1 < x2) ? 1 : -1);
 942              		.loc 3 188 22 view .LVU212
 943 0136 B9F1000F 		cmp	r9, #0
ARM GAS  C:\Users\VINCIU~1\AppData\Local\Temp\cc9kCTNX.s 			page 30


 944 013a B8BF     		it	lt
 945 013c C9F10009 		rsblt	r9, r9, #0
 946              	.LVL70:
 947              	.LBB229:
 948              	.LBB230:
 949              	.LBB231:
 241:../../libdaisy/src/dev/oled_ssd130x.h ****             return;
 950              		.loc 2 241 28 view .LVU213
 951 0140 3F2C     		cmp	r4, #63
 952 0142 94BF     		ite	ls
 953 0144 0026     		movls	r6, #0
 954 0146 0126     		movhi	r6, #1
 955              	.LBE231:
 956              	.LBE230:
 957              	.LBE229:
 190:../../libdaisy/src/hid/disp/display.h ****         int_fast16_t error  = deltaX - deltaY;
 958              		.loc 3 190 42 view .LVU214
 959 0148 A242     		cmp	r2, r4
 191:../../libdaisy/src/hid/disp/display.h ****         int_fast16_t error2;
 960              		.loc 3 191 22 view .LVU215
 961 014a C9F10008 		rsb	r8, r9, #0
 962              	.LBB244:
 963              	.LBB239:
 964              	.LBB234:
 241:../../libdaisy/src/dev/oled_ssd130x.h ****             return;
 965              		.loc 2 241 28 view .LVU216
 966 014e 0296     		str	r6, [sp, #8]
 967              	.LBE234:
 968              	.LBE239:
 969              	.LBE244:
 190:../../libdaisy/src/hid/disp/display.h ****         int_fast16_t error  = deltaX - deltaY;
 970              		.loc 3 190 42 view .LVU217
 971 0150 C0F02481 		bcc	.L56
 972              	.LVL71:
 973              	.LBB245:
 974              	.LBI229:
  41:../../libdaisy/src/hid/disp/oled_display.h ****     {
 975              		.loc 1 41 10 is_stmt 1 view .LVU218
 976              	.LBB240:
 977              	.LBI230:
 239:../../libdaisy/src/dev/oled_ssd130x.h ****     {
 978              		.loc 2 239 10 view .LVU219
 979              	.LBB235:
 241:../../libdaisy/src/dev/oled_ssd130x.h ****             return;
 980              		.loc 2 241 9 is_stmt 0 view .LVU220
 981 0154 002E     		cmp	r6, #0
 982 0156 40F05281 		bne	.L91
 983 015a 009E     		ldr	r6, [sp]
 984 015c 002E     		cmp	r6, #0
 985 015e 40F04E81 		bne	.L91
 986              	.LBE235:
 987              	.LBE240:
 988              	.LBE245:
 190:../../libdaisy/src/hid/disp/display.h ****         int_fast16_t error  = deltaX - deltaY;
 989              		.loc 3 190 42 view .LVU221
 990 0162 4FF0FF36 		mov	r6, #-1
 991 0166 0096     		str	r6, [sp]
ARM GAS  C:\Users\VINCIU~1\AppData\Local\Temp\cc9kCTNX.s 			page 31


 992              	.LBB246:
 993              	.LBB241:
 994              	.LBB236:
 244:../../libdaisy/src/dev/oled_ssd130x.h ****         else
 995              		.loc 2 244 28 view .LVU222
 996 0168 E608     		lsrs	r6, r4, #3
 244:../../libdaisy/src/dev/oled_ssd130x.h ****         else
 997              		.loc 2 244 42 view .LVU223
 998 016a 03EBC616 		add	r6, r3, r6, lsl #7
 999 016e 0644     		add	r6, r6, r0
 243:../../libdaisy/src/dev/oled_ssd130x.h ****             buffer_[x + (y / 8) * width] |= (1 << (y % 8));
 1000              		.loc 2 243 9 view .LVU224
 1001 0170 002D     		cmp	r5, #0
 1002 0172 00F01F81 		beq	.L58
 1003              	.LVL72:
 1004              	.L130:
 244:../../libdaisy/src/dev/oled_ssd130x.h ****         else
 1005              		.loc 2 244 48 view .LVU225
 1006 0176 4FF0010C 		mov	ip, #1
 244:../../libdaisy/src/dev/oled_ssd130x.h ****         else
 1007              		.loc 2 244 54 view .LVU226
 1008 017a 04F00707 		and	r7, r4, #7
 244:../../libdaisy/src/dev/oled_ssd130x.h ****         else
 1009              		.loc 2 244 48 view .LVU227
 1010 017e 0CFA07F7 		lsl	r7, ip, r7
 244:../../libdaisy/src/dev/oled_ssd130x.h ****         else
 1011              		.loc 2 244 42 view .LVU228
 1012 0182 96F814C0 		ldrb	ip, [r6, #20]	@ zero_extendqisi2
 1013 0186 47EA0C07 		orr	r7, r7, ip
 1014 018a 3775     		strb	r7, [r6, #20]
 1015 018c 0026     		movs	r6, #0
 1016 018e 0296     		str	r6, [sp, #8]
 1017              	.L57:
 1018              	.LVL73:
 244:../../libdaisy/src/dev/oled_ssd130x.h ****         else
 1019              		.loc 2 244 42 view .LVU229
 1020              	.LBE236:
 1021              	.LBE241:
 1022              	.LBE246:
 199:../../libdaisy/src/hid/disp/display.h ****         {
 1023              		.loc 3 199 26 is_stmt 1 view .LVU230
 1024 0190 A242     		cmp	r2, r4
 1025 0192 00F03E81 		beq	.L129
 1026              	.L60:
 1027              	.LVL74:
 190:../../libdaisy/src/hid/disp/display.h ****         int_fast16_t error  = deltaX - deltaY;
 1028              		.loc 3 190 42 is_stmt 0 view .LVU231
 1029 0196 C446     		mov	ip, r8
 1030 0198 1646     		mov	r6, r2
 1031 019a 1F46     		mov	r7, r3
 1032 019c 0592     		str	r2, [sp, #20]
 1033              	.LVL75:
 1034              	.L62:
 1035              	.LBB247:
 1036              	.LBI247:
  41:../../libdaisy/src/hid/disp/oled_display.h ****     {
 1037              		.loc 1 41 10 is_stmt 1 view .LVU232
ARM GAS  C:\Users\VINCIU~1\AppData\Local\Temp\cc9kCTNX.s 			page 32


 1038              	.LBB248:
 1039              	.LBI248:
 239:../../libdaisy/src/dev/oled_ssd130x.h ****     {
 1040              		.loc 2 239 10 view .LVU233
 1041              	.LBB249:
 241:../../libdaisy/src/dev/oled_ssd130x.h ****             return;
 1042              		.loc 2 241 9 is_stmt 0 view .LVU234
 1043 019e 7F2F     		cmp	r7, #127
 1044 01a0 15D8     		bhi	.L63
 1045 01a2 3F2E     		cmp	r6, #63
 1046 01a4 13D8     		bhi	.L63
 244:../../libdaisy/src/dev/oled_ssd130x.h ****         else
 1047              		.loc 2 244 28 view .LVU235
 1048 01a6 4FEAD60E 		lsr	lr, r6, #3
 244:../../libdaisy/src/dev/oled_ssd130x.h ****         else
 1049              		.loc 2 244 54 view .LVU236
 1050 01aa 06F0070B 		and	fp, r6, #7
 244:../../libdaisy/src/dev/oled_ssd130x.h ****         else
 1051              		.loc 2 244 48 view .LVU237
 1052 01ae 4FF0010A 		mov	r10, #1
 244:../../libdaisy/src/dev/oled_ssd130x.h ****         else
 1053              		.loc 2 244 42 view .LVU238
 1054 01b2 07EBCE1E 		add	lr, r7, lr, lsl #7
 1055 01b6 8644     		add	lr, lr, r0
 243:../../libdaisy/src/dev/oled_ssd130x.h ****             buffer_[x + (y / 8) * width] |= (1 << (y % 8));
 1056              		.loc 2 243 9 view .LVU239
 1057 01b8 002D     		cmp	r5, #0
 1058 01ba 00F0E680 		beq	.L64
 244:../../libdaisy/src/dev/oled_ssd130x.h ****         else
 1059              		.loc 2 244 48 view .LVU240
 1060 01be 0AFA0BFA 		lsl	r10, r10, fp
 244:../../libdaisy/src/dev/oled_ssd130x.h ****         else
 1061              		.loc 2 244 42 view .LVU241
 1062 01c2 9EF814B0 		ldrb	fp, [lr, #20]	@ zero_extendqisi2
 1063 01c6 4AEA0B0A 		orr	r10, r10, fp
 1064 01ca 8EF814A0 		strb	r10, [lr, #20]
 1065              	.L63:
 1066              	.LVL76:
 244:../../libdaisy/src/dev/oled_ssd130x.h ****         else
 1067              		.loc 2 244 42 view .LVU242
 1068              	.LBE249:
 1069              	.LBE248:
 1070              	.LBE247:
 203:../../libdaisy/src/hid/disp/display.h ****             {
 1071              		.loc 3 203 13 view .LVU243
 1072 01ce B8EB4C0F 		cmp	r8, ip, lsl #1
 202:../../libdaisy/src/hid/disp/display.h ****             if(error2 > -deltaY)
 1073              		.loc 3 202 20 view .LVU244
 1074 01d2 4FEA4C0E 		lsl	lr, ip, #1
 1075              	.LVL77:
 203:../../libdaisy/src/hid/disp/display.h ****             {
 1076              		.loc 3 203 13 view .LVU245
 1077 01d6 02DA     		bge	.L65
 205:../../libdaisy/src/hid/disp/display.h ****                 x1 += signX;
 1078              		.loc 3 205 23 view .LVU246
 1079 01d8 ACEB090C 		sub	ip, ip, r9
 1080              	.LVL78:
ARM GAS  C:\Users\VINCIU~1\AppData\Local\Temp\cc9kCTNX.s 			page 33


 206:../../libdaisy/src/hid/disp/display.h ****             }
 1081              		.loc 3 206 20 view .LVU247
 1082 01dc 013F     		subs	r7, r7, #1
 1083              	.LVL79:
 1084              	.L65:
 209:../../libdaisy/src/hid/disp/display.h ****             {
 1085              		.loc 3 209 13 view .LVU248
 1086 01de BEF1000F 		cmp	lr, #0
 1087 01e2 01D0     		beq	.L66
 212:../../libdaisy/src/hid/disp/display.h ****             }
 1088              		.loc 3 212 20 view .LVU249
 1089 01e4 009A     		ldr	r2, [sp]
 1090 01e6 1644     		add	r6, r6, r2
 1091              	.LVL80:
 1092              	.L66:
 199:../../libdaisy/src/hid/disp/display.h ****         {
 1093              		.loc 3 199 26 is_stmt 1 view .LVU250
 1094 01e8 BB42     		cmp	r3, r7
 1095 01ea D8D1     		bne	.L62
 199:../../libdaisy/src/hid/disp/display.h ****         {
 1096              		.loc 3 199 26 is_stmt 0 view .LVU251
 1097 01ec B442     		cmp	r4, r6
 1098 01ee D6D1     		bne	.L62
 1099 01f0 059A     		ldr	r2, [sp, #20]
 1100              	.LVL81:
 1101              	.L59:
 199:../../libdaisy/src/hid/disp/display.h ****         {
 1102              		.loc 3 199 26 view .LVU252
 1103              	.LBE228:
 1104              	.LBE227:
 1105              	.LBB260:
 1106              	.LBI260:
 181:../../libdaisy/src/hid/disp/display.h ****                   uint_fast8_t y1,
 1107              		.loc 3 181 10 is_stmt 1 view .LVU253
 1108              	.LBB261:
 187:../../libdaisy/src/hid/disp/display.h ****         int_fast16_t deltaY = abs((int_fast16_t)y2 - (int_fast16_t)y1);
 1109              		.loc 3 187 52 is_stmt 0 view .LVU254
 1110 01f2 A1EB030E 		sub	lr, r1, r3
 187:../../libdaisy/src/hid/disp/display.h ****         int_fast16_t deltaY = abs((int_fast16_t)y2 - (int_fast16_t)y1);
 1111              		.loc 3 187 22 view .LVU255
 1112 01f6 BEF1000F 		cmp	lr, #0
 1113 01fa B8BF     		it	lt
 1114 01fc CEF1000E 		rsblt	lr, lr, #0
 1115              	.LVL82:
 1116              	.LBB262:
 1117              	.LBB263:
 1118              	.LBB264:
 241:../../libdaisy/src/dev/oled_ssd130x.h ****             return;
 1119              		.loc 2 241 14 view .LVU256
 1120 0200 7F29     		cmp	r1, #127
 1121 0202 94BF     		ite	ls
 1122 0204 4FF0000A 		movls	r10, #0
 1123 0208 4FF0010A 		movhi	r10, #1
 1124              	.LBE264:
 1125              	.LBE263:
 1126              	.LBE262:
 189:../../libdaisy/src/hid/disp/display.h ****         int_fast16_t signY  = ((y1 < y2) ? 1 : -1);
ARM GAS  C:\Users\VINCIU~1\AppData\Local\Temp\cc9kCTNX.s 			page 34


 1127              		.loc 3 189 42 view .LVU257
 1128 020c 9942     		cmp	r1, r3
 1129 020e 8CBF     		ite	hi
 1130 0210 4FF00109 		movhi	r9, #1
 1131 0214 4FF0FF39 		movls	r9, #-1
 1132              	.LVL83:
 1133              	.LBB271:
 1134              	.LBI262:
  41:../../libdaisy/src/hid/disp/oled_display.h ****     {
 1135              		.loc 1 41 10 is_stmt 1 view .LVU258
 1136              	.LBB269:
 1137              	.LBI263:
 239:../../libdaisy/src/dev/oled_ssd130x.h ****     {
 1138              		.loc 2 239 10 view .LVU259
 1139              	.LBB267:
 241:../../libdaisy/src/dev/oled_ssd130x.h ****             return;
 1140              		.loc 2 241 9 is_stmt 0 view .LVU260
 1141 0218 BAF1000F 		cmp	r10, #0
 1142 021c 13D1     		bne	.L68
 1143 021e 029E     		ldr	r6, [sp, #8]
 1144 0220 8EB9     		cbnz	r6, .L68
 244:../../libdaisy/src/dev/oled_ssd130x.h ****         else
 1145              		.loc 2 244 28 view .LVU261
 1146 0222 E608     		lsrs	r6, r4, #3
 244:../../libdaisy/src/dev/oled_ssd130x.h ****         else
 1147              		.loc 2 244 42 view .LVU262
 1148 0224 01EBC616 		add	r6, r1, r6, lsl #7
 1149 0228 0644     		add	r6, r6, r0
 243:../../libdaisy/src/dev/oled_ssd130x.h ****             buffer_[x + (y / 8) * width] |= (1 << (y % 8));
 1150              		.loc 2 243 9 view .LVU263
 1151 022a 002D     		cmp	r5, #0
 1152 022c 00F0D480 		beq	.L69
 244:../../libdaisy/src/dev/oled_ssd130x.h ****         else
 1153              		.loc 2 244 48 view .LVU264
 1154 0230 4FF0010C 		mov	ip, #1
 244:../../libdaisy/src/dev/oled_ssd130x.h ****         else
 1155              		.loc 2 244 54 view .LVU265
 1156 0234 04F00707 		and	r7, r4, #7
 244:../../libdaisy/src/dev/oled_ssd130x.h ****         else
 1157              		.loc 2 244 48 view .LVU266
 1158 0238 0CFA07F7 		lsl	r7, ip, r7
 244:../../libdaisy/src/dev/oled_ssd130x.h ****         else
 1159              		.loc 2 244 42 view .LVU267
 1160 023c 96F814C0 		ldrb	ip, [r6, #20]	@ zero_extendqisi2
 1161 0240 47EA0C07 		orr	r7, r7, ip
 1162 0244 3775     		strb	r7, [r6, #20]
 1163              	.L68:
 1164              	.LVL84:
 244:../../libdaisy/src/dev/oled_ssd130x.h ****         else
 1165              		.loc 2 244 42 view .LVU268
 1166              	.LBE267:
 1167              	.LBE269:
 1168              	.LBE271:
 199:../../libdaisy/src/hid/disp/display.h ****         {
 1169              		.loc 3 199 26 is_stmt 1 view .LVU269
 1170 0246 049E     		ldr	r6, [sp, #16]
 1171 0248 26BB     		cbnz	r6, .L70
ARM GAS  C:\Users\VINCIU~1\AppData\Local\Temp\cc9kCTNX.s 			page 35


 187:../../libdaisy/src/hid/disp/display.h ****         int_fast16_t deltaY = abs((int_fast16_t)y2 - (int_fast16_t)y1);
 1172              		.loc 3 187 22 is_stmt 0 view .LVU270
 1173 024a 7746     		mov	r7, lr
 199:../../libdaisy/src/hid/disp/display.h ****         {
 1174              		.loc 3 199 26 view .LVU271
 1175 024c 2646     		mov	r6, r4
 1176              	.LVL85:
 1177              	.L71:
 1178              	.LBB272:
 1179              	.LBI272:
  41:../../libdaisy/src/hid/disp/oled_display.h ****     {
 1180              		.loc 1 41 10 is_stmt 1 view .LVU272
 1181              	.LBB273:
 1182              	.LBI273:
 239:../../libdaisy/src/dev/oled_ssd130x.h ****     {
 1183              		.loc 2 239 10 view .LVU273
 1184              	.LBB274:
 241:../../libdaisy/src/dev/oled_ssd130x.h ****             return;
 1185              		.loc 2 241 9 is_stmt 0 view .LVU274
 1186 024e 7F2B     		cmp	r3, #127
 1187 0250 14D8     		bhi	.L73
 241:../../libdaisy/src/dev/oled_ssd130x.h ****             return;
 1188              		.loc 2 241 9 view .LVU275
 1189 0252 3F2E     		cmp	r6, #63
 1190 0254 12D8     		bhi	.L73
 244:../../libdaisy/src/dev/oled_ssd130x.h ****         else
 1191              		.loc 2 244 28 view .LVU276
 1192 0256 4FEAD60C 		lsr	ip, r6, #3
 244:../../libdaisy/src/dev/oled_ssd130x.h ****         else
 1193              		.loc 2 244 54 view .LVU277
 1194 025a 06F0070B 		and	fp, r6, #7
 244:../../libdaisy/src/dev/oled_ssd130x.h ****         else
 1195              		.loc 2 244 48 view .LVU278
 1196 025e 4FF00108 		mov	r8, #1
 244:../../libdaisy/src/dev/oled_ssd130x.h ****         else
 1197              		.loc 2 244 42 view .LVU279
 1198 0262 03EBCC1C 		add	ip, r3, ip, lsl #7
 1199 0266 8444     		add	ip, ip, r0
 243:../../libdaisy/src/dev/oled_ssd130x.h ****             buffer_[x + (y / 8) * width] |= (1 << (y % 8));
 1200              		.loc 2 243 9 view .LVU280
 1201 0268 002D     		cmp	r5, #0
 1202 026a 73D0     		beq	.L74
 244:../../libdaisy/src/dev/oled_ssd130x.h ****         else
 1203              		.loc 2 244 48 view .LVU281
 1204 026c 08FA0BF8 		lsl	r8, r8, fp
 244:../../libdaisy/src/dev/oled_ssd130x.h ****         else
 1205              		.loc 2 244 42 view .LVU282
 1206 0270 9CF814B0 		ldrb	fp, [ip, #20]	@ zero_extendqisi2
 1207 0274 48EA0B08 		orr	r8, r8, fp
 1208 0278 8CF81480 		strb	r8, [ip, #20]
 1209              	.L73:
 1210              	.LVL86:
 244:../../libdaisy/src/dev/oled_ssd130x.h ****         else
 1211              		.loc 2 244 42 view .LVU283
 1212              	.LBE274:
 1213              	.LBE273:
 1214              	.LBE272:
ARM GAS  C:\Users\VINCIU~1\AppData\Local\Temp\cc9kCTNX.s 			page 36


 203:../../libdaisy/src/hid/disp/display.h ****             {
 1215              		.loc 3 203 13 view .LVU284
 1216 027c 5FEA470C 		lsls	ip, r7, #1
 1217              	.LVL87:
 206:../../libdaisy/src/hid/disp/display.h ****             }
 1218              		.loc 3 206 20 view .LVU285
 1219 0280 18BF     		it	ne
 1220 0282 4B44     		addne	r3, r3, r9
 1221              	.LVL88:
 209:../../libdaisy/src/hid/disp/display.h ****             {
 1222              		.loc 3 209 13 view .LVU286
 1223 0284 E645     		cmp	lr, ip
 1224 0286 01DD     		ble	.L76
 211:../../libdaisy/src/hid/disp/display.h ****                 y1 += signY;
 1225              		.loc 3 211 23 view .LVU287
 1226 0288 7744     		add	r7, r7, lr
 1227              	.LVL89:
 212:../../libdaisy/src/hid/disp/display.h ****             }
 1228              		.loc 3 212 20 view .LVU288
 1229 028a 013E     		subs	r6, r6, #1
 1230              	.LVL90:
 1231              	.L76:
 199:../../libdaisy/src/hid/disp/display.h ****         {
 1232              		.loc 3 199 26 is_stmt 1 view .LVU289
 1233 028c 9942     		cmp	r1, r3
 1234 028e DED1     		bne	.L71
 199:../../libdaisy/src/hid/disp/display.h ****         {
 1235              		.loc 3 199 26 is_stmt 0 view .LVU290
 1236 0290 B442     		cmp	r4, r6
 1237 0292 DCD1     		bne	.L71
 1238              	.LVL91:
 1239              	.L70:
 199:../../libdaisy/src/hid/disp/display.h ****         {
 1240              		.loc 3 199 26 view .LVU291
 1241              	.LBE261:
 1242              	.LBE260:
 1243              	.LBB283:
 1244              	.LBI283:
 181:../../libdaisy/src/hid/disp/display.h ****                   uint_fast8_t y1,
 1245              		.loc 3 181 10 is_stmt 1 view .LVU292
 1246              	.LBB284:
 188:../../libdaisy/src/hid/disp/display.h ****         int_fast16_t signX  = ((x1 < x2) ? 1 : -1);
 1247              		.loc 3 188 52 is_stmt 0 view .LVU293
 1248 0294 A2EB040E 		sub	lr, r2, r4
 188:../../libdaisy/src/hid/disp/display.h ****         int_fast16_t signX  = ((x1 < x2) ? 1 : -1);
 1249              		.loc 3 188 22 view .LVU294
 1250 0298 BEF1000F 		cmp	lr, #0
 1251 029c B8BF     		it	lt
 1252 029e CEF1000E 		rsblt	lr, lr, #0
 1253              	.LVL92:
 190:../../libdaisy/src/hid/disp/display.h ****         int_fast16_t error  = deltaX - deltaY;
 1254              		.loc 3 190 42 view .LVU295
 1255 02a2 A242     		cmp	r2, r4
 1256 02a4 8CBF     		ite	hi
 1257 02a6 4FF00108 		movhi	r8, #1
 1258 02aa 4FF0FF38 		movls	r8, #-1
 1259              	.LVL93:
ARM GAS  C:\Users\VINCIU~1\AppData\Local\Temp\cc9kCTNX.s 			page 37


 191:../../libdaisy/src/hid/disp/display.h ****         int_fast16_t error2;
 1260              		.loc 3 191 22 view .LVU296
 1261 02ae CEF1000C 		rsb	ip, lr, #0
 1262              	.LVL94:
 1263              	.LBB285:
 1264              	.LBI285:
  41:../../libdaisy/src/hid/disp/oled_display.h ****     {
 1265              		.loc 1 41 10 is_stmt 1 view .LVU297
 1266              	.LBB286:
 1267              	.LBI286:
 239:../../libdaisy/src/dev/oled_ssd130x.h ****     {
 1268              		.loc 2 239 10 view .LVU298
 1269              	.LBB287:
 241:../../libdaisy/src/dev/oled_ssd130x.h ****             return;
 1270              		.loc 2 241 9 is_stmt 0 view .LVU299
 1271 02b2 BAF1000F 		cmp	r10, #0
 1272 02b6 0ED1     		bne	.L78
 1273 02b8 039B     		ldr	r3, [sp, #12]
 1274 02ba 63B9     		cbnz	r3, .L78
 244:../../libdaisy/src/dev/oled_ssd130x.h ****         else
 1275              		.loc 2 244 28 view .LVU300
 1276 02bc D308     		lsrs	r3, r2, #3
 244:../../libdaisy/src/dev/oled_ssd130x.h ****         else
 1277              		.loc 2 244 54 view .LVU301
 1278 02be 02F00707 		and	r7, r2, #7
 244:../../libdaisy/src/dev/oled_ssd130x.h ****         else
 1279              		.loc 2 244 48 view .LVU302
 1280 02c2 0126     		movs	r6, #1
 244:../../libdaisy/src/dev/oled_ssd130x.h ****         else
 1281              		.loc 2 244 42 view .LVU303
 1282 02c4 01EBC313 		add	r3, r1, r3, lsl #7
 1283 02c8 0344     		add	r3, r3, r0
 243:../../libdaisy/src/dev/oled_ssd130x.h ****             buffer_[x + (y / 8) * width] |= (1 << (y % 8));
 1284              		.loc 2 243 9 view .LVU304
 1285 02ca 002D     		cmp	r5, #0
 1286 02cc 7DD0     		beq	.L79
 244:../../libdaisy/src/dev/oled_ssd130x.h ****         else
 1287              		.loc 2 244 48 view .LVU305
 1288 02ce BE40     		lsls	r6, r6, r7
 244:../../libdaisy/src/dev/oled_ssd130x.h ****         else
 1289              		.loc 2 244 42 view .LVU306
 1290 02d0 1F7D     		ldrb	r7, [r3, #20]	@ zero_extendqisi2
 1291 02d2 3E43     		orrs	r6, r6, r7
 1292 02d4 1E75     		strb	r6, [r3, #20]
 1293              	.L78:
 1294              	.LVL95:
 244:../../libdaisy/src/dev/oled_ssd130x.h ****         else
 1295              		.loc 2 244 42 view .LVU307
 1296              	.LBE287:
 1297              	.LBE286:
 1298              	.LBE285:
 199:../../libdaisy/src/hid/disp/display.h ****         {
 1299              		.loc 3 199 26 is_stmt 1 view .LVU308
 1300 02d6 019B     		ldr	r3, [sp, #4]
 1301 02d8 002B     		cmp	r3, #0
 1302 02da 7FF4CDAE 		bne	.L36
 1303 02de 6646     		mov	r6, ip
ARM GAS  C:\Users\VINCIU~1\AppData\Local\Temp\cc9kCTNX.s 			page 38


 1304 02e0 0B46     		mov	r3, r1
 1305              	.LVL96:
 1306              	.L80:
 1307              	.LBB292:
 1308              	.LBI292:
  41:../../libdaisy/src/hid/disp/oled_display.h ****     {
 1309              		.loc 1 41 10 view .LVU309
 1310              	.LBB293:
 1311              	.LBI293:
 239:../../libdaisy/src/dev/oled_ssd130x.h ****     {
 1312              		.loc 2 239 10 view .LVU310
 1313              	.LBB294:
 241:../../libdaisy/src/dev/oled_ssd130x.h ****             return;
 1314              		.loc 2 241 9 is_stmt 0 view .LVU311
 1315 02e2 7F2B     		cmp	r3, #127
 1316 02e4 12D8     		bhi	.L82
 241:../../libdaisy/src/dev/oled_ssd130x.h ****             return;
 1317              		.loc 2 241 9 view .LVU312
 1318 02e6 3F2C     		cmp	r4, #63
 1319 02e8 10D8     		bhi	.L82
 244:../../libdaisy/src/dev/oled_ssd130x.h ****         else
 1320              		.loc 2 244 28 view .LVU313
 1321 02ea E708     		lsrs	r7, r4, #3
 244:../../libdaisy/src/dev/oled_ssd130x.h ****         else
 1322              		.loc 2 244 54 view .LVU314
 1323 02ec 04F0070A 		and	r10, r4, #7
 244:../../libdaisy/src/dev/oled_ssd130x.h ****         else
 1324              		.loc 2 244 48 view .LVU315
 1325 02f0 4FF00109 		mov	r9, #1
 244:../../libdaisy/src/dev/oled_ssd130x.h ****         else
 1326              		.loc 2 244 42 view .LVU316
 1327 02f4 03EBC717 		add	r7, r3, r7, lsl #7
 1328 02f8 0744     		add	r7, r7, r0
 243:../../libdaisy/src/dev/oled_ssd130x.h ****             buffer_[x + (y / 8) * width] |= (1 << (y % 8));
 1329              		.loc 2 243 9 view .LVU317
 1330 02fa A5B3     		cbz	r5, .L83
 244:../../libdaisy/src/dev/oled_ssd130x.h ****         else
 1331              		.loc 2 244 48 view .LVU318
 1332 02fc 09FA0AF9 		lsl	r9, r9, r10
 244:../../libdaisy/src/dev/oled_ssd130x.h ****         else
 1333              		.loc 2 244 42 view .LVU319
 1334 0300 97F814A0 		ldrb	r10, [r7, #20]	@ zero_extendqisi2
 1335 0304 49EA0A09 		orr	r9, r9, r10
 1336 0308 87F81490 		strb	r9, [r7, #20]
 1337              	.L82:
 1338              	.LVL97:
 244:../../libdaisy/src/dev/oled_ssd130x.h ****         else
 1339              		.loc 2 244 42 view .LVU320
 1340              	.LBE294:
 1341              	.LBE293:
 1342              	.LBE292:
 203:../../libdaisy/src/hid/disp/display.h ****             {
 1343              		.loc 3 203 13 view .LVU321
 1344 030c BCEB460F 		cmp	ip, r6, lsl #1
 202:../../libdaisy/src/hid/disp/display.h ****             if(error2 > -deltaY)
 1345              		.loc 3 202 20 view .LVU322
 1346 0310 4FEA4607 		lsl	r7, r6, #1
ARM GAS  C:\Users\VINCIU~1\AppData\Local\Temp\cc9kCTNX.s 			page 39


 1347              	.LVL98:
 203:../../libdaisy/src/hid/disp/display.h ****             {
 1348              		.loc 3 203 13 view .LVU323
 1349 0314 02DA     		bge	.L84
 205:../../libdaisy/src/hid/disp/display.h ****                 x1 += signX;
 1350              		.loc 3 205 23 view .LVU324
 1351 0316 A6EB0E06 		sub	r6, r6, lr
 1352              	.LVL99:
 206:../../libdaisy/src/hid/disp/display.h ****             }
 1353              		.loc 3 206 20 view .LVU325
 1354 031a 013B     		subs	r3, r3, #1
 1355              	.LVL100:
 1356              	.L84:
 209:../../libdaisy/src/hid/disp/display.h ****             {
 1357              		.loc 3 209 13 view .LVU326
 1358 031c 07B1     		cbz	r7, .L85
 212:../../libdaisy/src/hid/disp/display.h ****             }
 1359              		.loc 3 212 20 view .LVU327
 1360 031e 4444     		add	r4, r4, r8
 1361              	.LVL101:
 1362              	.L85:
 199:../../libdaisy/src/hid/disp/display.h ****         {
 1363              		.loc 3 199 26 is_stmt 1 view .LVU328
 1364 0320 9942     		cmp	r1, r3
 1365 0322 DED1     		bne	.L80
 199:../../libdaisy/src/hid/disp/display.h ****         {
 1366              		.loc 3 199 26 is_stmt 0 view .LVU329
 1367 0324 A242     		cmp	r2, r4
 1368 0326 DCD1     		bne	.L80
 1369              	.LBE284:
 1370              	.LBE283:
 1371              	.LBE314:
 1372              		.loc 3 241 5 view .LVU330
 1373 0328 07B0     		add	sp, sp, #28
 1374              		.cfi_remember_state
 1375              		.cfi_def_cfa_offset 36
 1376              		@ sp needed
 1377 032a BDE8F08F 		pop	{r4, r5, r6, r7, r8, r9, r10, fp, pc}
 1378              	.LVL102:
 1379              	.L45:
 1380              		.cfi_restore_state
 1381              	.LBB315:
 1382              	.LBB303:
 1383              	.LBB223:
 1384              	.LBB219:
  41:../../libdaisy/src/hid/disp/oled_display.h ****     {
 1385              		.loc 1 41 10 is_stmt 1 view .LVU331
 1386              	.LBB208:
 239:../../libdaisy/src/dev/oled_ssd130x.h ****     {
 1387              		.loc 2 239 10 view .LVU332
 1388              	.LBB204:
 241:../../libdaisy/src/dev/oled_ssd130x.h ****             return;
 1389              		.loc 2 241 28 is_stmt 0 view .LVU333
 1390 032e 3F2A     		cmp	r2, #63
 1391              	.LBE204:
 1392              	.LBE208:
 1393              	.LBE219:
ARM GAS  C:\Users\VINCIU~1\AppData\Local\Temp\cc9kCTNX.s 			page 40


 189:../../libdaisy/src/hid/disp/display.h ****         int_fast16_t signY  = ((y1 < y2) ? 1 : -1);
 1394              		.loc 3 189 42 view .LVU334
 1395 0330 4FF0010A 		mov	r10, #1
 1396              	.LBB220:
 1397              	.LBB209:
 1398              	.LBB205:
 241:../../libdaisy/src/dev/oled_ssd130x.h ****             return;
 1399              		.loc 2 241 28 view .LVU335
 1400 0334 94BF     		ite	ls
 1401 0336 0026     		movls	r6, #0
 1402 0338 0126     		movhi	r6, #1
 241:../../libdaisy/src/dev/oled_ssd130x.h ****             return;
 1403              		.loc 2 241 14 view .LVU336
 1404 033a 7F2B     		cmp	r3, #127
 241:../../libdaisy/src/dev/oled_ssd130x.h ****             return;
 1405              		.loc 2 241 28 view .LVU337
 1406 033c 0396     		str	r6, [sp, #12]
 241:../../libdaisy/src/dev/oled_ssd130x.h ****             return;
 1407              		.loc 2 241 14 view .LVU338
 1408 033e 94BF     		ite	ls
 1409 0340 0027     		movls	r7, #0
 1410 0342 0127     		movhi	r7, #1
 1411 0344 0097     		str	r7, [sp]
 241:../../libdaisy/src/dev/oled_ssd130x.h ****             return;
 1412              		.loc 2 241 9 view .LVU339
 1413 0346 002E     		cmp	r6, #0
 1414 0348 7FF4C8AE 		bne	.L49
 1415 034c 002F     		cmp	r7, #0
 1416 034e 3FF4AEAE 		beq	.L87
 1417 0352 C3E6     		b	.L49
 1418              	.LVL103:
 1419              	.L74:
 241:../../libdaisy/src/dev/oled_ssd130x.h ****             return;
 1420              		.loc 2 241 9 view .LVU340
 1421              	.LBE205:
 1422              	.LBE209:
 1423              	.LBE220:
 1424              	.LBE223:
 1425              	.LBE303:
 1426              	.LBB304:
 1427              	.LBB281:
 1428              	.LBB279:
 1429              	.LBB278:
 1430              	.LBB277:
 1431              	.LBB275:
 1432              	.LBI275:
 239:../../libdaisy/src/dev/oled_ssd130x.h ****     {
 1433              		.loc 2 239 10 is_stmt 1 view .LVU341
 1434              	.LBB276:
 246:../../libdaisy/src/dev/oled_ssd130x.h ****     }
 1435              		.loc 2 246 49 is_stmt 0 view .LVU342
 1436 0354 08FA0BFB 		lsl	fp, r8, fp
 246:../../libdaisy/src/dev/oled_ssd130x.h ****     }
 1437              		.loc 2 246 42 view .LVU343
 1438 0358 9CF81480 		ldrb	r8, [ip, #20]	@ zero_extendqisi2
 1439 035c 28EA0B08 		bic	r8, r8, fp
 1440 0360 8CF81480 		strb	r8, [ip, #20]
ARM GAS  C:\Users\VINCIU~1\AppData\Local\Temp\cc9kCTNX.s 			page 41


 1441 0364 8AE7     		b	.L73
 1442              	.LVL104:
 1443              	.L83:
 246:../../libdaisy/src/dev/oled_ssd130x.h ****     }
 1444              		.loc 2 246 42 view .LVU344
 1445              	.LBE276:
 1446              	.LBE275:
 1447              	.LBE277:
 1448              	.LBE278:
 1449              	.LBE279:
 1450              	.LBE281:
 1451              	.LBE304:
 1452              	.LBB305:
 1453              	.LBB301:
 1454              	.LBB299:
 1455              	.LBB298:
 1456              	.LBB297:
 1457              	.LBB295:
 1458              	.LBI295:
 239:../../libdaisy/src/dev/oled_ssd130x.h ****     {
 1459              		.loc 2 239 10 is_stmt 1 view .LVU345
 1460              	.LBB296:
 246:../../libdaisy/src/dev/oled_ssd130x.h ****     }
 1461              		.loc 2 246 49 is_stmt 0 view .LVU346
 1462 0366 09FA0AFA 		lsl	r10, r9, r10
 246:../../libdaisy/src/dev/oled_ssd130x.h ****     }
 1463              		.loc 2 246 42 view .LVU347
 1464 036a 97F81490 		ldrb	r9, [r7, #20]	@ zero_extendqisi2
 1465 036e 29EA0A09 		bic	r9, r9, r10
 1466 0372 87F81490 		strb	r9, [r7, #20]
 1467 0376 C9E7     		b	.L82
 1468              	.LVL105:
 1469              	.L53:
 246:../../libdaisy/src/dev/oled_ssd130x.h ****     }
 1470              		.loc 2 246 42 view .LVU348
 1471              	.LBE296:
 1472              	.LBE295:
 1473              	.LBE297:
 1474              	.LBE298:
 1475              	.LBE299:
 1476              	.LBE301:
 1477              	.LBE305:
 1478              	.LBB306:
 1479              	.LBB224:
 1480              	.LBB221:
 1481              	.LBB218:
 1482              	.LBB217:
 1483              	.LBB215:
 1484              	.LBI215:
 239:../../libdaisy/src/dev/oled_ssd130x.h ****     {
 1485              		.loc 2 239 10 is_stmt 1 view .LVU349
 1486              	.LBB216:
 246:../../libdaisy/src/dev/oled_ssd130x.h ****     }
 1487              		.loc 2 246 49 is_stmt 0 view .LVU350
 1488 0378 09FA0BFB 		lsl	fp, r9, fp
 246:../../libdaisy/src/dev/oled_ssd130x.h ****     }
 1489              		.loc 2 246 42 view .LVU351
ARM GAS  C:\Users\VINCIU~1\AppData\Local\Temp\cc9kCTNX.s 			page 42


 1490 037c 97F81490 		ldrb	r9, [r7, #20]	@ zero_extendqisi2
 1491 0380 29EA0B09 		bic	r9, r9, fp
 1492 0384 87F81490 		strb	r9, [r7, #20]
 1493 0388 C5E6     		b	.L52
 1494              	.LVL106:
 1495              	.L64:
 246:../../libdaisy/src/dev/oled_ssd130x.h ****     }
 1496              		.loc 2 246 42 view .LVU352
 1497              	.LBE216:
 1498              	.LBE215:
 1499              	.LBE217:
 1500              	.LBE218:
 1501              	.LBE221:
 1502              	.LBE224:
 1503              	.LBE306:
 1504              	.LBB307:
 1505              	.LBB257:
 1506              	.LBB254:
 1507              	.LBB253:
 1508              	.LBB252:
 1509              	.LBB250:
 1510              	.LBI250:
 239:../../libdaisy/src/dev/oled_ssd130x.h ****     {
 1511              		.loc 2 239 10 is_stmt 1 view .LVU353
 1512              	.LBB251:
 246:../../libdaisy/src/dev/oled_ssd130x.h ****     }
 1513              		.loc 2 246 49 is_stmt 0 view .LVU354
 1514 038a 0AFA0BFB 		lsl	fp, r10, fp
 246:../../libdaisy/src/dev/oled_ssd130x.h ****     }
 1515              		.loc 2 246 42 view .LVU355
 1516 038e 9EF814A0 		ldrb	r10, [lr, #20]	@ zero_extendqisi2
 1517 0392 2AEA0B0A 		bic	r10, r10, fp
 1518 0396 8EF814A0 		strb	r10, [lr, #20]
 1519 039a 18E7     		b	.L63
 1520              	.LVL107:
 1521              	.L56:
 246:../../libdaisy/src/dev/oled_ssd130x.h ****     }
 1522              		.loc 2 246 42 view .LVU356
 1523              	.LBE251:
 1524              	.LBE250:
 1525              	.LBE252:
 1526              	.LBE253:
 1527              	.LBE254:
 1528              	.LBB255:
  41:../../libdaisy/src/hid/disp/oled_display.h ****     {
 1529              		.loc 1 41 10 is_stmt 1 view .LVU357
 1530              	.LBB242:
 239:../../libdaisy/src/dev/oled_ssd130x.h ****     {
 1531              		.loc 2 239 10 view .LVU358
 1532              	.LBB237:
 241:../../libdaisy/src/dev/oled_ssd130x.h ****             return;
 1533              		.loc 2 241 9 is_stmt 0 view .LVU359
 1534 039c 9EBB     		cbnz	r6, .L95
 1535 039e 009E     		ldr	r6, [sp]
 1536 03a0 8EBB     		cbnz	r6, .L95
 1537              	.LBE237:
 1538              	.LBE242:
ARM GAS  C:\Users\VINCIU~1\AppData\Local\Temp\cc9kCTNX.s 			page 43


 1539              	.LBE255:
 190:../../libdaisy/src/hid/disp/display.h ****         int_fast16_t error  = deltaX - deltaY;
 1540              		.loc 3 190 42 view .LVU360
 1541 03a2 0126     		movs	r6, #1
 1542 03a4 0096     		str	r6, [sp]
 1543              	.LBB256:
 1544              	.LBB243:
 1545              	.LBB238:
 244:../../libdaisy/src/dev/oled_ssd130x.h ****         else
 1546              		.loc 2 244 28 view .LVU361
 1547 03a6 E608     		lsrs	r6, r4, #3
 244:../../libdaisy/src/dev/oled_ssd130x.h ****         else
 1548              		.loc 2 244 42 view .LVU362
 1549 03a8 03EBC616 		add	r6, r3, r6, lsl #7
 1550 03ac 0644     		add	r6, r6, r0
 243:../../libdaisy/src/dev/oled_ssd130x.h ****             buffer_[x + (y / 8) * width] |= (1 << (y % 8));
 1551              		.loc 2 243 9 view .LVU363
 1552 03ae 002D     		cmp	r5, #0
 1553 03b0 7FF4E1AE 		bne	.L130
 1554              	.LVL108:
 1555              	.L58:
 1556              	.LBB232:
 1557              	.LBI232:
 239:../../libdaisy/src/dev/oled_ssd130x.h ****     {
 1558              		.loc 2 239 10 is_stmt 1 view .LVU364
 1559              	.LBB233:
 246:../../libdaisy/src/dev/oled_ssd130x.h ****     }
 1560              		.loc 2 246 49 is_stmt 0 view .LVU365
 1561 03b4 0127     		movs	r7, #1
 246:../../libdaisy/src/dev/oled_ssd130x.h ****     }
 1562              		.loc 2 246 55 view .LVU366
 1563 03b6 04F0070C 		and	ip, r4, #7
 246:../../libdaisy/src/dev/oled_ssd130x.h ****     }
 1564              		.loc 2 246 42 view .LVU367
 1565 03ba 0295     		str	r5, [sp, #8]
 246:../../libdaisy/src/dev/oled_ssd130x.h ****     }
 1566              		.loc 2 246 49 view .LVU368
 1567 03bc 07FA0CFC 		lsl	ip, r7, ip
 246:../../libdaisy/src/dev/oled_ssd130x.h ****     }
 1568              		.loc 2 246 42 view .LVU369
 1569 03c0 377D     		ldrb	r7, [r6, #20]	@ zero_extendqisi2
 1570 03c2 27EA0C07 		bic	r7, r7, ip
 1571 03c6 3775     		strb	r7, [r6, #20]
 1572 03c8 E2E6     		b	.L57
 1573              	.LVL109:
 1574              	.L79:
 246:../../libdaisy/src/dev/oled_ssd130x.h ****     }
 1575              		.loc 2 246 42 view .LVU370
 1576              	.LBE233:
 1577              	.LBE232:
 1578              	.LBE238:
 1579              	.LBE243:
 1580              	.LBE256:
 1581              	.LBE257:
 1582              	.LBE307:
 1583              	.LBB308:
 1584              	.LBB302:
ARM GAS  C:\Users\VINCIU~1\AppData\Local\Temp\cc9kCTNX.s 			page 44


 1585              	.LBB300:
 1586              	.LBB291:
 1587              	.LBB290:
 1588              	.LBB288:
 1589              	.LBI288:
 239:../../libdaisy/src/dev/oled_ssd130x.h ****     {
 1590              		.loc 2 239 10 is_stmt 1 view .LVU371
 1591              	.LBB289:
 246:../../libdaisy/src/dev/oled_ssd130x.h ****     }
 1592              		.loc 2 246 49 is_stmt 0 view .LVU372
 1593 03ca 06FA07F7 		lsl	r7, r6, r7
 246:../../libdaisy/src/dev/oled_ssd130x.h ****     }
 1594              		.loc 2 246 42 view .LVU373
 1595 03ce 1E7D     		ldrb	r6, [r3, #20]	@ zero_extendqisi2
 1596 03d0 26EA0706 		bic	r6, r6, r7
 1597 03d4 1E75     		strb	r6, [r3, #20]
 1598 03d6 7EE7     		b	.L78
 1599              	.LVL110:
 1600              	.L69:
 246:../../libdaisy/src/dev/oled_ssd130x.h ****     }
 1601              		.loc 2 246 42 view .LVU374
 1602              	.LBE289:
 1603              	.LBE288:
 1604              	.LBE290:
 1605              	.LBE291:
 1606              	.LBE300:
 1607              	.LBE302:
 1608              	.LBE308:
 1609              	.LBB309:
 1610              	.LBB282:
 1611              	.LBB280:
 1612              	.LBB270:
 1613              	.LBB268:
 1614              	.LBB265:
 1615              	.LBI265:
 239:../../libdaisy/src/dev/oled_ssd130x.h ****     {
 1616              		.loc 2 239 10 is_stmt 1 view .LVU375
 1617              	.LBB266:
 246:../../libdaisy/src/dev/oled_ssd130x.h ****     }
 1618              		.loc 2 246 49 is_stmt 0 view .LVU376
 1619 03d8 0127     		movs	r7, #1
 246:../../libdaisy/src/dev/oled_ssd130x.h ****     }
 1620              		.loc 2 246 55 view .LVU377
 1621 03da 04F0070C 		and	ip, r4, #7
 246:../../libdaisy/src/dev/oled_ssd130x.h ****     }
 1622              		.loc 2 246 49 view .LVU378
 1623 03de 07FA0CFC 		lsl	ip, r7, ip
 246:../../libdaisy/src/dev/oled_ssd130x.h ****     }
 1624              		.loc 2 246 42 view .LVU379
 1625 03e2 377D     		ldrb	r7, [r6, #20]	@ zero_extendqisi2
 1626 03e4 27EA0C07 		bic	r7, r7, ip
 1627 03e8 3775     		strb	r7, [r6, #20]
 1628 03ea 2CE7     		b	.L68
 1629              	.LVL111:
 1630              	.L47:
 246:../../libdaisy/src/dev/oled_ssd130x.h ****     }
 1631              		.loc 2 246 42 view .LVU380
ARM GAS  C:\Users\VINCIU~1\AppData\Local\Temp\cc9kCTNX.s 			page 45


 1632              	.LBE266:
 1633              	.LBE265:
 1634              	.LBE268:
 1635              	.LBE270:
 1636              	.LBE280:
 1637              	.LBE282:
 1638              	.LBE309:
 1639              	.LBB310:
 1640              	.LBB225:
 1641              	.LBB222:
 1642              	.LBB210:
 1643              	.LBB206:
 1644              	.LBB201:
 1645              	.LBI201:
 239:../../libdaisy/src/dev/oled_ssd130x.h ****     {
 1646              		.loc 2 239 10 is_stmt 1 view .LVU381
 1647              	.LBB202:
 246:../../libdaisy/src/dev/oled_ssd130x.h ****     }
 1648              		.loc 2 246 49 is_stmt 0 view .LVU382
 1649 03ec 07FA0CFC 		lsl	ip, r7, ip
 246:../../libdaisy/src/dev/oled_ssd130x.h ****     }
 1650              		.loc 2 246 42 view .LVU383
 1651 03f0 377D     		ldrb	r7, [r6, #20]	@ zero_extendqisi2
 1652 03f2 0395     		str	r5, [sp, #12]
 1653 03f4 27EA0C07 		bic	r7, r7, ip
 1654 03f8 0095     		str	r5, [sp]
 1655 03fa 3775     		strb	r7, [r6, #20]
 1656 03fc 6BE6     		b	.L46
 1657              	.LVL112:
 1658              	.L91:
 246:../../libdaisy/src/dev/oled_ssd130x.h ****     }
 1659              		.loc 2 246 42 view .LVU384
 1660              	.LBE202:
 1661              	.LBE201:
 1662              	.LBE206:
 1663              	.LBE210:
 1664              	.LBE222:
 1665              	.LBE225:
 1666              	.LBE310:
 1667              	.LBB311:
 1668              	.LBB258:
 190:../../libdaisy/src/hid/disp/display.h ****         int_fast16_t error  = deltaX - deltaY;
 1669              		.loc 3 190 42 view .LVU385
 1670 03fe 4FF0FF36 		mov	r6, #-1
 1671 0402 0096     		str	r6, [sp]
 1672 0404 C4E6     		b	.L57
 1673              	.LVL113:
 1674              	.L95:
 190:../../libdaisy/src/hid/disp/display.h ****         int_fast16_t error  = deltaX - deltaY;
 1675              		.loc 3 190 42 view .LVU386
 1676 0406 0126     		movs	r6, #1
 1677 0408 0096     		str	r6, [sp]
 1678 040a C4E6     		b	.L60
 1679              	.LVL114:
 1680              	.L128:
 190:../../libdaisy/src/hid/disp/display.h ****         int_fast16_t error  = deltaX - deltaY;
 1681              		.loc 3 190 42 view .LVU387
ARM GAS  C:\Users\VINCIU~1\AppData\Local\Temp\cc9kCTNX.s 			page 46


 1682              	.LBE258:
 1683              	.LBE311:
 1684              	.LBB312:
 1685              	.LBB226:
 199:../../libdaisy/src/hid/disp/display.h ****         {
 1686              		.loc 3 199 19 view .LVU388
 1687 040c 0126     		movs	r6, #1
 1688 040e 0496     		str	r6, [sp, #16]
 1689 0410 8FE6     		b	.L48
 1690              	.LVL115:
 1691              	.L129:
 199:../../libdaisy/src/hid/disp/display.h ****         {
 1692              		.loc 3 199 19 view .LVU389
 1693              	.LBE226:
 1694              	.LBE312:
 1695              	.LBB313:
 1696              	.LBB259:
 199:../../libdaisy/src/hid/disp/display.h ****         {
 1697              		.loc 3 199 33 view .LVU390
 1698 0412 0126     		movs	r6, #1
 1699 0414 0196     		str	r6, [sp, #4]
 1700 0416 ECE6     		b	.L59
 1701              	.LBE259:
 1702              	.LBE313:
 1703              	.LBE315:
 1704              		.cfi_endproc
 1705              	.LFE1815:
 1707              		.section	.text._ZN5Menus12SplashScreenEPN5daisy11OledDisplayINS0_13SSD130xDriverILj128ELj64ENS0_24
 1708              		.align	1
 1709              		.p2align 2,,3
 1710              		.global	_ZN5Menus12SplashScreenEPN5daisy11OledDisplayINS0_13SSD130xDriverILj128ELj64ENS0_24SSD130x
 1711              		.syntax unified
 1712              		.thumb
 1713              		.thumb_func
 1714              		.fpu fpv5-d16
 1716              	_ZN5Menus12SplashScreenEPN5daisy11OledDisplayINS0_13SSD130xDriverILj128ELj64ENS0_24SSD130x4WireSpiT
 1717              	.LVL116:
 1718              	.LFB1812:
 1719              		.file 4 "menus.cpp"
   1:menus.cpp     **** #include "menus.h"
   2:menus.cpp     **** 
   3:menus.cpp     **** void Menus::SplashScreen(
   4:menus.cpp     ****     daisy::OledDisplay<daisy::SSD130x4WireSpi128x64Driver>* screen)
   5:menus.cpp     **** {
 1720              		.loc 4 5 1 is_stmt 1 view -0
 1721              		.cfi_startproc
 1722              		@ args = 0, pretend = 0, frame = 8
 1723              		@ frame_needed = 0, uses_anonymous_args = 0
 1724              		.loc 4 5 1 is_stmt 0 view .LVU392
 1725 0000 2DE9F04F 		push	{r4, r5, r6, r7, r8, r9, r10, fp, lr}
 1726              		.cfi_def_cfa_offset 36
 1727              		.cfi_offset 4, -36
 1728              		.cfi_offset 5, -32
 1729              		.cfi_offset 6, -28
 1730              		.cfi_offset 7, -24
 1731              		.cfi_offset 8, -20
 1732              		.cfi_offset 9, -16
ARM GAS  C:\Users\VINCIU~1\AppData\Local\Temp\cc9kCTNX.s 			page 47


 1733              		.cfi_offset 10, -12
 1734              		.cfi_offset 11, -8
 1735              		.cfi_offset 14, -4
   6:menus.cpp     ****     bool colorTemplate = false;
   7:menus.cpp     ****     screen->Fill(colorTemplate);
 1736              		.loc 4 7 31 view .LVU393
 1737 0004 0E68     		ldr	r6, [r1]
   5:menus.cpp     ****     bool colorTemplate = false;
 1738              		.loc 4 5 1 view .LVU394
 1739 0006 87B0     		sub	sp, sp, #28
 1740              		.cfi_def_cfa_offset 64
 1741 0008 1C4A     		ldr	r2, .L516
   5:menus.cpp     ****     bool colorTemplate = false;
 1742              		.loc 4 5 1 view .LVU395
 1743 000a 0C46     		mov	r4, r1
 1744              		.loc 4 7 31 view .LVU396
 1745 000c 3369     		ldr	r3, [r6, #16]
   5:menus.cpp     ****     bool colorTemplate = false;
 1746              		.loc 4 5 1 view .LVU397
 1747 000e 0746     		mov	r7, r0
   6:menus.cpp     ****     bool colorTemplate = false;
 1748              		.loc 4 6 5 is_stmt 1 view .LVU398
 1749              	.LVL117:
 1750              		.loc 4 7 5 view .LVU399
 1751 0010 9342     		cmp	r3, r2
 1752 0012 41F0DD80 		bne	.L132
 1753              	.LBB649:
 1754              	.LBB650:
 1755              	.LBB651:
 253:../../libdaisy/src/dev/oled_ssd130x.h ****         }
 1756              		.loc 2 253 24 is_stmt 0 view .LVU400
 1757 0016 4FF48062 		mov	r2, #1024
 1758 001a 0021     		movs	r1, #0
 1759              	.LVL118:
 253:../../libdaisy/src/dev/oled_ssd130x.h ****         }
 1760              		.loc 2 253 24 view .LVU401
 1761 001c 04F11400 		add	r0, r4, #20
 1762              	.LVL119:
 253:../../libdaisy/src/dev/oled_ssd130x.h ****         }
 1763              		.loc 2 253 24 view .LVU402
 1764 0020 FFF7FEFF 		bl	memset
 1765              	.LVL120:
 1766              	.L133:
 1767              	.LBE651:
 1768              	.LBE650:
 1769              	.LBE649:
   8:menus.cpp     ****     //RECTANGLE
   9:menus.cpp     ****     screen->DrawRect(screen->Width() / 2 - 10,
 1770              		.loc 4 9 5 is_stmt 1 view .LVU403
 1771              		.loc 4 9 36 is_stmt 0 view .LVU404
 1772 0024 F368     		ldr	r3, [r6, #12]
 1773 0026 164D     		ldr	r5, .L516+4
  10:menus.cpp     ****                      6,
  11:menus.cpp     ****                      screen->Width() / 2 + 12,
  12:menus.cpp     ****                      33,
  13:menus.cpp     ****                      !colorTemplate,
  14:menus.cpp     ****                      true);
ARM GAS  C:\Users\VINCIU~1\AppData\Local\Temp\cc9kCTNX.s 			page 48


 1774              		.loc 4 14 26 view .LVU405
 1775 0028 D6F81C80 		ldr	r8, [r6, #28]
 1776 002c AB42     		cmp	r3, r5
 1777 002e 41F0C580 		bne	.L470
   9:menus.cpp     ****                      6,
 1778              		.loc 4 9 36 view .LVU406
 1779 0032 3626     		movs	r6, #54
 1780              	.L134:
 1781 0034 AB42     		cmp	r3, r5
 1782 0036 41F0BA80 		bne	.L471
 1783 003a 4C23     		movs	r3, #76
 1784              	.L135:
 1785 003c 114A     		ldr	r2, .L516+8
 1786 003e 9045     		cmp	r8, r2
 1787 0040 22D1     		bne	.L136
 1788              	.LVL121:
 1789              	.LBB652:
 1790              	.LBB653:
 226:../../libdaisy/src/hid/disp/display.h ****             {
 1791              		.loc 3 226 40 is_stmt 1 view .LVU407
 1792 0042 B342     		cmp	r3, r6
 1793 0044 29D3     		bcc	.L138
 1794              	.L137:
 1795              	.LVL122:
 1796              	.LBB654:
 228:../../libdaisy/src/hid/disp/display.h ****                 {
 1797              		.loc 3 228 34 is_stmt 0 view .LVU408
 1798 0046 0621     		movs	r1, #6
 1799              	.L140:
 1800              	.LVL123:
 1801              	.LBB655:
 1802              	.LBI655:
  41:../../libdaisy/src/hid/disp/oled_display.h ****     {
 1803              		.loc 1 41 10 is_stmt 1 view .LVU409
 1804              	.LBB656:
 1805              	.LBI656:
 239:../../libdaisy/src/dev/oled_ssd130x.h ****     {
 1806              		.loc 2 239 10 view .LVU410
 239:../../libdaisy/src/dev/oled_ssd130x.h ****     {
 1807              		.loc 2 239 10 is_stmt 0 view .LVU411
 1808              	.LBE656:
 1809              	.LBE655:
 228:../../libdaisy/src/hid/disp/display.h ****                 {
 1810              		.loc 3 228 17 is_stmt 1 view .LVU412
 228:../../libdaisy/src/hid/disp/display.h ****                 {
 1811              		.loc 3 228 44 view .LVU413
 1812              	.LBB659:
 1813              	.LBB658:
 1814              	.LBB657:
 244:../../libdaisy/src/dev/oled_ssd130x.h ****         else
 1815              		.loc 2 244 28 is_stmt 0 view .LVU414
 1816 0048 CA08     		lsrs	r2, r1, #3
 244:../../libdaisy/src/dev/oled_ssd130x.h ****         else
 1817              		.loc 2 244 54 view .LVU415
 1818 004a 01F0070C 		and	ip, r1, #7
 244:../../libdaisy/src/dev/oled_ssd130x.h ****         else
 1819              		.loc 2 244 48 view .LVU416
ARM GAS  C:\Users\VINCIU~1\AppData\Local\Temp\cc9kCTNX.s 			page 49


 1820 004e 0120     		movs	r0, #1
 241:../../libdaisy/src/dev/oled_ssd130x.h ****             return;
 1821              		.loc 2 241 9 view .LVU417
 1822 0050 7F2E     		cmp	r6, #127
 244:../../libdaisy/src/dev/oled_ssd130x.h ****         else
 1823              		.loc 2 244 42 view .LVU418
 1824 0052 06EBC212 		add	r2, r6, r2, lsl #7
 1825 0056 0144     		add	r1, r1, r0
 1826              	.LVL124:
 244:../../libdaisy/src/dev/oled_ssd130x.h ****         else
 1827              		.loc 2 244 48 view .LVU419
 1828 0058 00FA0CF0 		lsl	r0, r0, ip
 244:../../libdaisy/src/dev/oled_ssd130x.h ****         else
 1829              		.loc 2 244 42 view .LVU420
 1830 005c 2244     		add	r2, r2, r4
 241:../../libdaisy/src/dev/oled_ssd130x.h ****             return;
 1831              		.loc 2 241 9 view .LVU421
 1832 005e 04D8     		bhi	.L139
 244:../../libdaisy/src/dev/oled_ssd130x.h ****         else
 1833              		.loc 2 244 42 view .LVU422
 1834 0060 92F814C0 		ldrb	ip, [r2, #20]	@ zero_extendqisi2
 1835 0064 40EA0C00 		orr	r0, r0, ip
 1836 0068 1075     		strb	r0, [r2, #20]
 1837              	.L139:
 1838              	.LBE657:
 1839              	.LBE658:
 1840              	.LBE659:
 228:../../libdaisy/src/hid/disp/display.h ****                 {
 1841              		.loc 3 228 44 view .LVU423
 1842 006a 2229     		cmp	r1, #34
 1843 006c ECD1     		bne	.L140
 1844              	.LBE654:
 226:../../libdaisy/src/hid/disp/display.h ****             {
 1845              		.loc 3 226 13 is_stmt 1 view .LVU424
 226:../../libdaisy/src/hid/disp/display.h ****             {
 1846              		.loc 3 226 40 is_stmt 0 view .LVU425
 1847 006e B342     		cmp	r3, r6
 226:../../libdaisy/src/hid/disp/display.h ****             {
 1848              		.loc 3 226 13 view .LVU426
 1849 0070 06F10102 		add	r2, r6, #1
 1850              	.LVL125:
 226:../../libdaisy/src/hid/disp/display.h ****             {
 1851              		.loc 3 226 40 is_stmt 1 view .LVU427
 1852 0074 11D0     		beq	.L138
 1853 0076 1646     		mov	r6, r2
 1854 0078 E5E7     		b	.L137
 1855              	.L517:
 1856 007a 00BF     		.align	2
 1857              	.L516:
 1858 007c 00000000 		.word	_ZN5daisy11OledDisplayINS_13SSD130xDriverILj128ELj64ENS_24SSD130x4WireSpiTransportEEEE4FillE
 1859 0080 00000000 		.word	_ZNK5daisy11OledDisplayINS_13SSD130xDriverILj128ELj64ENS_24SSD130x4WireSpiTransportEEEE5Widt
 1860 0084 00000000 		.word	_ZN5daisy25OneBitGraphicsDisplayImplINS_11OledDisplayINS_13SSD130xDriverILj128ELj64ENS_24SSD
 1861              	.LVL126:
 1862              	.L136:
 226:../../libdaisy/src/hid/disp/display.h ****             {
 1863              		.loc 3 226 40 is_stmt 0 view .LVU428
 1864              	.LBE653:
ARM GAS  C:\Users\VINCIU~1\AppData\Local\Temp\cc9kCTNX.s 			page 50


 1865              	.LBE652:
   9:menus.cpp     ****                      6,
 1866              		.loc 4 9 21 view .LVU429
 1867 0088 0122     		movs	r2, #1
 1868 008a 3146     		mov	r1, r6
 1869 008c 2046     		mov	r0, r4
 1870 008e CDE90122 		strd	r2, r2, [sp, #4]
 1871 0092 2122     		movs	r2, #33
 1872 0094 0092     		str	r2, [sp]
 1873 0096 0622     		movs	r2, #6
 1874 0098 C047     		blx	r8
 1875              	.LVL127:
 1876              	.L138:
  15:menus.cpp     ****     //M
  16:menus.cpp     ****     screen->DrawLine(screen->Width() / 2 - 10,
 1877              		.loc 4 16 5 is_stmt 1 view .LVU430
  17:menus.cpp     ****                      37,
  18:menus.cpp     ****                      screen->Width() / 2 - 10,
  19:menus.cpp     ****                      52,
  20:menus.cpp     ****                      !colorTemplate);
 1878              		.loc 4 20 36 is_stmt 0 view .LVU431
 1879 009a 2268     		ldr	r2, [r4]
  16:menus.cpp     ****                      37,
 1880              		.loc 4 16 36 view .LVU432
 1881 009c D368     		ldr	r3, [r2, #12]
 1882              		.loc 4 20 36 view .LVU433
 1883 009e D2F81890 		ldr	r9, [r2, #24]
 1884 00a2 AB42     		cmp	r3, r5
 1885 00a4 41F07980 		bne	.L472
  16:menus.cpp     ****                      37,
 1886              		.loc 4 16 36 view .LVU434
 1887 00a8 4FF03608 		mov	r8, #54
 1888 00ac 4FF0400A 		mov	r10, #64
 1889              	.L142:
 1890 00b0 AB42     		cmp	r3, r5
 1891 00b2 41F06980 		bne	.L473
 1892 00b6 4021     		movs	r1, #64
 1893 00b8 3623     		movs	r3, #54
 1894 00ba 0A46     		mov	r2, r1
 1895              	.L143:
 1896 00bc CB4E     		ldr	r6, .L518
 1897 00be B145     		cmp	r9, r6
 1898 00c0 41F05780 		bne	.L144
 1899              	.LVL128:
 1900              	.LBB660:
 1901              	.LBI660:
 181:../../libdaisy/src/hid/disp/display.h ****                   uint_fast8_t y1,
 1902              		.loc 3 181 10 is_stmt 1 view .LVU435
 1903              	.LBB661:
 187:../../libdaisy/src/hid/disp/display.h ****         int_fast16_t deltaY = abs((int_fast16_t)y2 - (int_fast16_t)y1);
 1904              		.loc 3 187 52 is_stmt 0 view .LVU436
 1905 00c4 A1EB0A01 		sub	r1, r1, r10
 189:../../libdaisy/src/hid/disp/display.h ****         int_fast16_t signY  = ((y1 < y2) ? 1 : -1);
 1906              		.loc 3 189 42 view .LVU437
 1907 00c8 4345     		cmp	r3, r8
 1908 00ca 8CBF     		ite	hi
 1909 00cc 4FF0010A 		movhi	r10, #1
ARM GAS  C:\Users\VINCIU~1\AppData\Local\Temp\cc9kCTNX.s 			page 51


 1910 00d0 4FF0FF3A 		movls	r10, #-1
 1911              	.LBB662:
 1912              	.LBB663:
 1913              	.LBB664:
 241:../../libdaisy/src/dev/oled_ssd130x.h ****             return;
 1914              		.loc 2 241 9 view .LVU438
 1915 00d4 7F2B     		cmp	r3, #127
 1916              	.LBE664:
 1917              	.LBE663:
 1918              	.LBE662:
 187:../../libdaisy/src/hid/disp/display.h ****         int_fast16_t deltaY = abs((int_fast16_t)y2 - (int_fast16_t)y1);
 1919              		.loc 3 187 22 view .LVU439
 1920 00d6 81EAE179 		eor	r9, r1, r1, asr #31
 1921 00da A9EBE179 		sub	r9, r9, r1, asr #31
 1922              	.LVL129:
 191:../../libdaisy/src/hid/disp/display.h ****         int_fast16_t error2;
 1923              		.loc 3 191 22 view .LVU440
 1924 00de A9F10F01 		sub	r1, r9, #15
 1925              	.LVL130:
 1926              	.LBB667:
 1927              	.LBI662:
  41:../../libdaisy/src/hid/disp/oled_display.h ****     {
 1928              		.loc 1 41 10 is_stmt 1 view .LVU441
 1929              	.LBB666:
 1930              	.LBI663:
 239:../../libdaisy/src/dev/oled_ssd130x.h ****     {
 1931              		.loc 2 239 10 view .LVU442
 1932              	.LBB665:
 241:../../libdaisy/src/dev/oled_ssd130x.h ****             return;
 1933              		.loc 2 241 9 is_stmt 0 view .LVU443
 1934 00e2 07D8     		bhi	.L146
 244:../../libdaisy/src/dev/oled_ssd130x.h ****         else
 1935              		.loc 2 244 42 view .LVU444
 1936 00e4 02F2F622 		addw	r2, r2, #758
 1937 00e8 14FA82F2 		uxtah	r2, r4, r2
 1938 00ec 107D     		ldrb	r0, [r2, #20]	@ zero_extendqisi2
 1939 00ee 40F01000 		orr	r0, r0, #16
 1940 00f2 1075     		strb	r0, [r2, #20]
 1941              	.L146:
 1942              	.LVL131:
 244:../../libdaisy/src/dev/oled_ssd130x.h ****         else
 1943              		.loc 2 244 42 view .LVU445
 1944              	.LBE665:
 1945              	.LBE666:
 1946              	.LBE667:
 199:../../libdaisy/src/hid/disp/display.h ****         {
 1947              		.loc 3 199 26 is_stmt 1 view .LVU446
 189:../../libdaisy/src/hid/disp/display.h ****         int_fast16_t signY  = ((y1 < y2) ? 1 : -1);
 1948              		.loc 3 189 42 is_stmt 0 view .LVU447
 1949 00f4 4FF0250C 		mov	ip, #37
 1950              	.LVL132:
 1951              	.L147:
 1952              	.LBB668:
 1953              	.LBI668:
  41:../../libdaisy/src/hid/disp/oled_display.h ****     {
 1954              		.loc 1 41 10 is_stmt 1 view .LVU448
 1955              	.LBB669:
ARM GAS  C:\Users\VINCIU~1\AppData\Local\Temp\cc9kCTNX.s 			page 52


 1956              	.LBI669:
 239:../../libdaisy/src/dev/oled_ssd130x.h ****     {
 1957              		.loc 2 239 10 view .LVU449
 1958              	.LBB670:
 244:../../libdaisy/src/dev/oled_ssd130x.h ****         else
 1959              		.loc 2 244 28 is_stmt 0 view .LVU450
 1960 00f8 4FEADC02 		lsr	r2, ip, #3
 244:../../libdaisy/src/dev/oled_ssd130x.h ****         else
 1961              		.loc 2 244 48 view .LVU451
 1962 00fc 4FF0010B 		mov	fp, #1
 244:../../libdaisy/src/dev/oled_ssd130x.h ****         else
 1963              		.loc 2 244 54 view .LVU452
 1964 0100 0CF00700 		and	r0, ip, #7
 241:../../libdaisy/src/dev/oled_ssd130x.h ****             return;
 1965              		.loc 2 241 9 view .LVU453
 1966 0104 B8F17F0F 		cmp	r8, #127
 244:../../libdaisy/src/dev/oled_ssd130x.h ****         else
 1967              		.loc 2 244 42 view .LVU454
 1968 0108 08EBC212 		add	r2, r8, r2, lsl #7
 1969              	.LBE670:
 1970              	.LBE669:
 1971              	.LBE668:
 202:../../libdaisy/src/hid/disp/display.h ****             if(error2 > -deltaY)
 1972              		.loc 3 202 20 view .LVU455
 1973 010c 01FA0BFE 		lsl	lr, r1, fp
 1974              	.LVL133:
 1975              	.LBB673:
 1976              	.LBB672:
 1977              	.LBB671:
 244:../../libdaisy/src/dev/oled_ssd130x.h ****         else
 1978              		.loc 2 244 48 view .LVU456
 1979 0110 0BFA00F0 		lsl	r0, fp, r0
 244:../../libdaisy/src/dev/oled_ssd130x.h ****         else
 1980              		.loc 2 244 42 view .LVU457
 1981 0114 2244     		add	r2, r2, r4
 241:../../libdaisy/src/dev/oled_ssd130x.h ****             return;
 1982              		.loc 2 241 9 view .LVU458
 1983 0116 07D8     		bhi	.L150
 241:../../libdaisy/src/dev/oled_ssd130x.h ****             return;
 1984              		.loc 2 241 9 view .LVU459
 1985 0118 BCF13F0F 		cmp	ip, #63
 1986 011c 04D8     		bhi	.L150
 244:../../libdaisy/src/dev/oled_ssd130x.h ****         else
 1987              		.loc 2 244 42 view .LVU460
 1988 011e 92F814B0 		ldrb	fp, [r2, #20]	@ zero_extendqisi2
 1989 0122 40EA0B00 		orr	r0, r0, fp
 1990 0126 1075     		strb	r0, [r2, #20]
 1991              	.L150:
 1992              	.LBE671:
 1993              	.LBE672:
 1994              	.LBE673:
 203:../../libdaisy/src/hid/disp/display.h ****             {
 1995              		.loc 3 203 13 view .LVU461
 1996 0128 1EF10E0F 		cmn	lr, #14
 1997 012c C0F2FD84 		blt	.L151
 209:../../libdaisy/src/hid/disp/display.h ****             {
 1998              		.loc 3 209 13 view .LVU462
ARM GAS  C:\Users\VINCIU~1\AppData\Local\Temp\cc9kCTNX.s 			page 53


 1999 0130 F145     		cmp	r9, lr
 206:../../libdaisy/src/hid/disp/display.h ****             }
 2000              		.loc 3 206 20 view .LVU463
 2001 0132 D044     		add	r8, r8, r10
 2002              	.LVL134:
 205:../../libdaisy/src/hid/disp/display.h ****                 x1 += signX;
 2003              		.loc 3 205 23 view .LVU464
 2004 0134 A1F10F01 		sub	r1, r1, #15
 2005              	.LVL135:
 209:../../libdaisy/src/hid/disp/display.h ****             {
 2006              		.loc 3 209 13 view .LVU465
 2007 0138 00F3F784 		bgt	.L151
 2008              	.L152:
 199:../../libdaisy/src/hid/disp/display.h ****         {
 2009              		.loc 3 199 26 is_stmt 1 view .LVU466
 2010 013c 9845     		cmp	r8, r3
 2011 013e DBD1     		bne	.L147
 199:../../libdaisy/src/hid/disp/display.h ****         {
 2012              		.loc 3 199 26 is_stmt 0 view .LVU467
 2013 0140 BCF1340F 		cmp	ip, #52
 2014 0144 D8D1     		bne	.L147
 2015              	.LVL136:
 2016              	.L148:
 199:../../libdaisy/src/hid/disp/display.h ****         {
 2017              		.loc 3 199 26 view .LVU468
 2018              	.LBE661:
 2019              	.LBE660:
  21:menus.cpp     ****     screen->DrawLine(screen->Width() / 2 - 10,
 2020              		.loc 4 21 5 is_stmt 1 view .LVU469
  22:menus.cpp     ****                      37,
  23:menus.cpp     ****                      screen->Width() / 2 - 10 + 3,
  24:menus.cpp     ****                      52,
  25:menus.cpp     ****                      !colorTemplate);
 2021              		.loc 4 25 36 is_stmt 0 view .LVU470
 2022 0146 2268     		ldr	r2, [r4]
  21:menus.cpp     ****     screen->DrawLine(screen->Width() / 2 - 10,
 2023              		.loc 4 21 36 view .LVU471
 2024 0148 D368     		ldr	r3, [r2, #12]
 2025              		.loc 4 25 36 view .LVU472
 2026 014a D2F81890 		ldr	r9, [r2, #24]
 2027 014e AB42     		cmp	r3, r5
 2028 0150 41F00480 		bne	.L474
  21:menus.cpp     ****     screen->DrawLine(screen->Width() / 2 - 10,
 2029              		.loc 4 21 36 view .LVU473
 2030 0154 4FF03608 		mov	r8, #54
 2031 0158 C246     		mov	r10, r8
 2032              	.L153:
 2033 015a AB42     		cmp	r3, r5
 2034 015c 40F0F687 		bne	.L475
 2035 0160 3923     		movs	r3, #57
 2036 0162 4022     		movs	r2, #64
 2037 0164 1946     		mov	r1, r3
 2038              	.L154:
 2039 0166 B145     		cmp	r9, r6
 2040 0168 40F0E587 		bne	.L155
 2041              	.LVL137:
 2042              	.LBB675:
ARM GAS  C:\Users\VINCIU~1\AppData\Local\Temp\cc9kCTNX.s 			page 54


 2043              	.LBI675:
 181:../../libdaisy/src/hid/disp/display.h ****                   uint_fast8_t y1,
 2044              		.loc 3 181 10 is_stmt 1 view .LVU474
 2045              	.LBB676:
 187:../../libdaisy/src/hid/disp/display.h ****         int_fast16_t deltaY = abs((int_fast16_t)y2 - (int_fast16_t)y1);
 2046              		.loc 3 187 52 is_stmt 0 view .LVU475
 2047 016c A1EB0A01 		sub	r1, r1, r10
 189:../../libdaisy/src/hid/disp/display.h ****         int_fast16_t signY  = ((y1 < y2) ? 1 : -1);
 2048              		.loc 3 189 42 view .LVU476
 2049 0170 9845     		cmp	r8, r3
 2050 0172 34BF     		ite	cc
 2051 0174 4FF0010A 		movcc	r10, #1
 2052 0178 4FF0FF3A 		movcs	r10, #-1
 2053              	.LBB677:
 2054              	.LBB678:
 2055              	.LBB679:
 241:../../libdaisy/src/dev/oled_ssd130x.h ****             return;
 2056              		.loc 2 241 9 view .LVU477
 2057 017c 7F2B     		cmp	r3, #127
 2058              	.LBE679:
 2059              	.LBE678:
 2060              	.LBE677:
 187:../../libdaisy/src/hid/disp/display.h ****         int_fast16_t deltaY = abs((int_fast16_t)y2 - (int_fast16_t)y1);
 2061              		.loc 3 187 22 view .LVU478
 2062 017e 81EAE179 		eor	r9, r1, r1, asr #31
 2063 0182 A9EBE179 		sub	r9, r9, r1, asr #31
 2064              	.LVL138:
 191:../../libdaisy/src/hid/disp/display.h ****         int_fast16_t error2;
 2065              		.loc 3 191 22 view .LVU479
 2066 0186 A9F10F01 		sub	r1, r9, #15
 2067              	.LVL139:
 2068              	.LBB682:
 2069              	.LBI677:
  41:../../libdaisy/src/hid/disp/oled_display.h ****     {
 2070              		.loc 1 41 10 is_stmt 1 view .LVU480
 2071              	.LBB681:
 2072              	.LBI678:
 239:../../libdaisy/src/dev/oled_ssd130x.h ****     {
 2073              		.loc 2 239 10 view .LVU481
 2074              	.LBB680:
 241:../../libdaisy/src/dev/oled_ssd130x.h ****             return;
 2075              		.loc 2 241 9 is_stmt 0 view .LVU482
 2076 018a 07D8     		bhi	.L157
 244:../../libdaisy/src/dev/oled_ssd130x.h ****         else
 2077              		.loc 2 244 42 view .LVU483
 2078 018c 02F2F922 		addw	r2, r2, #761
 2079 0190 14FA82F2 		uxtah	r2, r4, r2
 2080 0194 107D     		ldrb	r0, [r2, #20]	@ zero_extendqisi2
 2081 0196 40F01000 		orr	r0, r0, #16
 2082 019a 1075     		strb	r0, [r2, #20]
 2083              	.L157:
 2084              	.LVL140:
 244:../../libdaisy/src/dev/oled_ssd130x.h ****         else
 2085              		.loc 2 244 42 view .LVU484
 2086              	.LBE680:
 2087              	.LBE681:
 2088              	.LBE682:
ARM GAS  C:\Users\VINCIU~1\AppData\Local\Temp\cc9kCTNX.s 			page 55


 199:../../libdaisy/src/hid/disp/display.h ****         {
 2089              		.loc 3 199 26 is_stmt 1 view .LVU485
 189:../../libdaisy/src/hid/disp/display.h ****         int_fast16_t signY  = ((y1 < y2) ? 1 : -1);
 2090              		.loc 3 189 42 is_stmt 0 view .LVU486
 2091 019c 4FF0250C 		mov	ip, #37
 2092              	.LVL141:
 2093              	.L158:
 2094              	.LBB683:
 2095              	.LBI683:
  41:../../libdaisy/src/hid/disp/oled_display.h ****     {
 2096              		.loc 1 41 10 is_stmt 1 view .LVU487
 2097              	.LBB684:
 2098              	.LBI684:
 239:../../libdaisy/src/dev/oled_ssd130x.h ****     {
 2099              		.loc 2 239 10 view .LVU488
 2100              	.LBB685:
 244:../../libdaisy/src/dev/oled_ssd130x.h ****         else
 2101              		.loc 2 244 28 is_stmt 0 view .LVU489
 2102 01a0 4FEADC02 		lsr	r2, ip, #3
 244:../../libdaisy/src/dev/oled_ssd130x.h ****         else
 2103              		.loc 2 244 48 view .LVU490
 2104 01a4 4FF0010B 		mov	fp, #1
 244:../../libdaisy/src/dev/oled_ssd130x.h ****         else
 2105              		.loc 2 244 54 view .LVU491
 2106 01a8 0CF00700 		and	r0, ip, #7
 241:../../libdaisy/src/dev/oled_ssd130x.h ****             return;
 2107              		.loc 2 241 9 view .LVU492
 2108 01ac B8F17F0F 		cmp	r8, #127
 244:../../libdaisy/src/dev/oled_ssd130x.h ****         else
 2109              		.loc 2 244 42 view .LVU493
 2110 01b0 08EBC212 		add	r2, r8, r2, lsl #7
 2111              	.LBE685:
 2112              	.LBE684:
 2113              	.LBE683:
 202:../../libdaisy/src/hid/disp/display.h ****             if(error2 > -deltaY)
 2114              		.loc 3 202 20 view .LVU494
 2115 01b4 01FA0BFE 		lsl	lr, r1, fp
 2116              	.LVL142:
 2117              	.LBB688:
 2118              	.LBB687:
 2119              	.LBB686:
 244:../../libdaisy/src/dev/oled_ssd130x.h ****         else
 2120              		.loc 2 244 48 view .LVU495
 2121 01b8 0BFA00F0 		lsl	r0, fp, r0
 244:../../libdaisy/src/dev/oled_ssd130x.h ****         else
 2122              		.loc 2 244 42 view .LVU496
 2123 01bc 2244     		add	r2, r2, r4
 241:../../libdaisy/src/dev/oled_ssd130x.h ****             return;
 2124              		.loc 2 241 9 view .LVU497
 2125 01be 07D8     		bhi	.L161
 241:../../libdaisy/src/dev/oled_ssd130x.h ****             return;
 2126              		.loc 2 241 9 view .LVU498
 2127 01c0 BCF13F0F 		cmp	ip, #63
 2128 01c4 04D8     		bhi	.L161
 244:../../libdaisy/src/dev/oled_ssd130x.h ****         else
 2129              		.loc 2 244 42 view .LVU499
 2130 01c6 92F814B0 		ldrb	fp, [r2, #20]	@ zero_extendqisi2
ARM GAS  C:\Users\VINCIU~1\AppData\Local\Temp\cc9kCTNX.s 			page 56


 2131 01ca 40EA0B00 		orr	r0, r0, fp
 2132 01ce 1075     		strb	r0, [r2, #20]
 2133              	.L161:
 2134              	.LBE686:
 2135              	.LBE687:
 2136              	.LBE688:
 203:../../libdaisy/src/hid/disp/display.h ****             {
 2137              		.loc 3 203 13 view .LVU500
 2138 01d0 1EF10E0F 		cmn	lr, #14
 2139 01d4 C0F2A484 		blt	.L162
 209:../../libdaisy/src/hid/disp/display.h ****             {
 2140              		.loc 3 209 13 view .LVU501
 2141 01d8 F145     		cmp	r9, lr
 206:../../libdaisy/src/hid/disp/display.h ****             }
 2142              		.loc 3 206 20 view .LVU502
 2143 01da D044     		add	r8, r8, r10
 2144              	.LVL143:
 205:../../libdaisy/src/hid/disp/display.h ****                 x1 += signX;
 2145              		.loc 3 205 23 view .LVU503
 2146 01dc A1F10F01 		sub	r1, r1, #15
 2147              	.LVL144:
 209:../../libdaisy/src/hid/disp/display.h ****             {
 2148              		.loc 3 209 13 view .LVU504
 2149 01e0 00F39E84 		bgt	.L162
 2150              	.L163:
 199:../../libdaisy/src/hid/disp/display.h ****         {
 2151              		.loc 3 199 26 is_stmt 1 view .LVU505
 2152 01e4 9845     		cmp	r8, r3
 2153 01e6 DBD1     		bne	.L158
 199:../../libdaisy/src/hid/disp/display.h ****         {
 2154              		.loc 3 199 26 is_stmt 0 view .LVU506
 2155 01e8 BCF1340F 		cmp	ip, #52
 2156 01ec D8D1     		bne	.L158
 2157              	.LVL145:
 2158              	.L159:
 199:../../libdaisy/src/hid/disp/display.h ****         {
 2159              		.loc 3 199 26 view .LVU507
 2160              	.LBE676:
 2161              	.LBE675:
  26:menus.cpp     ****     screen->DrawLine(screen->Width() / 2 - 10 + 3,
 2162              		.loc 4 26 5 is_stmt 1 view .LVU508
  27:menus.cpp     ****                      52,
  28:menus.cpp     ****                      screen->Width() / 2 - 10 + 6,
  29:menus.cpp     ****                      37,
  30:menus.cpp     ****                      !colorTemplate);
 2163              		.loc 4 30 36 is_stmt 0 view .LVU509
 2164 01ee 2268     		ldr	r2, [r4]
  26:menus.cpp     ****     screen->DrawLine(screen->Width() / 2 - 10 + 3,
 2165              		.loc 4 26 36 view .LVU510
 2166 01f0 D368     		ldr	r3, [r2, #12]
 2167              		.loc 4 30 36 view .LVU511
 2168 01f2 D2F81890 		ldr	r9, [r2, #24]
 2169 01f6 AB42     		cmp	r3, r5
 2170 01f8 40F09287 		bne	.L476
  26:menus.cpp     ****     screen->DrawLine(screen->Width() / 2 - 10 + 3,
 2171              		.loc 4 26 36 view .LVU512
 2172 01fc 4FF03908 		mov	r8, #57
ARM GAS  C:\Users\VINCIU~1\AppData\Local\Temp\cc9kCTNX.s 			page 57


 2173 0200 C246     		mov	r10, r8
 2174              	.L164:
 2175 0202 AB42     		cmp	r3, r5
 2176 0204 40F08487 		bne	.L477
 2177 0208 3C23     		movs	r3, #60
 2178 020a 4022     		movs	r2, #64
 2179 020c 1946     		mov	r1, r3
 2180              	.L165:
 2181 020e B145     		cmp	r9, r6
 2182 0210 40F07387 		bne	.L166
 2183              	.LVL146:
 2184              	.LBB690:
 2185              	.LBI690:
 181:../../libdaisy/src/hid/disp/display.h ****                   uint_fast8_t y1,
 2186              		.loc 3 181 10 is_stmt 1 view .LVU513
 2187              	.LBB691:
 187:../../libdaisy/src/hid/disp/display.h ****         int_fast16_t deltaY = abs((int_fast16_t)y2 - (int_fast16_t)y1);
 2188              		.loc 3 187 52 is_stmt 0 view .LVU514
 2189 0214 A1EB0A01 		sub	r1, r1, r10
 189:../../libdaisy/src/hid/disp/display.h ****         int_fast16_t signY  = ((y1 < y2) ? 1 : -1);
 2190              		.loc 3 189 42 view .LVU515
 2191 0218 9845     		cmp	r8, r3
 2192 021a 34BF     		ite	cc
 2193 021c 4FF0010A 		movcc	r10, #1
 2194 0220 4FF0FF3A 		movcs	r10, #-1
 2195              	.LBB692:
 2196              	.LBB693:
 2197              	.LBB694:
 241:../../libdaisy/src/dev/oled_ssd130x.h ****             return;
 2198              		.loc 2 241 9 view .LVU516
 2199 0224 7F2B     		cmp	r3, #127
 2200              	.LBE694:
 2201              	.LBE693:
 2202              	.LBE692:
 187:../../libdaisy/src/hid/disp/display.h ****         int_fast16_t deltaY = abs((int_fast16_t)y2 - (int_fast16_t)y1);
 2203              		.loc 3 187 22 view .LVU517
 2204 0226 81EAE179 		eor	r9, r1, r1, asr #31
 2205 022a A9EBE179 		sub	r9, r9, r1, asr #31
 2206              	.LVL147:
 191:../../libdaisy/src/hid/disp/display.h ****         int_fast16_t error2;
 2207              		.loc 3 191 22 view .LVU518
 2208 022e A9F10F01 		sub	r1, r9, #15
 2209              	.LVL148:
 2210              	.LBB697:
 2211              	.LBI692:
  41:../../libdaisy/src/hid/disp/oled_display.h ****     {
 2212              		.loc 1 41 10 is_stmt 1 view .LVU519
 2213              	.LBB696:
 2214              	.LBI693:
 239:../../libdaisy/src/dev/oled_ssd130x.h ****     {
 2215              		.loc 2 239 10 view .LVU520
 2216              	.LBB695:
 241:../../libdaisy/src/dev/oled_ssd130x.h ****             return;
 2217              		.loc 2 241 9 is_stmt 0 view .LVU521
 2218 0232 07D8     		bhi	.L168
 244:../../libdaisy/src/dev/oled_ssd130x.h ****         else
 2219              		.loc 2 244 42 view .LVU522
ARM GAS  C:\Users\VINCIU~1\AppData\Local\Temp\cc9kCTNX.s 			page 58


 2220 0234 02F5FE72 		add	r2, r2, #508
 2221 0238 14FA82F2 		uxtah	r2, r4, r2
 2222 023c 107D     		ldrb	r0, [r2, #20]	@ zero_extendqisi2
 2223 023e 40F02000 		orr	r0, r0, #32
 2224 0242 1075     		strb	r0, [r2, #20]
 2225              	.L168:
 2226              	.LVL149:
 244:../../libdaisy/src/dev/oled_ssd130x.h ****         else
 2227              		.loc 2 244 42 view .LVU523
 2228              	.LBE695:
 2229              	.LBE696:
 2230              	.LBE697:
 199:../../libdaisy/src/hid/disp/display.h ****         {
 2231              		.loc 3 199 26 is_stmt 1 view .LVU524
 189:../../libdaisy/src/hid/disp/display.h ****         int_fast16_t signY  = ((y1 < y2) ? 1 : -1);
 2232              		.loc 3 189 42 is_stmt 0 view .LVU525
 2233 0244 4FF0340C 		mov	ip, #52
 2234              	.LVL150:
 2235              	.L169:
 2236              	.LBB698:
 2237              	.LBI698:
  41:../../libdaisy/src/hid/disp/oled_display.h ****     {
 2238              		.loc 1 41 10 is_stmt 1 view .LVU526
 2239              	.LBB699:
 2240              	.LBI699:
 239:../../libdaisy/src/dev/oled_ssd130x.h ****     {
 2241              		.loc 2 239 10 view .LVU527
 2242              	.LBB700:
 244:../../libdaisy/src/dev/oled_ssd130x.h ****         else
 2243              		.loc 2 244 28 is_stmt 0 view .LVU528
 2244 0248 4FEADC02 		lsr	r2, ip, #3
 244:../../libdaisy/src/dev/oled_ssd130x.h ****         else
 2245              		.loc 2 244 48 view .LVU529
 2246 024c 4FF0010B 		mov	fp, #1
 244:../../libdaisy/src/dev/oled_ssd130x.h ****         else
 2247              		.loc 2 244 54 view .LVU530
 2248 0250 0CF00700 		and	r0, ip, #7
 241:../../libdaisy/src/dev/oled_ssd130x.h ****             return;
 2249              		.loc 2 241 9 view .LVU531
 2250 0254 B8F17F0F 		cmp	r8, #127
 244:../../libdaisy/src/dev/oled_ssd130x.h ****         else
 2251              		.loc 2 244 42 view .LVU532
 2252 0258 08EBC212 		add	r2, r8, r2, lsl #7
 2253              	.LBE700:
 2254              	.LBE699:
 2255              	.LBE698:
 202:../../libdaisy/src/hid/disp/display.h ****             if(error2 > -deltaY)
 2256              		.loc 3 202 20 view .LVU533
 2257 025c 01FA0BFE 		lsl	lr, r1, fp
 2258              	.LVL151:
 2259              	.LBB703:
 2260              	.LBB702:
 2261              	.LBB701:
 244:../../libdaisy/src/dev/oled_ssd130x.h ****         else
 2262              		.loc 2 244 48 view .LVU534
 2263 0260 0BFA00F0 		lsl	r0, fp, r0
 244:../../libdaisy/src/dev/oled_ssd130x.h ****         else
ARM GAS  C:\Users\VINCIU~1\AppData\Local\Temp\cc9kCTNX.s 			page 59


 2264              		.loc 2 244 42 view .LVU535
 2265 0264 2244     		add	r2, r2, r4
 241:../../libdaisy/src/dev/oled_ssd130x.h ****             return;
 2266              		.loc 2 241 9 view .LVU536
 2267 0266 07D8     		bhi	.L172
 241:../../libdaisy/src/dev/oled_ssd130x.h ****             return;
 2268              		.loc 2 241 9 view .LVU537
 2269 0268 BCF13F0F 		cmp	ip, #63
 2270 026c 04D8     		bhi	.L172
 244:../../libdaisy/src/dev/oled_ssd130x.h ****         else
 2271              		.loc 2 244 42 view .LVU538
 2272 026e 92F814B0 		ldrb	fp, [r2, #20]	@ zero_extendqisi2
 2273 0272 40EA0B00 		orr	r0, r0, fp
 2274 0276 1075     		strb	r0, [r2, #20]
 2275              	.L172:
 2276              	.LBE701:
 2277              	.LBE702:
 2278              	.LBE703:
 203:../../libdaisy/src/hid/disp/display.h ****             {
 2279              		.loc 3 203 13 view .LVU539
 2280 0278 1EF10E0F 		cmn	lr, #14
 2281 027c C0F24B84 		blt	.L173
 209:../../libdaisy/src/hid/disp/display.h ****             {
 2282              		.loc 3 209 13 view .LVU540
 2283 0280 F145     		cmp	r9, lr
 206:../../libdaisy/src/hid/disp/display.h ****             }
 2284              		.loc 3 206 20 view .LVU541
 2285 0282 D044     		add	r8, r8, r10
 2286              	.LVL152:
 205:../../libdaisy/src/hid/disp/display.h ****                 x1 += signX;
 2287              		.loc 3 205 23 view .LVU542
 2288 0284 A1F10F01 		sub	r1, r1, #15
 2289              	.LVL153:
 209:../../libdaisy/src/hid/disp/display.h ****             {
 2290              		.loc 3 209 13 view .LVU543
 2291 0288 00F34584 		bgt	.L173
 2292              	.L174:
 199:../../libdaisy/src/hid/disp/display.h ****         {
 2293              		.loc 3 199 26 is_stmt 1 view .LVU544
 2294 028c 4345     		cmp	r3, r8
 2295 028e DBD1     		bne	.L169
 199:../../libdaisy/src/hid/disp/display.h ****         {
 2296              		.loc 3 199 26 is_stmt 0 view .LVU545
 2297 0290 BCF1250F 		cmp	ip, #37
 2298 0294 D8D1     		bne	.L169
 2299              	.LVL154:
 2300              	.L170:
 199:../../libdaisy/src/hid/disp/display.h ****         {
 2301              		.loc 3 199 26 view .LVU546
 2302              	.LBE691:
 2303              	.LBE690:
  31:menus.cpp     ****     screen->DrawLine(screen->Width() / 2 - 10 + 6,
 2304              		.loc 4 31 5 is_stmt 1 view .LVU547
  32:menus.cpp     ****                      37,
  33:menus.cpp     ****                      screen->Width() / 2 - 10 + 6,
  34:menus.cpp     ****                      52,
  35:menus.cpp     ****                      !colorTemplate);
ARM GAS  C:\Users\VINCIU~1\AppData\Local\Temp\cc9kCTNX.s 			page 60


 2305              		.loc 4 35 36 is_stmt 0 view .LVU548
 2306 0296 2268     		ldr	r2, [r4]
  31:menus.cpp     ****     screen->DrawLine(screen->Width() / 2 - 10 + 6,
 2307              		.loc 4 31 36 view .LVU549
 2308 0298 D368     		ldr	r3, [r2, #12]
 2309              		.loc 4 35 36 view .LVU550
 2310 029a D2F81890 		ldr	r9, [r2, #24]
 2311 029e AB42     		cmp	r3, r5
 2312 02a0 40F02187 		bne	.L478
  31:menus.cpp     ****     screen->DrawLine(screen->Width() / 2 - 10 + 6,
 2313              		.loc 4 31 36 view .LVU551
 2314 02a4 4FF03C08 		mov	r8, #60
 2315 02a8 4FF0400A 		mov	r10, #64
 2316              	.L175:
 2317 02ac AB42     		cmp	r3, r5
 2318 02ae 40F01287 		bne	.L479
 2319 02b2 4021     		movs	r1, #64
 2320 02b4 3C23     		movs	r3, #60
 2321 02b6 0A46     		mov	r2, r1
 2322              	.L176:
 2323 02b8 B145     		cmp	r9, r6
 2324 02ba 40F00187 		bne	.L177
 2325              	.LVL155:
 2326              	.LBB705:
 2327              	.LBI705:
 181:../../libdaisy/src/hid/disp/display.h ****                   uint_fast8_t y1,
 2328              		.loc 3 181 10 is_stmt 1 view .LVU552
 2329              	.LBB706:
 187:../../libdaisy/src/hid/disp/display.h ****         int_fast16_t deltaY = abs((int_fast16_t)y2 - (int_fast16_t)y1);
 2330              		.loc 3 187 52 is_stmt 0 view .LVU553
 2331 02be A1EB0A01 		sub	r1, r1, r10
 189:../../libdaisy/src/hid/disp/display.h ****         int_fast16_t signY  = ((y1 < y2) ? 1 : -1);
 2332              		.loc 3 189 42 view .LVU554
 2333 02c2 4345     		cmp	r3, r8
 2334 02c4 8CBF     		ite	hi
 2335 02c6 4FF0010A 		movhi	r10, #1
 2336 02ca 4FF0FF3A 		movls	r10, #-1
 2337              	.LBB707:
 2338              	.LBB708:
 2339              	.LBB709:
 241:../../libdaisy/src/dev/oled_ssd130x.h ****             return;
 2340              		.loc 2 241 9 view .LVU555
 2341 02ce 7F2B     		cmp	r3, #127
 2342              	.LBE709:
 2343              	.LBE708:
 2344              	.LBE707:
 187:../../libdaisy/src/hid/disp/display.h ****         int_fast16_t deltaY = abs((int_fast16_t)y2 - (int_fast16_t)y1);
 2345              		.loc 3 187 22 view .LVU556
 2346 02d0 81EAE179 		eor	r9, r1, r1, asr #31
 2347 02d4 A9EBE179 		sub	r9, r9, r1, asr #31
 2348              	.LVL156:
 191:../../libdaisy/src/hid/disp/display.h ****         int_fast16_t error2;
 2349              		.loc 3 191 22 view .LVU557
 2350 02d8 A9F10F01 		sub	r1, r9, #15
 2351              	.LVL157:
 2352              	.LBB712:
 2353              	.LBI707:
ARM GAS  C:\Users\VINCIU~1\AppData\Local\Temp\cc9kCTNX.s 			page 61


  41:../../libdaisy/src/hid/disp/oled_display.h ****     {
 2354              		.loc 1 41 10 is_stmt 1 view .LVU558
 2355              	.LBB711:
 2356              	.LBI708:
 239:../../libdaisy/src/dev/oled_ssd130x.h ****     {
 2357              		.loc 2 239 10 view .LVU559
 2358              	.LBB710:
 241:../../libdaisy/src/dev/oled_ssd130x.h ****             return;
 2359              		.loc 2 241 9 is_stmt 0 view .LVU560
 2360 02dc 07D8     		bhi	.L179
 244:../../libdaisy/src/dev/oled_ssd130x.h ****         else
 2361              		.loc 2 244 42 view .LVU561
 2362 02de 02F53F72 		add	r2, r2, #764
 2363 02e2 14FA82F2 		uxtah	r2, r4, r2
 2364 02e6 107D     		ldrb	r0, [r2, #20]	@ zero_extendqisi2
 2365 02e8 40F01000 		orr	r0, r0, #16
 2366 02ec 1075     		strb	r0, [r2, #20]
 2367              	.L179:
 2368              	.LVL158:
 244:../../libdaisy/src/dev/oled_ssd130x.h ****         else
 2369              		.loc 2 244 42 view .LVU562
 2370              	.LBE710:
 2371              	.LBE711:
 2372              	.LBE712:
 199:../../libdaisy/src/hid/disp/display.h ****         {
 2373              		.loc 3 199 26 is_stmt 1 view .LVU563
 189:../../libdaisy/src/hid/disp/display.h ****         int_fast16_t signY  = ((y1 < y2) ? 1 : -1);
 2374              		.loc 3 189 42 is_stmt 0 view .LVU564
 2375 02ee 4FF0250C 		mov	ip, #37
 2376              	.LVL159:
 2377              	.L180:
 2378              	.LBB713:
 2379              	.LBI713:
  41:../../libdaisy/src/hid/disp/oled_display.h ****     {
 2380              		.loc 1 41 10 is_stmt 1 view .LVU565
 2381              	.LBB714:
 2382              	.LBI714:
 239:../../libdaisy/src/dev/oled_ssd130x.h ****     {
 2383              		.loc 2 239 10 view .LVU566
 2384              	.LBB715:
 244:../../libdaisy/src/dev/oled_ssd130x.h ****         else
 2385              		.loc 2 244 28 is_stmt 0 view .LVU567
 2386 02f2 4FEADC02 		lsr	r2, ip, #3
 244:../../libdaisy/src/dev/oled_ssd130x.h ****         else
 2387              		.loc 2 244 48 view .LVU568
 2388 02f6 4FF0010B 		mov	fp, #1
 244:../../libdaisy/src/dev/oled_ssd130x.h ****         else
 2389              		.loc 2 244 54 view .LVU569
 2390 02fa 0CF00700 		and	r0, ip, #7
 241:../../libdaisy/src/dev/oled_ssd130x.h ****             return;
 2391              		.loc 2 241 9 view .LVU570
 2392 02fe B8F17F0F 		cmp	r8, #127
 244:../../libdaisy/src/dev/oled_ssd130x.h ****         else
 2393              		.loc 2 244 42 view .LVU571
 2394 0302 08EBC212 		add	r2, r8, r2, lsl #7
 2395              	.LBE715:
 2396              	.LBE714:
ARM GAS  C:\Users\VINCIU~1\AppData\Local\Temp\cc9kCTNX.s 			page 62


 2397              	.LBE713:
 202:../../libdaisy/src/hid/disp/display.h ****             if(error2 > -deltaY)
 2398              		.loc 3 202 20 view .LVU572
 2399 0306 01FA0BFE 		lsl	lr, r1, fp
 2400              	.LVL160:
 2401              	.LBB718:
 2402              	.LBB717:
 2403              	.LBB716:
 244:../../libdaisy/src/dev/oled_ssd130x.h ****         else
 2404              		.loc 2 244 48 view .LVU573
 2405 030a 0BFA00F0 		lsl	r0, fp, r0
 244:../../libdaisy/src/dev/oled_ssd130x.h ****         else
 2406              		.loc 2 244 42 view .LVU574
 2407 030e 2244     		add	r2, r2, r4
 241:../../libdaisy/src/dev/oled_ssd130x.h ****             return;
 2408              		.loc 2 241 9 view .LVU575
 2409 0310 07D8     		bhi	.L183
 241:../../libdaisy/src/dev/oled_ssd130x.h ****             return;
 2410              		.loc 2 241 9 view .LVU576
 2411 0312 BCF13F0F 		cmp	ip, #63
 2412 0316 04D8     		bhi	.L183
 244:../../libdaisy/src/dev/oled_ssd130x.h ****         else
 2413              		.loc 2 244 42 view .LVU577
 2414 0318 92F814B0 		ldrb	fp, [r2, #20]	@ zero_extendqisi2
 2415 031c 40EA0B00 		orr	r0, r0, fp
 2416 0320 1075     		strb	r0, [r2, #20]
 2417              	.L183:
 2418              	.LBE716:
 2419              	.LBE717:
 2420              	.LBE718:
 203:../../libdaisy/src/hid/disp/display.h ****             {
 2421              		.loc 3 203 13 view .LVU578
 2422 0322 1EF10E0F 		cmn	lr, #14
 2423 0326 C0F2F283 		blt	.L184
 209:../../libdaisy/src/hid/disp/display.h ****             {
 2424              		.loc 3 209 13 view .LVU579
 2425 032a F145     		cmp	r9, lr
 206:../../libdaisy/src/hid/disp/display.h ****             }
 2426              		.loc 3 206 20 view .LVU580
 2427 032c D044     		add	r8, r8, r10
 2428              	.LVL161:
 205:../../libdaisy/src/hid/disp/display.h ****                 x1 += signX;
 2429              		.loc 3 205 23 view .LVU581
 2430 032e A1F10F01 		sub	r1, r1, #15
 2431              	.LVL162:
 209:../../libdaisy/src/hid/disp/display.h ****             {
 2432              		.loc 3 209 13 view .LVU582
 2433 0332 00F3EC83 		bgt	.L184
 2434              	.L185:
 199:../../libdaisy/src/hid/disp/display.h ****         {
 2435              		.loc 3 199 26 is_stmt 1 view .LVU583
 2436 0336 9845     		cmp	r8, r3
 2437 0338 DBD1     		bne	.L180
 199:../../libdaisy/src/hid/disp/display.h ****         {
 2438              		.loc 3 199 26 is_stmt 0 view .LVU584
 2439 033a BCF1340F 		cmp	ip, #52
 2440 033e D8D1     		bne	.L180
ARM GAS  C:\Users\VINCIU~1\AppData\Local\Temp\cc9kCTNX.s 			page 63


 2441              	.LVL163:
 2442              	.L181:
 199:../../libdaisy/src/hid/disp/display.h ****         {
 2443              		.loc 3 199 26 view .LVU585
 2444              	.LBE706:
 2445              	.LBE705:
  36:menus.cpp     ****     //H
  37:menus.cpp     ****     screen->DrawLine(screen->Width() / 2 - 10 + 8,
 2446              		.loc 4 37 5 is_stmt 1 view .LVU586
  38:menus.cpp     ****                      52,
  39:menus.cpp     ****                      screen->Width() / 2 - 10 + 8,
  40:menus.cpp     ****                      37,
  41:menus.cpp     ****                      !colorTemplate);
 2447              		.loc 4 41 36 is_stmt 0 view .LVU587
 2448 0340 2268     		ldr	r2, [r4]
  37:menus.cpp     ****                      52,
 2449              		.loc 4 37 36 view .LVU588
 2450 0342 D368     		ldr	r3, [r2, #12]
 2451              		.loc 4 41 36 view .LVU589
 2452 0344 D2F81890 		ldr	r9, [r2, #24]
 2453 0348 AB42     		cmp	r3, r5
 2454 034a 40F09186 		bne	.L480
  37:menus.cpp     ****                      52,
 2455              		.loc 4 37 36 view .LVU590
 2456 034e 4FF03E08 		mov	r8, #62
 2457 0352 4FF0400A 		mov	r10, #64
 2458              	.L186:
 2459 0356 AB42     		cmp	r3, r5
 2460 0358 40F08286 		bne	.L481
 2461 035c 4021     		movs	r1, #64
 2462 035e 3E23     		movs	r3, #62
 2463 0360 0A46     		mov	r2, r1
 2464              	.L187:
 2465 0362 B145     		cmp	r9, r6
 2466 0364 40F07186 		bne	.L188
 2467              	.LVL164:
 2468              	.LBB720:
 2469              	.LBI720:
 181:../../libdaisy/src/hid/disp/display.h ****                   uint_fast8_t y1,
 2470              		.loc 3 181 10 is_stmt 1 view .LVU591
 2471              	.LBB721:
 187:../../libdaisy/src/hid/disp/display.h ****         int_fast16_t deltaY = abs((int_fast16_t)y2 - (int_fast16_t)y1);
 2472              		.loc 3 187 52 is_stmt 0 view .LVU592
 2473 0368 A1EB0A01 		sub	r1, r1, r10
 189:../../libdaisy/src/hid/disp/display.h ****         int_fast16_t signY  = ((y1 < y2) ? 1 : -1);
 2474              		.loc 3 189 42 view .LVU593
 2475 036c 4345     		cmp	r3, r8
 2476 036e 8CBF     		ite	hi
 2477 0370 4FF0010A 		movhi	r10, #1
 2478 0374 4FF0FF3A 		movls	r10, #-1
 2479              	.LBB722:
 2480              	.LBB723:
 2481              	.LBB724:
 241:../../libdaisy/src/dev/oled_ssd130x.h ****             return;
 2482              		.loc 2 241 9 view .LVU594
 2483 0378 7F2B     		cmp	r3, #127
 2484              	.LBE724:
ARM GAS  C:\Users\VINCIU~1\AppData\Local\Temp\cc9kCTNX.s 			page 64


 2485              	.LBE723:
 2486              	.LBE722:
 187:../../libdaisy/src/hid/disp/display.h ****         int_fast16_t deltaY = abs((int_fast16_t)y2 - (int_fast16_t)y1);
 2487              		.loc 3 187 22 view .LVU595
 2488 037a 81EAE179 		eor	r9, r1, r1, asr #31
 2489 037e A9EBE179 		sub	r9, r9, r1, asr #31
 2490              	.LVL165:
 191:../../libdaisy/src/hid/disp/display.h ****         int_fast16_t error2;
 2491              		.loc 3 191 22 view .LVU596
 2492 0382 A9F10F01 		sub	r1, r9, #15
 2493              	.LVL166:
 2494              	.LBB727:
 2495              	.LBI722:
  41:../../libdaisy/src/hid/disp/oled_display.h ****     {
 2496              		.loc 1 41 10 is_stmt 1 view .LVU597
 2497              	.LBB726:
 2498              	.LBI723:
 239:../../libdaisy/src/dev/oled_ssd130x.h ****     {
 2499              		.loc 2 239 10 view .LVU598
 2500              	.LBB725:
 241:../../libdaisy/src/dev/oled_ssd130x.h ****             return;
 2501              		.loc 2 241 9 is_stmt 0 view .LVU599
 2502 0386 07D8     		bhi	.L190
 244:../../libdaisy/src/dev/oled_ssd130x.h ****         else
 2503              		.loc 2 244 42 view .LVU600
 2504 0388 02F5FF72 		add	r2, r2, #510
 2505 038c 14FA82F2 		uxtah	r2, r4, r2
 2506 0390 107D     		ldrb	r0, [r2, #20]	@ zero_extendqisi2
 2507 0392 40F02000 		orr	r0, r0, #32
 2508 0396 1075     		strb	r0, [r2, #20]
 2509              	.L190:
 2510              	.LVL167:
 244:../../libdaisy/src/dev/oled_ssd130x.h ****         else
 2511              		.loc 2 244 42 view .LVU601
 2512              	.LBE725:
 2513              	.LBE726:
 2514              	.LBE727:
 199:../../libdaisy/src/hid/disp/display.h ****         {
 2515              		.loc 3 199 26 is_stmt 1 view .LVU602
 189:../../libdaisy/src/hid/disp/display.h ****         int_fast16_t signY  = ((y1 < y2) ? 1 : -1);
 2516              		.loc 3 189 42 is_stmt 0 view .LVU603
 2517 0398 4FF0340C 		mov	ip, #52
 2518              	.LVL168:
 2519              	.L191:
 2520              	.LBB728:
 2521              	.LBI728:
  41:../../libdaisy/src/hid/disp/oled_display.h ****     {
 2522              		.loc 1 41 10 is_stmt 1 view .LVU604
 2523              	.LBB729:
 2524              	.LBI729:
 239:../../libdaisy/src/dev/oled_ssd130x.h ****     {
 2525              		.loc 2 239 10 view .LVU605
 2526              	.LBB730:
 244:../../libdaisy/src/dev/oled_ssd130x.h ****         else
 2527              		.loc 2 244 28 is_stmt 0 view .LVU606
 2528 039c 4FEADC02 		lsr	r2, ip, #3
 244:../../libdaisy/src/dev/oled_ssd130x.h ****         else
ARM GAS  C:\Users\VINCIU~1\AppData\Local\Temp\cc9kCTNX.s 			page 65


 2529              		.loc 2 244 48 view .LVU607
 2530 03a0 4FF0010B 		mov	fp, #1
 244:../../libdaisy/src/dev/oled_ssd130x.h ****         else
 2531              		.loc 2 244 54 view .LVU608
 2532 03a4 0CF00700 		and	r0, ip, #7
 241:../../libdaisy/src/dev/oled_ssd130x.h ****             return;
 2533              		.loc 2 241 9 view .LVU609
 2534 03a8 B8F17F0F 		cmp	r8, #127
 244:../../libdaisy/src/dev/oled_ssd130x.h ****         else
 2535              		.loc 2 244 42 view .LVU610
 2536 03ac 08EBC212 		add	r2, r8, r2, lsl #7
 2537              	.LBE730:
 2538              	.LBE729:
 2539              	.LBE728:
 202:../../libdaisy/src/hid/disp/display.h ****             if(error2 > -deltaY)
 2540              		.loc 3 202 20 view .LVU611
 2541 03b0 01FA0BFE 		lsl	lr, r1, fp
 2542              	.LVL169:
 2543              	.LBB733:
 2544              	.LBB732:
 2545              	.LBB731:
 244:../../libdaisy/src/dev/oled_ssd130x.h ****         else
 2546              		.loc 2 244 48 view .LVU612
 2547 03b4 0BFA00F0 		lsl	r0, fp, r0
 244:../../libdaisy/src/dev/oled_ssd130x.h ****         else
 2548              		.loc 2 244 42 view .LVU613
 2549 03b8 2244     		add	r2, r2, r4
 241:../../libdaisy/src/dev/oled_ssd130x.h ****             return;
 2550              		.loc 2 241 9 view .LVU614
 2551 03ba 07D8     		bhi	.L194
 241:../../libdaisy/src/dev/oled_ssd130x.h ****             return;
 2552              		.loc 2 241 9 view .LVU615
 2553 03bc BCF13F0F 		cmp	ip, #63
 2554 03c0 04D8     		bhi	.L194
 244:../../libdaisy/src/dev/oled_ssd130x.h ****         else
 2555              		.loc 2 244 42 view .LVU616
 2556 03c2 92F814B0 		ldrb	fp, [r2, #20]	@ zero_extendqisi2
 2557 03c6 40EA0B00 		orr	r0, r0, fp
 2558 03ca 1075     		strb	r0, [r2, #20]
 2559              	.L194:
 2560              	.LBE731:
 2561              	.LBE732:
 2562              	.LBE733:
 203:../../libdaisy/src/hid/disp/display.h ****             {
 2563              		.loc 3 203 13 view .LVU617
 2564 03cc 1EF10E0F 		cmn	lr, #14
 2565 03d0 C0F29983 		blt	.L195
 209:../../libdaisy/src/hid/disp/display.h ****             {
 2566              		.loc 3 209 13 view .LVU618
 2567 03d4 F145     		cmp	r9, lr
 206:../../libdaisy/src/hid/disp/display.h ****             }
 2568              		.loc 3 206 20 view .LVU619
 2569 03d6 D044     		add	r8, r8, r10
 2570              	.LVL170:
 205:../../libdaisy/src/hid/disp/display.h ****                 x1 += signX;
 2571              		.loc 3 205 23 view .LVU620
 2572 03d8 A1F10F01 		sub	r1, r1, #15
ARM GAS  C:\Users\VINCIU~1\AppData\Local\Temp\cc9kCTNX.s 			page 66


 2573              	.LVL171:
 209:../../libdaisy/src/hid/disp/display.h ****             {
 2574              		.loc 3 209 13 view .LVU621
 2575 03dc 00F39383 		bgt	.L195
 2576              	.L196:
 199:../../libdaisy/src/hid/disp/display.h ****         {
 2577              		.loc 3 199 26 is_stmt 1 view .LVU622
 2578 03e0 4345     		cmp	r3, r8
 2579 03e2 DBD1     		bne	.L191
 199:../../libdaisy/src/hid/disp/display.h ****         {
 2580              		.loc 3 199 26 is_stmt 0 view .LVU623
 2581 03e4 BCF1250F 		cmp	ip, #37
 2582 03e8 D8D1     		bne	.L191
 2583 03ea 01E0     		b	.L519
 2584              	.L520:
 2585              		.align	2
 2586              	.L518:
 2587 03ec 00000000 		.word	_ZN5daisy25OneBitGraphicsDisplayImplINS_11OledDisplayINS_13SSD130xDriverILj128ELj64ENS_24SSD
 2588              	.L519:
 2589              	.LVL172:
 2590              	.L192:
 199:../../libdaisy/src/hid/disp/display.h ****         {
 2591              		.loc 3 199 26 view .LVU624
 2592              	.LBE721:
 2593              	.LBE720:
  42:menus.cpp     ****     screen->DrawLine(screen->Width() / 2 - 10 + 8,
 2594              		.loc 4 42 5 is_stmt 1 view .LVU625
  43:menus.cpp     ****                      45,
  44:menus.cpp     ****                      screen->Width() / 2 - 10 + 11,
  45:menus.cpp     ****                      45,
  46:menus.cpp     ****                      !colorTemplate);
 2595              		.loc 4 46 36 is_stmt 0 view .LVU626
 2596 03f0 2268     		ldr	r2, [r4]
  42:menus.cpp     ****     screen->DrawLine(screen->Width() / 2 - 10 + 8,
 2597              		.loc 4 42 36 view .LVU627
 2598 03f2 D368     		ldr	r3, [r2, #12]
 2599              		.loc 4 46 36 view .LVU628
 2600 03f4 D2F81890 		ldr	r9, [r2, #24]
 2601 03f8 AB42     		cmp	r3, r5
 2602 03fa 40F00686 		bne	.L482
  42:menus.cpp     ****     screen->DrawLine(screen->Width() / 2 - 10 + 8,
 2603              		.loc 4 42 36 view .LVU629
 2604 03fe 4FF03E08 		mov	r8, #62
 2605 0402 AB42     		cmp	r3, r5
 2606 0404 C246     		mov	r10, r8
 2607 0406 40F00C86 		bne	.L483
 2608              	.L356:
 2609 040a 4123     		movs	r3, #65
 2610 040c B145     		cmp	r9, r6
 2611 040e 4FF04000 		mov	r0, #64
 2612 0412 1A46     		mov	r2, r3
 2613 0414 40F01086 		bne	.L199
 2614              	.L515:
 2615              	.LVL173:
 2616              	.LBB735:
 2617              	.LBI735:
 181:../../libdaisy/src/hid/disp/display.h ****                   uint_fast8_t y1,
ARM GAS  C:\Users\VINCIU~1\AppData\Local\Temp\cc9kCTNX.s 			page 67


 2618              		.loc 3 181 10 is_stmt 1 view .LVU630
 2619              	.LBB736:
 187:../../libdaisy/src/hid/disp/display.h ****         int_fast16_t deltaY = abs((int_fast16_t)y2 - (int_fast16_t)y1);
 2620              		.loc 3 187 52 is_stmt 0 view .LVU631
 2621 0418 A2EB0A0E 		sub	lr, r2, r10
 187:../../libdaisy/src/hid/disp/display.h ****         int_fast16_t deltaY = abs((int_fast16_t)y2 - (int_fast16_t)y1);
 2622              		.loc 3 187 22 view .LVU632
 2623 041c BEF1000F 		cmp	lr, #0
 2624 0420 B8BF     		it	lt
 2625 0422 CEF1000E 		rsblt	lr, lr, #0
 2626              	.LVL174:
 189:../../libdaisy/src/hid/disp/display.h ****         int_fast16_t signY  = ((y1 < y2) ? 1 : -1);
 2627              		.loc 3 189 42 view .LVU633
 2628 0426 4345     		cmp	r3, r8
 2629 0428 00F28483 		bhi	.L200
 2630              	.LVL175:
 2631              	.LBB737:
 2632              	.LBI737:
  41:../../libdaisy/src/hid/disp/oled_display.h ****     {
 2633              		.loc 1 41 10 is_stmt 1 view .LVU634
 2634              	.LBB738:
 2635              	.LBI738:
 239:../../libdaisy/src/dev/oled_ssd130x.h ****     {
 2636              		.loc 2 239 10 view .LVU635
 2637              	.LBB739:
 241:../../libdaisy/src/dev/oled_ssd130x.h ****             return;
 2638              		.loc 2 241 9 is_stmt 0 view .LVU636
 2639 042c 7F2A     		cmp	r2, #127
 2640              	.LBE739:
 2641              	.LBE738:
 2642              	.LBE737:
 189:../../libdaisy/src/hid/disp/display.h ****         int_fast16_t signY  = ((y1 < y2) ? 1 : -1);
 2643              		.loc 3 189 42 view .LVU637
 2644 042e 4FF0FF3A 		mov	r10, #-1
 2645              	.LBB746:
 2646              	.LBB743:
 2647              	.LBB740:
 241:../../libdaisy/src/dev/oled_ssd130x.h ****             return;
 2648              		.loc 2 241 9 view .LVU638
 2649 0432 07D8     		bhi	.L201
 2650              	.LVL176:
 2651              	.L337:
 244:../../libdaisy/src/dev/oled_ssd130x.h ****         else
 2652              		.loc 2 244 42 view .LVU639
 2653 0434 00F28122 		addw	r2, r0, #641
 2654 0438 14FA82F2 		uxtah	r2, r4, r2
 2655 043c 117D     		ldrb	r1, [r2, #20]	@ zero_extendqisi2
 2656 043e 41F02001 		orr	r1, r1, #32
 2657 0442 1175     		strb	r1, [r2, #20]
 2658              	.L201:
 2659              	.LVL177:
 244:../../libdaisy/src/dev/oled_ssd130x.h ****         else
 2660              		.loc 2 244 42 view .LVU640
 2661              	.LBE740:
 2662              	.LBE743:
 2663              	.LBE746:
 199:../../libdaisy/src/hid/disp/display.h ****         {
ARM GAS  C:\Users\VINCIU~1\AppData\Local\Temp\cc9kCTNX.s 			page 68


 2664              		.loc 3 199 26 is_stmt 1 view .LVU641
 2665 0444 4345     		cmp	r3, r8
 2666 0446 20D0     		beq	.L203
 2667              	.L202:
 2668              	.LVL178:
 187:../../libdaisy/src/hid/disp/display.h ****         int_fast16_t deltaY = abs((int_fast16_t)y2 - (int_fast16_t)y1);
 2669              		.loc 3 187 22 is_stmt 0 view .LVU642
 2670 0448 F446     		mov	ip, lr
 2671 044a 2D21     		movs	r1, #45
 2672              	.L206:
 2673              	.LVL179:
 2674              	.LBB747:
 2675              	.LBI747:
  41:../../libdaisy/src/hid/disp/oled_display.h ****     {
 2676              		.loc 1 41 10 is_stmt 1 view .LVU643
 2677              	.LBB748:
 2678              	.LBI748:
 239:../../libdaisy/src/dev/oled_ssd130x.h ****     {
 2679              		.loc 2 239 10 view .LVU644
 2680              	.LBB749:
 244:../../libdaisy/src/dev/oled_ssd130x.h ****         else
 2681              		.loc 2 244 28 is_stmt 0 view .LVU645
 2682 044c CA08     		lsrs	r2, r1, #3
 244:../../libdaisy/src/dev/oled_ssd130x.h ****         else
 2683              		.loc 2 244 54 view .LVU646
 2684 044e 01F00709 		and	r9, r1, #7
 244:../../libdaisy/src/dev/oled_ssd130x.h ****         else
 2685              		.loc 2 244 48 view .LVU647
 2686 0452 0120     		movs	r0, #1
 241:../../libdaisy/src/dev/oled_ssd130x.h ****             return;
 2687              		.loc 2 241 9 view .LVU648
 2688 0454 B8F17F0F 		cmp	r8, #127
 244:../../libdaisy/src/dev/oled_ssd130x.h ****         else
 2689              		.loc 2 244 42 view .LVU649
 2690 0458 08EBC212 		add	r2, r8, r2, lsl #7
 244:../../libdaisy/src/dev/oled_ssd130x.h ****         else
 2691              		.loc 2 244 48 view .LVU650
 2692 045c 00FA09F0 		lsl	r0, r0, r9
 241:../../libdaisy/src/dev/oled_ssd130x.h ****             return;
 2693              		.loc 2 241 9 view .LVU651
 2694 0460 07D8     		bhi	.L207
 2695 0462 3F29     		cmp	r1, #63
 244:../../libdaisy/src/dev/oled_ssd130x.h ****         else
 2696              		.loc 2 244 42 view .LVU652
 2697 0464 2244     		add	r2, r2, r4
 241:../../libdaisy/src/dev/oled_ssd130x.h ****             return;
 2698              		.loc 2 241 9 view .LVU653
 2699 0466 04D8     		bhi	.L207
 244:../../libdaisy/src/dev/oled_ssd130x.h ****         else
 2700              		.loc 2 244 42 view .LVU654
 2701 0468 92F81490 		ldrb	r9, [r2, #20]	@ zero_extendqisi2
 2702 046c 40EA0900 		orr	r0, r0, r9
 2703 0470 1075     		strb	r0, [r2, #20]
 2704              	.L207:
 244:../../libdaisy/src/dev/oled_ssd130x.h ****         else
 2705              		.loc 2 244 42 view .LVU655
 2706              	.LBE749:
ARM GAS  C:\Users\VINCIU~1\AppData\Local\Temp\cc9kCTNX.s 			page 69


 2707              	.LBE748:
 2708              	.LBE747:
 203:../../libdaisy/src/hid/disp/display.h ****             {
 2709              		.loc 3 203 13 view .LVU656
 2710 0472 5FEA4C02 		lsls	r2, ip, #1
 206:../../libdaisy/src/hid/disp/display.h ****             }
 2711              		.loc 3 206 20 view .LVU657
 2712 0476 18BF     		it	ne
 2713 0478 D044     		addne	r8, r8, r10
 2714              	.LVL180:
 209:../../libdaisy/src/hid/disp/display.h ****             {
 2715              		.loc 3 209 13 view .LVU658
 2716 047a 9645     		cmp	lr, r2
 2717 047c 01DD     		ble	.L209
 211:../../libdaisy/src/hid/disp/display.h ****                 y1 += signY;
 2718              		.loc 3 211 23 view .LVU659
 2719 047e F444     		add	ip, ip, lr
 2720              	.LVL181:
 212:../../libdaisy/src/hid/disp/display.h ****             }
 2721              		.loc 3 212 20 view .LVU660
 2722 0480 0139     		subs	r1, r1, #1
 2723              	.LVL182:
 2724              	.L209:
 199:../../libdaisy/src/hid/disp/display.h ****         {
 2725              		.loc 3 199 26 is_stmt 1 view .LVU661
 2726 0482 9845     		cmp	r8, r3
 2727 0484 E2D1     		bne	.L206
 199:../../libdaisy/src/hid/disp/display.h ****         {
 2728              		.loc 3 199 26 is_stmt 0 view .LVU662
 2729 0486 2D29     		cmp	r1, #45
 2730 0488 E0D1     		bne	.L206
 2731              	.LVL183:
 2732              	.L203:
 199:../../libdaisy/src/hid/disp/display.h ****         {
 2733              		.loc 3 199 26 view .LVU663
 2734              	.LBE736:
 2735              	.LBE735:
  47:menus.cpp     ****     screen->DrawLine(screen->Width() / 2 - 10 + 11,
 2736              		.loc 4 47 5 is_stmt 1 view .LVU664
  48:menus.cpp     ****                      52,
  49:menus.cpp     ****                      screen->Width() / 2 - 10 + 11,
  50:menus.cpp     ****                      37,
  51:menus.cpp     ****                      !colorTemplate);
 2737              		.loc 4 51 36 is_stmt 0 view .LVU665
 2738 048a 2268     		ldr	r2, [r4]
  47:menus.cpp     ****     screen->DrawLine(screen->Width() / 2 - 10 + 11,
 2739              		.loc 4 47 36 view .LVU666
 2740 048c D368     		ldr	r3, [r2, #12]
 2741              		.loc 4 51 36 view .LVU667
 2742 048e D2F81890 		ldr	r9, [r2, #24]
 2743 0492 AB42     		cmp	r3, r5
 2744 0494 40F0AC85 		bne	.L484
  47:menus.cpp     ****     screen->DrawLine(screen->Width() / 2 - 10 + 11,
 2745              		.loc 4 47 36 view .LVU668
 2746 0498 4FF04108 		mov	r8, #65
 2747 049c C246     		mov	r10, r8
 2748              	.L210:
ARM GAS  C:\Users\VINCIU~1\AppData\Local\Temp\cc9kCTNX.s 			page 70


 2749 049e AB42     		cmp	r3, r5
 2750 04a0 40F05884 		bne	.L485
 2751 04a4 4123     		movs	r3, #65
 2752 04a6 B145     		cmp	r9, r6
 2753 04a8 4FF04002 		mov	r2, #64
 2754 04ac 1846     		mov	r0, r3
 2755 04ae 40F05C84 		bne	.L212
 2756              	.L507:
 2757              	.LVL184:
 2758              	.LBB753:
 2759              	.LBI753:
 181:../../libdaisy/src/hid/disp/display.h ****                   uint_fast8_t y1,
 2760              		.loc 3 181 10 is_stmt 1 view .LVU669
 2761              	.LBB754:
 187:../../libdaisy/src/hid/disp/display.h ****         int_fast16_t deltaY = abs((int_fast16_t)y2 - (int_fast16_t)y1);
 2762              		.loc 3 187 52 is_stmt 0 view .LVU670
 2763 04b2 A0EB0A09 		sub	r9, r0, r10
 187:../../libdaisy/src/hid/disp/display.h ****         int_fast16_t deltaY = abs((int_fast16_t)y2 - (int_fast16_t)y1);
 2764              		.loc 3 187 22 view .LVU671
 2765 04b6 B9F1000F 		cmp	r9, #0
 2766 04ba B8BF     		it	lt
 2767 04bc C9F10009 		rsblt	r9, r9, #0
 2768              	.LVL185:
 189:../../libdaisy/src/hid/disp/display.h ****         int_fast16_t signY  = ((y1 < y2) ? 1 : -1);
 2769              		.loc 3 189 42 view .LVU672
 2770 04c0 4345     		cmp	r3, r8
 2771 04c2 8CBF     		ite	hi
 2772 04c4 4FF0010A 		movhi	r10, #1
 2773 04c8 4FF0FF3A 		movls	r10, #-1
 2774              	.LVL186:
 2775              	.LBB755:
 2776              	.LBB756:
 2777              	.LBB757:
 241:../../libdaisy/src/dev/oled_ssd130x.h ****             return;
 2778              		.loc 2 241 9 view .LVU673
 2779 04cc 7F28     		cmp	r0, #127
 2780              	.LBE757:
 2781              	.LBE756:
 2782              	.LBE755:
 191:../../libdaisy/src/hid/disp/display.h ****         int_fast16_t error2;
 2783              		.loc 3 191 22 view .LVU674
 2784 04ce A9F10F01 		sub	r1, r9, #15
 2785              	.LVL187:
 2786              	.LBB760:
 2787              	.LBI755:
  41:../../libdaisy/src/hid/disp/oled_display.h ****     {
 2788              		.loc 1 41 10 is_stmt 1 view .LVU675
 2789              	.LBB759:
 2790              	.LBI756:
 239:../../libdaisy/src/dev/oled_ssd130x.h ****     {
 2791              		.loc 2 239 10 view .LVU676
 2792              	.LBB758:
 241:../../libdaisy/src/dev/oled_ssd130x.h ****             return;
 2793              		.loc 2 241 9 is_stmt 0 view .LVU677
 2794 04d2 07D8     		bhi	.L214
 244:../../libdaisy/src/dev/oled_ssd130x.h ****         else
 2795              		.loc 2 244 42 view .LVU678
ARM GAS  C:\Users\VINCIU~1\AppData\Local\Temp\cc9kCTNX.s 			page 71


 2796 04d4 02F20122 		addw	r2, r2, #513
 2797 04d8 14FA82F2 		uxtah	r2, r4, r2
 2798 04dc 107D     		ldrb	r0, [r2, #20]	@ zero_extendqisi2
 2799 04de 40F02000 		orr	r0, r0, #32
 2800 04e2 1075     		strb	r0, [r2, #20]
 2801              	.L214:
 2802              	.LVL188:
 244:../../libdaisy/src/dev/oled_ssd130x.h ****         else
 2803              		.loc 2 244 42 view .LVU679
 2804              	.LBE758:
 2805              	.LBE759:
 2806              	.LBE760:
 199:../../libdaisy/src/hid/disp/display.h ****         {
 2807              		.loc 3 199 26 is_stmt 1 view .LVU680
 189:../../libdaisy/src/hid/disp/display.h ****         int_fast16_t signY  = ((y1 < y2) ? 1 : -1);
 2808              		.loc 3 189 42 is_stmt 0 view .LVU681
 2809 04e4 4FF0340C 		mov	ip, #52
 2810              	.LVL189:
 2811              	.L215:
 2812              	.LBB761:
 2813              	.LBI761:
  41:../../libdaisy/src/hid/disp/oled_display.h ****     {
 2814              		.loc 1 41 10 is_stmt 1 view .LVU682
 2815              	.LBB762:
 2816              	.LBI762:
 239:../../libdaisy/src/dev/oled_ssd130x.h ****     {
 2817              		.loc 2 239 10 view .LVU683
 2818              	.LBB763:
 244:../../libdaisy/src/dev/oled_ssd130x.h ****         else
 2819              		.loc 2 244 28 is_stmt 0 view .LVU684
 2820 04e8 4FEADC02 		lsr	r2, ip, #3
 244:../../libdaisy/src/dev/oled_ssd130x.h ****         else
 2821              		.loc 2 244 48 view .LVU685
 2822 04ec 4FF0010B 		mov	fp, #1
 244:../../libdaisy/src/dev/oled_ssd130x.h ****         else
 2823              		.loc 2 244 54 view .LVU686
 2824 04f0 0CF00700 		and	r0, ip, #7
 241:../../libdaisy/src/dev/oled_ssd130x.h ****             return;
 2825              		.loc 2 241 9 view .LVU687
 2826 04f4 B8F17F0F 		cmp	r8, #127
 244:../../libdaisy/src/dev/oled_ssd130x.h ****         else
 2827              		.loc 2 244 42 view .LVU688
 2828 04f8 08EBC212 		add	r2, r8, r2, lsl #7
 2829              	.LBE763:
 2830              	.LBE762:
 2831              	.LBE761:
 202:../../libdaisy/src/hid/disp/display.h ****             if(error2 > -deltaY)
 2832              		.loc 3 202 20 view .LVU689
 2833 04fc 01FA0BFE 		lsl	lr, r1, fp
 2834              	.LVL190:
 2835              	.LBB766:
 2836              	.LBB765:
 2837              	.LBB764:
 244:../../libdaisy/src/dev/oled_ssd130x.h ****         else
 2838              		.loc 2 244 48 view .LVU690
 2839 0500 0BFA00F0 		lsl	r0, fp, r0
 244:../../libdaisy/src/dev/oled_ssd130x.h ****         else
ARM GAS  C:\Users\VINCIU~1\AppData\Local\Temp\cc9kCTNX.s 			page 72


 2840              		.loc 2 244 42 view .LVU691
 2841 0504 2244     		add	r2, r2, r4
 241:../../libdaisy/src/dev/oled_ssd130x.h ****             return;
 2842              		.loc 2 241 9 view .LVU692
 2843 0506 07D8     		bhi	.L218
 241:../../libdaisy/src/dev/oled_ssd130x.h ****             return;
 2844              		.loc 2 241 9 view .LVU693
 2845 0508 BCF13F0F 		cmp	ip, #63
 2846 050c 04D8     		bhi	.L218
 244:../../libdaisy/src/dev/oled_ssd130x.h ****         else
 2847              		.loc 2 244 42 view .LVU694
 2848 050e 92F814B0 		ldrb	fp, [r2, #20]	@ zero_extendqisi2
 2849 0512 40EA0B00 		orr	r0, r0, fp
 2850 0516 1075     		strb	r0, [r2, #20]
 2851              	.L218:
 2852              	.LBE764:
 2853              	.LBE765:
 2854              	.LBE766:
 203:../../libdaisy/src/hid/disp/display.h ****             {
 2855              		.loc 3 203 13 view .LVU695
 2856 0518 1EF10E0F 		cmn	lr, #14
 2857 051c C0F22883 		blt	.L219
 209:../../libdaisy/src/hid/disp/display.h ****             {
 2858              		.loc 3 209 13 view .LVU696
 2859 0520 F145     		cmp	r9, lr
 206:../../libdaisy/src/hid/disp/display.h ****             }
 2860              		.loc 3 206 20 view .LVU697
 2861 0522 D044     		add	r8, r8, r10
 2862              	.LVL191:
 205:../../libdaisy/src/hid/disp/display.h ****                 x1 += signX;
 2863              		.loc 3 205 23 view .LVU698
 2864 0524 A1F10F01 		sub	r1, r1, #15
 2865              	.LVL192:
 209:../../libdaisy/src/hid/disp/display.h ****             {
 2866              		.loc 3 209 13 view .LVU699
 2867 0528 00F32283 		bgt	.L219
 2868              	.L220:
 199:../../libdaisy/src/hid/disp/display.h ****         {
 2869              		.loc 3 199 26 is_stmt 1 view .LVU700
 2870 052c 9845     		cmp	r8, r3
 2871 052e DBD1     		bne	.L215
 199:../../libdaisy/src/hid/disp/display.h ****         {
 2872              		.loc 3 199 26 is_stmt 0 view .LVU701
 2873 0530 BCF1250F 		cmp	ip, #37
 2874 0534 D8D1     		bne	.L215
 2875              	.LVL193:
 199:../../libdaisy/src/hid/disp/display.h ****         {
 2876              		.loc 3 199 26 view .LVU702
 2877              	.LBE754:
 2878              	.LBE753:
  52:menus.cpp     ****     //N
  53:menus.cpp     ****     screen->DrawLine(screen->Width() / 2 - 10 + 13,
 2879              		.loc 4 53 5 is_stmt 1 view .LVU703
  54:menus.cpp     ****                      37,
  55:menus.cpp     ****                      screen->Width() / 2 - 10 + 13,
  56:menus.cpp     ****                      52,
  57:menus.cpp     ****                      !colorTemplate);
ARM GAS  C:\Users\VINCIU~1\AppData\Local\Temp\cc9kCTNX.s 			page 73


 2880              		.loc 4 57 36 is_stmt 0 view .LVU704
 2881 0536 2268     		ldr	r2, [r4]
  53:menus.cpp     ****                      37,
 2882              		.loc 4 53 36 view .LVU705
 2883 0538 D368     		ldr	r3, [r2, #12]
 2884              		.loc 4 57 36 view .LVU706
 2885 053a D2F81890 		ldr	r9, [r2, #24]
 2886 053e AB42     		cmp	r3, r5
 2887 0540 40F02284 		bne	.L486
 2888              	.LVL194:
 2889              	.L361:
  53:menus.cpp     ****                      37,
 2890              		.loc 4 53 36 view .LVU707
 2891 0544 4FF04308 		mov	r8, #67
 2892 0548 AB42     		cmp	r3, r5
 2893 054a C246     		mov	r10, r8
 2894 054c 40F02A84 		bne	.L487
 2895              	.L362:
 2896 0550 4323     		movs	r3, #67
 2897 0552 B145     		cmp	r9, r6
 2898 0554 4FF04002 		mov	r2, #64
 2899 0558 1846     		mov	r0, r3
 2900 055a 40F02E84 		bne	.L223
 2901              	.L508:
 2902              	.LVL195:
 2903              	.LBB768:
 2904              	.LBI768:
 181:../../libdaisy/src/hid/disp/display.h ****                   uint_fast8_t y1,
 2905              		.loc 3 181 10 is_stmt 1 view .LVU708
 2906              	.LBB769:
 187:../../libdaisy/src/hid/disp/display.h ****         int_fast16_t deltaY = abs((int_fast16_t)y2 - (int_fast16_t)y1);
 2907              		.loc 3 187 52 is_stmt 0 view .LVU709
 2908 055e A0EB0A09 		sub	r9, r0, r10
 187:../../libdaisy/src/hid/disp/display.h ****         int_fast16_t deltaY = abs((int_fast16_t)y2 - (int_fast16_t)y1);
 2909              		.loc 3 187 22 view .LVU710
 2910 0562 B9F1000F 		cmp	r9, #0
 2911 0566 B8BF     		it	lt
 2912 0568 C9F10009 		rsblt	r9, r9, #0
 2913              	.LVL196:
 189:../../libdaisy/src/hid/disp/display.h ****         int_fast16_t signY  = ((y1 < y2) ? 1 : -1);
 2914              		.loc 3 189 42 view .LVU711
 2915 056c 4345     		cmp	r3, r8
 2916 056e 8CBF     		ite	hi
 2917 0570 4FF0010A 		movhi	r10, #1
 2918 0574 4FF0FF3A 		movls	r10, #-1
 2919              	.LVL197:
 2920              	.LBB770:
 2921              	.LBB771:
 2922              	.LBB772:
 241:../../libdaisy/src/dev/oled_ssd130x.h ****             return;
 2923              		.loc 2 241 9 view .LVU712
 2924 0578 7F28     		cmp	r0, #127
 2925              	.LBE772:
 2926              	.LBE771:
 2927              	.LBE770:
 191:../../libdaisy/src/hid/disp/display.h ****         int_fast16_t error2;
 2928              		.loc 3 191 22 view .LVU713
ARM GAS  C:\Users\VINCIU~1\AppData\Local\Temp\cc9kCTNX.s 			page 74


 2929 057a A9F10F01 		sub	r1, r9, #15
 2930              	.LVL198:
 2931              	.LBB775:
 2932              	.LBI770:
  41:../../libdaisy/src/hid/disp/oled_display.h ****     {
 2933              		.loc 1 41 10 is_stmt 1 view .LVU714
 2934              	.LBB774:
 2935              	.LBI771:
 239:../../libdaisy/src/dev/oled_ssd130x.h ****     {
 2936              		.loc 2 239 10 view .LVU715
 2937              	.LBB773:
 241:../../libdaisy/src/dev/oled_ssd130x.h ****             return;
 2938              		.loc 2 241 9 is_stmt 0 view .LVU716
 2939 057e 07D8     		bhi	.L225
 244:../../libdaisy/src/dev/oled_ssd130x.h ****         else
 2940              		.loc 2 244 42 view .LVU717
 2941 0580 02F20332 		addw	r2, r2, #771
 2942 0584 14FA82F2 		uxtah	r2, r4, r2
 2943 0588 107D     		ldrb	r0, [r2, #20]	@ zero_extendqisi2
 2944 058a 40F01000 		orr	r0, r0, #16
 2945 058e 1075     		strb	r0, [r2, #20]
 2946              	.L225:
 2947              	.LVL199:
 244:../../libdaisy/src/dev/oled_ssd130x.h ****         else
 2948              		.loc 2 244 42 view .LVU718
 2949              	.LBE773:
 2950              	.LBE774:
 2951              	.LBE775:
 199:../../libdaisy/src/hid/disp/display.h ****         {
 2952              		.loc 3 199 26 is_stmt 1 view .LVU719
 189:../../libdaisy/src/hid/disp/display.h ****         int_fast16_t signY  = ((y1 < y2) ? 1 : -1);
 2953              		.loc 3 189 42 is_stmt 0 view .LVU720
 2954 0590 4FF0250C 		mov	ip, #37
 2955              	.LVL200:
 2956              	.L226:
 2957              	.LBB776:
 2958              	.LBI776:
  41:../../libdaisy/src/hid/disp/oled_display.h ****     {
 2959              		.loc 1 41 10 is_stmt 1 view .LVU721
 2960              	.LBB777:
 2961              	.LBI777:
 239:../../libdaisy/src/dev/oled_ssd130x.h ****     {
 2962              		.loc 2 239 10 view .LVU722
 2963              	.LBB778:
 244:../../libdaisy/src/dev/oled_ssd130x.h ****         else
 2964              		.loc 2 244 28 is_stmt 0 view .LVU723
 2965 0594 4FEADC02 		lsr	r2, ip, #3
 244:../../libdaisy/src/dev/oled_ssd130x.h ****         else
 2966              		.loc 2 244 48 view .LVU724
 2967 0598 4FF0010B 		mov	fp, #1
 244:../../libdaisy/src/dev/oled_ssd130x.h ****         else
 2968              		.loc 2 244 54 view .LVU725
 2969 059c 0CF00700 		and	r0, ip, #7
 241:../../libdaisy/src/dev/oled_ssd130x.h ****             return;
 2970              		.loc 2 241 9 view .LVU726
 2971 05a0 B8F17F0F 		cmp	r8, #127
 244:../../libdaisy/src/dev/oled_ssd130x.h ****         else
ARM GAS  C:\Users\VINCIU~1\AppData\Local\Temp\cc9kCTNX.s 			page 75


 2972              		.loc 2 244 42 view .LVU727
 2973 05a4 08EBC212 		add	r2, r8, r2, lsl #7
 2974              	.LBE778:
 2975              	.LBE777:
 2976              	.LBE776:
 202:../../libdaisy/src/hid/disp/display.h ****             if(error2 > -deltaY)
 2977              		.loc 3 202 20 view .LVU728
 2978 05a8 01FA0BFE 		lsl	lr, r1, fp
 2979              	.LVL201:
 2980              	.LBB781:
 2981              	.LBB780:
 2982              	.LBB779:
 244:../../libdaisy/src/dev/oled_ssd130x.h ****         else
 2983              		.loc 2 244 48 view .LVU729
 2984 05ac 0BFA00F0 		lsl	r0, fp, r0
 244:../../libdaisy/src/dev/oled_ssd130x.h ****         else
 2985              		.loc 2 244 42 view .LVU730
 2986 05b0 2244     		add	r2, r2, r4
 241:../../libdaisy/src/dev/oled_ssd130x.h ****             return;
 2987              		.loc 2 241 9 view .LVU731
 2988 05b2 07D8     		bhi	.L229
 241:../../libdaisy/src/dev/oled_ssd130x.h ****             return;
 2989              		.loc 2 241 9 view .LVU732
 2990 05b4 BCF13F0F 		cmp	ip, #63
 2991 05b8 04D8     		bhi	.L229
 244:../../libdaisy/src/dev/oled_ssd130x.h ****         else
 2992              		.loc 2 244 42 view .LVU733
 2993 05ba 92F814B0 		ldrb	fp, [r2, #20]	@ zero_extendqisi2
 2994 05be 40EA0B00 		orr	r0, r0, fp
 2995 05c2 1075     		strb	r0, [r2, #20]
 2996              	.L229:
 2997              	.LBE779:
 2998              	.LBE780:
 2999              	.LBE781:
 203:../../libdaisy/src/hid/disp/display.h ****             {
 3000              		.loc 3 203 13 view .LVU734
 3001 05c4 1EF10E0F 		cmn	lr, #14
 3002 05c8 C0F2CE82 		blt	.L230
 209:../../libdaisy/src/hid/disp/display.h ****             {
 3003              		.loc 3 209 13 view .LVU735
 3004 05cc F145     		cmp	r9, lr
 206:../../libdaisy/src/hid/disp/display.h ****             }
 3005              		.loc 3 206 20 view .LVU736
 3006 05ce D044     		add	r8, r8, r10
 3007              	.LVL202:
 205:../../libdaisy/src/hid/disp/display.h ****                 x1 += signX;
 3008              		.loc 3 205 23 view .LVU737
 3009 05d0 A1F10F01 		sub	r1, r1, #15
 3010              	.LVL203:
 209:../../libdaisy/src/hid/disp/display.h ****             {
 3011              		.loc 3 209 13 view .LVU738
 3012 05d4 00F3C882 		bgt	.L230
 3013              	.L231:
 199:../../libdaisy/src/hid/disp/display.h ****         {
 3014              		.loc 3 199 26 is_stmt 1 view .LVU739
 3015 05d8 4345     		cmp	r3, r8
 3016 05da DBD1     		bne	.L226
ARM GAS  C:\Users\VINCIU~1\AppData\Local\Temp\cc9kCTNX.s 			page 76


 199:../../libdaisy/src/hid/disp/display.h ****         {
 3017              		.loc 3 199 26 is_stmt 0 view .LVU740
 3018 05dc BCF1340F 		cmp	ip, #52
 3019 05e0 D8D1     		bne	.L226
 3020              	.LVL204:
 199:../../libdaisy/src/hid/disp/display.h ****         {
 3021              		.loc 3 199 26 view .LVU741
 3022              	.LBE769:
 3023              	.LBE768:
  58:menus.cpp     ****     screen->DrawLine(screen->Width() / 2 - 10 + 13,
 3024              		.loc 4 58 5 is_stmt 1 view .LVU742
  59:menus.cpp     ****                      37,
  60:menus.cpp     ****                      screen->Width() / 2 - 10 + 16,
  61:menus.cpp     ****                      52,
  62:menus.cpp     ****                      !colorTemplate);
 3025              		.loc 4 62 36 is_stmt 0 view .LVU743
 3026 05e2 2268     		ldr	r2, [r4]
  58:menus.cpp     ****     screen->DrawLine(screen->Width() / 2 - 10 + 13,
 3027              		.loc 4 58 36 view .LVU744
 3028 05e4 D368     		ldr	r3, [r2, #12]
 3029              		.loc 4 62 36 view .LVU745
 3030 05e6 D2F81890 		ldr	r9, [r2, #24]
 3031 05ea AB42     		cmp	r3, r5
 3032 05ec 40F0F583 		bne	.L488
 3033              	.LVL205:
 3034              	.L364:
  58:menus.cpp     ****     screen->DrawLine(screen->Width() / 2 - 10 + 13,
 3035              		.loc 4 58 36 view .LVU746
 3036 05f0 4FF04308 		mov	r8, #67
 3037 05f4 AB42     		cmp	r3, r5
 3038 05f6 C246     		mov	r10, r8
 3039 05f8 40F0FD83 		bne	.L489
 3040              	.L365:
 3041 05fc 4623     		movs	r3, #70
 3042 05fe B145     		cmp	r9, r6
 3043 0600 4FF04002 		mov	r2, #64
 3044 0604 1846     		mov	r0, r3
 3045 0606 40F00184 		bne	.L234
 3046              	.L509:
 3047              	.LVL206:
 3048              	.LBB783:
 3049              	.LBI783:
 181:../../libdaisy/src/hid/disp/display.h ****                   uint_fast8_t y1,
 3050              		.loc 3 181 10 is_stmt 1 view .LVU747
 3051              	.LBB784:
 187:../../libdaisy/src/hid/disp/display.h ****         int_fast16_t deltaY = abs((int_fast16_t)y2 - (int_fast16_t)y1);
 3052              		.loc 3 187 52 is_stmt 0 view .LVU748
 3053 060a A0EB0A09 		sub	r9, r0, r10
 187:../../libdaisy/src/hid/disp/display.h ****         int_fast16_t deltaY = abs((int_fast16_t)y2 - (int_fast16_t)y1);
 3054              		.loc 3 187 22 view .LVU749
 3055 060e B9F1000F 		cmp	r9, #0
 3056 0612 B8BF     		it	lt
 3057 0614 C9F10009 		rsblt	r9, r9, #0
 3058              	.LVL207:
 189:../../libdaisy/src/hid/disp/display.h ****         int_fast16_t signY  = ((y1 < y2) ? 1 : -1);
 3059              		.loc 3 189 42 view .LVU750
 3060 0618 4345     		cmp	r3, r8
ARM GAS  C:\Users\VINCIU~1\AppData\Local\Temp\cc9kCTNX.s 			page 77


 3061 061a 8CBF     		ite	hi
 3062 061c 4FF0010A 		movhi	r10, #1
 3063 0620 4FF0FF3A 		movls	r10, #-1
 3064              	.LVL208:
 3065              	.LBB785:
 3066              	.LBB786:
 3067              	.LBB787:
 241:../../libdaisy/src/dev/oled_ssd130x.h ****             return;
 3068              		.loc 2 241 9 view .LVU751
 3069 0624 7F28     		cmp	r0, #127
 3070              	.LBE787:
 3071              	.LBE786:
 3072              	.LBE785:
 191:../../libdaisy/src/hid/disp/display.h ****         int_fast16_t error2;
 3073              		.loc 3 191 22 view .LVU752
 3074 0626 A9F10F01 		sub	r1, r9, #15
 3075              	.LVL209:
 3076              	.LBB790:
 3077              	.LBI785:
  41:../../libdaisy/src/hid/disp/oled_display.h ****     {
 3078              		.loc 1 41 10 is_stmt 1 view .LVU753
 3079              	.LBB789:
 3080              	.LBI786:
 239:../../libdaisy/src/dev/oled_ssd130x.h ****     {
 3081              		.loc 2 239 10 view .LVU754
 3082              	.LBB788:
 241:../../libdaisy/src/dev/oled_ssd130x.h ****             return;
 3083              		.loc 2 241 9 is_stmt 0 view .LVU755
 3084 062a 07D8     		bhi	.L236
 244:../../libdaisy/src/dev/oled_ssd130x.h ****         else
 3085              		.loc 2 244 42 view .LVU756
 3086 062c 02F20632 		addw	r2, r2, #774
 3087 0630 14FA82F2 		uxtah	r2, r4, r2
 3088 0634 107D     		ldrb	r0, [r2, #20]	@ zero_extendqisi2
 3089 0636 40F01000 		orr	r0, r0, #16
 3090 063a 1075     		strb	r0, [r2, #20]
 3091              	.L236:
 3092              	.LVL210:
 244:../../libdaisy/src/dev/oled_ssd130x.h ****         else
 3093              		.loc 2 244 42 view .LVU757
 3094              	.LBE788:
 3095              	.LBE789:
 3096              	.LBE790:
 199:../../libdaisy/src/hid/disp/display.h ****         {
 3097              		.loc 3 199 26 is_stmt 1 view .LVU758
 189:../../libdaisy/src/hid/disp/display.h ****         int_fast16_t signY  = ((y1 < y2) ? 1 : -1);
 3098              		.loc 3 189 42 is_stmt 0 view .LVU759
 3099 063c 4FF0250C 		mov	ip, #37
 3100              	.LVL211:
 3101              	.L237:
 3102              	.LBB791:
 3103              	.LBI791:
  41:../../libdaisy/src/hid/disp/oled_display.h ****     {
 3104              		.loc 1 41 10 is_stmt 1 view .LVU760
 3105              	.LBB792:
 3106              	.LBI792:
 239:../../libdaisy/src/dev/oled_ssd130x.h ****     {
ARM GAS  C:\Users\VINCIU~1\AppData\Local\Temp\cc9kCTNX.s 			page 78


 3107              		.loc 2 239 10 view .LVU761
 3108              	.LBB793:
 244:../../libdaisy/src/dev/oled_ssd130x.h ****         else
 3109              		.loc 2 244 28 is_stmt 0 view .LVU762
 3110 0640 4FEADC02 		lsr	r2, ip, #3
 244:../../libdaisy/src/dev/oled_ssd130x.h ****         else
 3111              		.loc 2 244 48 view .LVU763
 3112 0644 4FF0010B 		mov	fp, #1
 244:../../libdaisy/src/dev/oled_ssd130x.h ****         else
 3113              		.loc 2 244 54 view .LVU764
 3114 0648 0CF00700 		and	r0, ip, #7
 241:../../libdaisy/src/dev/oled_ssd130x.h ****             return;
 3115              		.loc 2 241 9 view .LVU765
 3116 064c B8F17F0F 		cmp	r8, #127
 244:../../libdaisy/src/dev/oled_ssd130x.h ****         else
 3117              		.loc 2 244 42 view .LVU766
 3118 0650 08EBC212 		add	r2, r8, r2, lsl #7
 3119              	.LBE793:
 3120              	.LBE792:
 3121              	.LBE791:
 202:../../libdaisy/src/hid/disp/display.h ****             if(error2 > -deltaY)
 3122              		.loc 3 202 20 view .LVU767
 3123 0654 01FA0BFE 		lsl	lr, r1, fp
 3124              	.LVL212:
 3125              	.LBB796:
 3126              	.LBB795:
 3127              	.LBB794:
 244:../../libdaisy/src/dev/oled_ssd130x.h ****         else
 3128              		.loc 2 244 48 view .LVU768
 3129 0658 0BFA00F0 		lsl	r0, fp, r0
 244:../../libdaisy/src/dev/oled_ssd130x.h ****         else
 3130              		.loc 2 244 42 view .LVU769
 3131 065c 2244     		add	r2, r2, r4
 241:../../libdaisy/src/dev/oled_ssd130x.h ****             return;
 3132              		.loc 2 241 9 view .LVU770
 3133 065e 07D8     		bhi	.L240
 241:../../libdaisy/src/dev/oled_ssd130x.h ****             return;
 3134              		.loc 2 241 9 view .LVU771
 3135 0660 BCF13F0F 		cmp	ip, #63
 3136 0664 04D8     		bhi	.L240
 244:../../libdaisy/src/dev/oled_ssd130x.h ****         else
 3137              		.loc 2 244 42 view .LVU772
 3138 0666 92F814B0 		ldrb	fp, [r2, #20]	@ zero_extendqisi2
 3139 066a 40EA0B00 		orr	r0, r0, fp
 3140 066e 1075     		strb	r0, [r2, #20]
 3141              	.L240:
 3142              	.LBE794:
 3143              	.LBE795:
 3144              	.LBE796:
 203:../../libdaisy/src/hid/disp/display.h ****             {
 3145              		.loc 3 203 13 view .LVU773
 3146 0670 1EF10E0F 		cmn	lr, #14
 3147 0674 C0F27482 		blt	.L241
 209:../../libdaisy/src/hid/disp/display.h ****             {
 3148              		.loc 3 209 13 view .LVU774
 3149 0678 F145     		cmp	r9, lr
 206:../../libdaisy/src/hid/disp/display.h ****             }
ARM GAS  C:\Users\VINCIU~1\AppData\Local\Temp\cc9kCTNX.s 			page 79


 3150              		.loc 3 206 20 view .LVU775
 3151 067a D044     		add	r8, r8, r10
 3152              	.LVL213:
 205:../../libdaisy/src/hid/disp/display.h ****                 x1 += signX;
 3153              		.loc 3 205 23 view .LVU776
 3154 067c A1F10F01 		sub	r1, r1, #15
 3155              	.LVL214:
 209:../../libdaisy/src/hid/disp/display.h ****             {
 3156              		.loc 3 209 13 view .LVU777
 3157 0680 00F36E82 		bgt	.L241
 3158              	.L242:
 199:../../libdaisy/src/hid/disp/display.h ****         {
 3159              		.loc 3 199 26 is_stmt 1 view .LVU778
 3160 0684 4345     		cmp	r3, r8
 3161 0686 DBD1     		bne	.L237
 199:../../libdaisy/src/hid/disp/display.h ****         {
 3162              		.loc 3 199 26 is_stmt 0 view .LVU779
 3163 0688 BCF1340F 		cmp	ip, #52
 3164 068c D8D1     		bne	.L237
 3165              	.LVL215:
 199:../../libdaisy/src/hid/disp/display.h ****         {
 3166              		.loc 3 199 26 view .LVU780
 3167              	.LBE784:
 3168              	.LBE783:
  63:menus.cpp     ****     screen->DrawLine(screen->Width() / 2 - 10 + 16,
 3169              		.loc 4 63 5 is_stmt 1 view .LVU781
  64:menus.cpp     ****                      52,
  65:menus.cpp     ****                      screen->Width() / 2 - 10 + 16,
  66:menus.cpp     ****                      37,
  67:menus.cpp     ****                      !colorTemplate);
 3170              		.loc 4 67 36 is_stmt 0 view .LVU782
 3171 068e 2268     		ldr	r2, [r4]
  63:menus.cpp     ****     screen->DrawLine(screen->Width() / 2 - 10 + 16,
 3172              		.loc 4 63 36 view .LVU783
 3173 0690 D368     		ldr	r3, [r2, #12]
 3174              		.loc 4 67 36 view .LVU784
 3175 0692 D2F81890 		ldr	r9, [r2, #24]
 3176 0696 AB42     		cmp	r3, r5
 3177 0698 40F0C883 		bne	.L490
 3178              	.LVL216:
 3179              	.L367:
  63:menus.cpp     ****     screen->DrawLine(screen->Width() / 2 - 10 + 16,
 3180              		.loc 4 63 36 view .LVU785
 3181 069c 4FF04608 		mov	r8, #70
 3182 06a0 AB42     		cmp	r3, r5
 3183 06a2 C246     		mov	r10, r8
 3184 06a4 40F0D083 		bne	.L491
 3185              	.L368:
 3186 06a8 4623     		movs	r3, #70
 3187 06aa B145     		cmp	r9, r6
 3188 06ac 4FF04002 		mov	r2, #64
 3189 06b0 1846     		mov	r0, r3
 3190 06b2 40F0D483 		bne	.L245
 3191              	.L510:
 3192              	.LVL217:
 3193              	.LBB798:
 3194              	.LBI798:
ARM GAS  C:\Users\VINCIU~1\AppData\Local\Temp\cc9kCTNX.s 			page 80


 181:../../libdaisy/src/hid/disp/display.h ****                   uint_fast8_t y1,
 3195              		.loc 3 181 10 is_stmt 1 view .LVU786
 3196              	.LBB799:
 187:../../libdaisy/src/hid/disp/display.h ****         int_fast16_t deltaY = abs((int_fast16_t)y2 - (int_fast16_t)y1);
 3197              		.loc 3 187 52 is_stmt 0 view .LVU787
 3198 06b6 A0EB0A09 		sub	r9, r0, r10
 187:../../libdaisy/src/hid/disp/display.h ****         int_fast16_t deltaY = abs((int_fast16_t)y2 - (int_fast16_t)y1);
 3199              		.loc 3 187 22 view .LVU788
 3200 06ba B9F1000F 		cmp	r9, #0
 3201 06be B8BF     		it	lt
 3202 06c0 C9F10009 		rsblt	r9, r9, #0
 3203              	.LVL218:
 189:../../libdaisy/src/hid/disp/display.h ****         int_fast16_t signY  = ((y1 < y2) ? 1 : -1);
 3204              		.loc 3 189 42 view .LVU789
 3205 06c4 4345     		cmp	r3, r8
 3206 06c6 8CBF     		ite	hi
 3207 06c8 4FF0010A 		movhi	r10, #1
 3208 06cc 4FF0FF3A 		movls	r10, #-1
 3209              	.LVL219:
 3210              	.LBB800:
 3211              	.LBB801:
 3212              	.LBB802:
 241:../../libdaisy/src/dev/oled_ssd130x.h ****             return;
 3213              		.loc 2 241 9 view .LVU790
 3214 06d0 7F28     		cmp	r0, #127
 3215              	.LBE802:
 3216              	.LBE801:
 3217              	.LBE800:
 191:../../libdaisy/src/hid/disp/display.h ****         int_fast16_t error2;
 3218              		.loc 3 191 22 view .LVU791
 3219 06d2 A9F10F01 		sub	r1, r9, #15
 3220              	.LVL220:
 3221              	.LBB805:
 3222              	.LBI800:
  41:../../libdaisy/src/hid/disp/oled_display.h ****     {
 3223              		.loc 1 41 10 is_stmt 1 view .LVU792
 3224              	.LBB804:
 3225              	.LBI801:
 239:../../libdaisy/src/dev/oled_ssd130x.h ****     {
 3226              		.loc 2 239 10 view .LVU793
 3227              	.LBB803:
 241:../../libdaisy/src/dev/oled_ssd130x.h ****             return;
 3228              		.loc 2 241 9 is_stmt 0 view .LVU794
 3229 06d6 07D8     		bhi	.L247
 244:../../libdaisy/src/dev/oled_ssd130x.h ****         else
 3230              		.loc 2 244 42 view .LVU795
 3231 06d8 02F20622 		addw	r2, r2, #518
 3232 06dc 14FA82F2 		uxtah	r2, r4, r2
 3233 06e0 107D     		ldrb	r0, [r2, #20]	@ zero_extendqisi2
 3234 06e2 40F02000 		orr	r0, r0, #32
 3235 06e6 1075     		strb	r0, [r2, #20]
 3236              	.L247:
 3237              	.LVL221:
 244:../../libdaisy/src/dev/oled_ssd130x.h ****         else
 3238              		.loc 2 244 42 view .LVU796
 3239              	.LBE803:
 3240              	.LBE804:
ARM GAS  C:\Users\VINCIU~1\AppData\Local\Temp\cc9kCTNX.s 			page 81


 3241              	.LBE805:
 199:../../libdaisy/src/hid/disp/display.h ****         {
 3242              		.loc 3 199 26 is_stmt 1 view .LVU797
 189:../../libdaisy/src/hid/disp/display.h ****         int_fast16_t signY  = ((y1 < y2) ? 1 : -1);
 3243              		.loc 3 189 42 is_stmt 0 view .LVU798
 3244 06e8 4FF0340C 		mov	ip, #52
 3245              	.LVL222:
 3246              	.L248:
 3247              	.LBB806:
 3248              	.LBI806:
  41:../../libdaisy/src/hid/disp/oled_display.h ****     {
 3249              		.loc 1 41 10 is_stmt 1 view .LVU799
 3250              	.LBB807:
 3251              	.LBI807:
 239:../../libdaisy/src/dev/oled_ssd130x.h ****     {
 3252              		.loc 2 239 10 view .LVU800
 3253              	.LBB808:
 244:../../libdaisy/src/dev/oled_ssd130x.h ****         else
 3254              		.loc 2 244 28 is_stmt 0 view .LVU801
 3255 06ec 4FEADC02 		lsr	r2, ip, #3
 244:../../libdaisy/src/dev/oled_ssd130x.h ****         else
 3256              		.loc 2 244 48 view .LVU802
 3257 06f0 4FF0010B 		mov	fp, #1
 244:../../libdaisy/src/dev/oled_ssd130x.h ****         else
 3258              		.loc 2 244 54 view .LVU803
 3259 06f4 0CF00700 		and	r0, ip, #7
 241:../../libdaisy/src/dev/oled_ssd130x.h ****             return;
 3260              		.loc 2 241 9 view .LVU804
 3261 06f8 B8F17F0F 		cmp	r8, #127
 244:../../libdaisy/src/dev/oled_ssd130x.h ****         else
 3262              		.loc 2 244 42 view .LVU805
 3263 06fc 08EBC212 		add	r2, r8, r2, lsl #7
 3264              	.LBE808:
 3265              	.LBE807:
 3266              	.LBE806:
 202:../../libdaisy/src/hid/disp/display.h ****             if(error2 > -deltaY)
 3267              		.loc 3 202 20 view .LVU806
 3268 0700 01FA0BFE 		lsl	lr, r1, fp
 3269              	.LVL223:
 3270              	.LBB811:
 3271              	.LBB810:
 3272              	.LBB809:
 244:../../libdaisy/src/dev/oled_ssd130x.h ****         else
 3273              		.loc 2 244 48 view .LVU807
 3274 0704 0BFA00F0 		lsl	r0, fp, r0
 244:../../libdaisy/src/dev/oled_ssd130x.h ****         else
 3275              		.loc 2 244 42 view .LVU808
 3276 0708 2244     		add	r2, r2, r4
 241:../../libdaisy/src/dev/oled_ssd130x.h ****             return;
 3277              		.loc 2 241 9 view .LVU809
 3278 070a 07D8     		bhi	.L251
 241:../../libdaisy/src/dev/oled_ssd130x.h ****             return;
 3279              		.loc 2 241 9 view .LVU810
 3280 070c BCF13F0F 		cmp	ip, #63
 3281 0710 04D8     		bhi	.L251
 244:../../libdaisy/src/dev/oled_ssd130x.h ****         else
 3282              		.loc 2 244 42 view .LVU811
ARM GAS  C:\Users\VINCIU~1\AppData\Local\Temp\cc9kCTNX.s 			page 82


 3283 0712 92F814B0 		ldrb	fp, [r2, #20]	@ zero_extendqisi2
 3284 0716 40EA0B00 		orr	r0, r0, fp
 3285 071a 1075     		strb	r0, [r2, #20]
 3286              	.L251:
 3287              	.LBE809:
 3288              	.LBE810:
 3289              	.LBE811:
 203:../../libdaisy/src/hid/disp/display.h ****             {
 3290              		.loc 3 203 13 view .LVU812
 3291 071c 1EF10E0F 		cmn	lr, #14
 3292 0720 C0F21A82 		blt	.L252
 209:../../libdaisy/src/hid/disp/display.h ****             {
 3293              		.loc 3 209 13 view .LVU813
 3294 0724 F145     		cmp	r9, lr
 206:../../libdaisy/src/hid/disp/display.h ****             }
 3295              		.loc 3 206 20 view .LVU814
 3296 0726 D044     		add	r8, r8, r10
 3297              	.LVL224:
 205:../../libdaisy/src/hid/disp/display.h ****                 x1 += signX;
 3298              		.loc 3 205 23 view .LVU815
 3299 0728 A1F10F01 		sub	r1, r1, #15
 3300              	.LVL225:
 209:../../libdaisy/src/hid/disp/display.h ****             {
 3301              		.loc 3 209 13 view .LVU816
 3302 072c 00F31482 		bgt	.L252
 3303              	.L253:
 199:../../libdaisy/src/hid/disp/display.h ****         {
 3304              		.loc 3 199 26 is_stmt 1 view .LVU817
 3305 0730 9845     		cmp	r8, r3
 3306 0732 DBD1     		bne	.L248
 199:../../libdaisy/src/hid/disp/display.h ****         {
 3307              		.loc 3 199 26 is_stmt 0 view .LVU818
 3308 0734 BCF1250F 		cmp	ip, #37
 3309 0738 D8D1     		bne	.L248
 3310              	.LVL226:
 199:../../libdaisy/src/hid/disp/display.h ****         {
 3311              		.loc 3 199 26 view .LVU819
 3312              	.LBE799:
 3313              	.LBE798:
  68:menus.cpp     ****     //I
  69:menus.cpp     ****     screen->DrawLine(screen->Width() / 2 - 10 + 18,
 3314              		.loc 4 69 5 is_stmt 1 view .LVU820
  70:menus.cpp     ****                      52,
  71:menus.cpp     ****                      screen->Width() / 2 - 10 + 18,
  72:menus.cpp     ****                      37,
  73:menus.cpp     ****                      !colorTemplate);
 3315              		.loc 4 73 36 is_stmt 0 view .LVU821
 3316 073a 2268     		ldr	r2, [r4]
  69:menus.cpp     ****                      52,
 3317              		.loc 4 69 36 view .LVU822
 3318 073c D368     		ldr	r3, [r2, #12]
 3319              		.loc 4 73 36 view .LVU823
 3320 073e D2F81890 		ldr	r9, [r2, #24]
 3321 0742 AB42     		cmp	r3, r5
 3322 0744 40F09B83 		bne	.L492
 3323              	.LVL227:
 3324              	.L370:
ARM GAS  C:\Users\VINCIU~1\AppData\Local\Temp\cc9kCTNX.s 			page 83


  69:menus.cpp     ****                      52,
 3325              		.loc 4 69 36 view .LVU824
 3326 0748 4FF04808 		mov	r8, #72
 3327 074c AB42     		cmp	r3, r5
 3328 074e C246     		mov	r10, r8
 3329 0750 40F0A383 		bne	.L493
 3330              	.L371:
 3331 0754 4823     		movs	r3, #72
 3332 0756 B145     		cmp	r9, r6
 3333 0758 4FF04002 		mov	r2, #64
 3334 075c 1846     		mov	r0, r3
 3335 075e 40F0A783 		bne	.L256
 3336              	.L511:
 3337              	.LVL228:
 3338              	.LBB813:
 3339              	.LBI813:
 181:../../libdaisy/src/hid/disp/display.h ****                   uint_fast8_t y1,
 3340              		.loc 3 181 10 is_stmt 1 view .LVU825
 3341              	.LBB814:
 187:../../libdaisy/src/hid/disp/display.h ****         int_fast16_t deltaY = abs((int_fast16_t)y2 - (int_fast16_t)y1);
 3342              		.loc 3 187 52 is_stmt 0 view .LVU826
 3343 0762 A0EB0A09 		sub	r9, r0, r10
 187:../../libdaisy/src/hid/disp/display.h ****         int_fast16_t deltaY = abs((int_fast16_t)y2 - (int_fast16_t)y1);
 3344              		.loc 3 187 22 view .LVU827
 3345 0766 B9F1000F 		cmp	r9, #0
 3346 076a B8BF     		it	lt
 3347 076c C9F10009 		rsblt	r9, r9, #0
 3348              	.LVL229:
 189:../../libdaisy/src/hid/disp/display.h ****         int_fast16_t signY  = ((y1 < y2) ? 1 : -1);
 3349              		.loc 3 189 42 view .LVU828
 3350 0770 4345     		cmp	r3, r8
 3351 0772 8CBF     		ite	hi
 3352 0774 4FF0010A 		movhi	r10, #1
 3353 0778 4FF0FF3A 		movls	r10, #-1
 3354              	.LVL230:
 3355              	.LBB815:
 3356              	.LBB816:
 3357              	.LBB817:
 241:../../libdaisy/src/dev/oled_ssd130x.h ****             return;
 3358              		.loc 2 241 9 view .LVU829
 3359 077c 7F28     		cmp	r0, #127
 3360              	.LBE817:
 3361              	.LBE816:
 3362              	.LBE815:
 191:../../libdaisy/src/hid/disp/display.h ****         int_fast16_t error2;
 3363              		.loc 3 191 22 view .LVU830
 3364 077e A9F10F01 		sub	r1, r9, #15
 3365              	.LVL231:
 3366              	.LBB820:
 3367              	.LBI815:
  41:../../libdaisy/src/hid/disp/oled_display.h ****     {
 3368              		.loc 1 41 10 is_stmt 1 view .LVU831
 3369              	.LBB819:
 3370              	.LBI816:
 239:../../libdaisy/src/dev/oled_ssd130x.h ****     {
 3371              		.loc 2 239 10 view .LVU832
 3372              	.LBB818:
ARM GAS  C:\Users\VINCIU~1\AppData\Local\Temp\cc9kCTNX.s 			page 84


 241:../../libdaisy/src/dev/oled_ssd130x.h ****             return;
 3373              		.loc 2 241 9 is_stmt 0 view .LVU833
 3374 0782 07D8     		bhi	.L258
 244:../../libdaisy/src/dev/oled_ssd130x.h ****         else
 3375              		.loc 2 244 42 view .LVU834
 3376 0784 02F50272 		add	r2, r2, #520
 3377 0788 14FA82F2 		uxtah	r2, r4, r2
 3378 078c 107D     		ldrb	r0, [r2, #20]	@ zero_extendqisi2
 3379 078e 40F02000 		orr	r0, r0, #32
 3380 0792 1075     		strb	r0, [r2, #20]
 3381              	.L258:
 3382              	.LVL232:
 244:../../libdaisy/src/dev/oled_ssd130x.h ****         else
 3383              		.loc 2 244 42 view .LVU835
 3384              	.LBE818:
 3385              	.LBE819:
 3386              	.LBE820:
 199:../../libdaisy/src/hid/disp/display.h ****         {
 3387              		.loc 3 199 26 is_stmt 1 view .LVU836
 189:../../libdaisy/src/hid/disp/display.h ****         int_fast16_t signY  = ((y1 < y2) ? 1 : -1);
 3388              		.loc 3 189 42 is_stmt 0 view .LVU837
 3389 0794 4FF0340C 		mov	ip, #52
 3390              	.LVL233:
 3391              	.L259:
 3392              	.LBB821:
 3393              	.LBI821:
  41:../../libdaisy/src/hid/disp/oled_display.h ****     {
 3394              		.loc 1 41 10 is_stmt 1 view .LVU838
 3395              	.LBB822:
 3396              	.LBI822:
 239:../../libdaisy/src/dev/oled_ssd130x.h ****     {
 3397              		.loc 2 239 10 view .LVU839
 3398              	.LBB823:
 244:../../libdaisy/src/dev/oled_ssd130x.h ****         else
 3399              		.loc 2 244 28 is_stmt 0 view .LVU840
 3400 0798 4FEADC02 		lsr	r2, ip, #3
 244:../../libdaisy/src/dev/oled_ssd130x.h ****         else
 3401              		.loc 2 244 48 view .LVU841
 3402 079c 4FF0010B 		mov	fp, #1
 244:../../libdaisy/src/dev/oled_ssd130x.h ****         else
 3403              		.loc 2 244 54 view .LVU842
 3404 07a0 0CF00700 		and	r0, ip, #7
 241:../../libdaisy/src/dev/oled_ssd130x.h ****             return;
 3405              		.loc 2 241 9 view .LVU843
 3406 07a4 B8F17F0F 		cmp	r8, #127
 244:../../libdaisy/src/dev/oled_ssd130x.h ****         else
 3407              		.loc 2 244 42 view .LVU844
 3408 07a8 08EBC212 		add	r2, r8, r2, lsl #7
 3409              	.LBE823:
 3410              	.LBE822:
 3411              	.LBE821:
 202:../../libdaisy/src/hid/disp/display.h ****             if(error2 > -deltaY)
 3412              		.loc 3 202 20 view .LVU845
 3413 07ac 01FA0BFE 		lsl	lr, r1, fp
 3414              	.LVL234:
 3415              	.LBB826:
 3416              	.LBB825:
ARM GAS  C:\Users\VINCIU~1\AppData\Local\Temp\cc9kCTNX.s 			page 85


 3417              	.LBB824:
 244:../../libdaisy/src/dev/oled_ssd130x.h ****         else
 3418              		.loc 2 244 48 view .LVU846
 3419 07b0 0BFA00F0 		lsl	r0, fp, r0
 244:../../libdaisy/src/dev/oled_ssd130x.h ****         else
 3420              		.loc 2 244 42 view .LVU847
 3421 07b4 2244     		add	r2, r2, r4
 241:../../libdaisy/src/dev/oled_ssd130x.h ****             return;
 3422              		.loc 2 241 9 view .LVU848
 3423 07b6 07D8     		bhi	.L262
 241:../../libdaisy/src/dev/oled_ssd130x.h ****             return;
 3424              		.loc 2 241 9 view .LVU849
 3425 07b8 BCF13F0F 		cmp	ip, #63
 3426 07bc 04D8     		bhi	.L262
 244:../../libdaisy/src/dev/oled_ssd130x.h ****         else
 3427              		.loc 2 244 42 view .LVU850
 3428 07be 92F814B0 		ldrb	fp, [r2, #20]	@ zero_extendqisi2
 3429 07c2 40EA0B00 		orr	r0, r0, fp
 3430 07c6 1075     		strb	r0, [r2, #20]
 3431              	.L262:
 3432              	.LBE824:
 3433              	.LBE825:
 3434              	.LBE826:
 203:../../libdaisy/src/hid/disp/display.h ****             {
 3435              		.loc 3 203 13 view .LVU851
 3436 07c8 1EF10E0F 		cmn	lr, #14
 3437 07cc C0F2C081 		blt	.L263
 209:../../libdaisy/src/hid/disp/display.h ****             {
 3438              		.loc 3 209 13 view .LVU852
 3439 07d0 F145     		cmp	r9, lr
 206:../../libdaisy/src/hid/disp/display.h ****             }
 3440              		.loc 3 206 20 view .LVU853
 3441 07d2 D044     		add	r8, r8, r10
 3442              	.LVL235:
 205:../../libdaisy/src/hid/disp/display.h ****                 x1 += signX;
 3443              		.loc 3 205 23 view .LVU854
 3444 07d4 A1F10F01 		sub	r1, r1, #15
 3445              	.LVL236:
 209:../../libdaisy/src/hid/disp/display.h ****             {
 3446              		.loc 3 209 13 view .LVU855
 3447 07d8 00F3BA81 		bgt	.L263
 3448              	.L264:
 199:../../libdaisy/src/hid/disp/display.h ****         {
 3449              		.loc 3 199 26 is_stmt 1 view .LVU856
 3450 07dc 4345     		cmp	r3, r8
 3451 07de DBD1     		bne	.L259
 199:../../libdaisy/src/hid/disp/display.h ****         {
 3452              		.loc 3 199 26 is_stmt 0 view .LVU857
 3453 07e0 BCF1250F 		cmp	ip, #37
 3454 07e4 D8D1     		bne	.L259
 3455              	.LVL237:
 199:../../libdaisy/src/hid/disp/display.h ****         {
 3456              		.loc 3 199 26 view .LVU858
 3457              	.LBE814:
 3458              	.LBE813:
  74:menus.cpp     **** 
  75:menus.cpp     ****     //S
ARM GAS  C:\Users\VINCIU~1\AppData\Local\Temp\cc9kCTNX.s 			page 86


  76:menus.cpp     ****     screen->DrawLine(screen->Width() / 2 - 10 + 20,
 3459              		.loc 4 76 5 is_stmt 1 view .LVU859
  77:menus.cpp     ****                      37,
  78:menus.cpp     ****                      screen->Width() / 2 - 10 + 22,
  79:menus.cpp     ****                      37,
  80:menus.cpp     ****                      !colorTemplate);
 3460              		.loc 4 80 36 is_stmt 0 view .LVU860
 3461 07e6 2268     		ldr	r2, [r4]
  76:menus.cpp     ****                      37,
 3462              		.loc 4 76 36 view .LVU861
 3463 07e8 D368     		ldr	r3, [r2, #12]
 3464              		.loc 4 80 36 view .LVU862
 3465 07ea D2F81890 		ldr	r9, [r2, #24]
 3466 07ee AB42     		cmp	r3, r5
 3467 07f0 40F06E83 		bne	.L494
 3468              	.LVL238:
 3469              	.L373:
  76:menus.cpp     ****                      37,
 3470              		.loc 4 76 36 view .LVU863
 3471 07f4 4FF04A08 		mov	r8, #74
 3472 07f8 AB42     		cmp	r3, r5
 3473 07fa C246     		mov	r10, r8
 3474 07fc 40F07683 		bne	.L495
 3475              	.L374:
 3476 0800 4C23     		movs	r3, #76
 3477 0802 B145     		cmp	r9, r6
 3478 0804 4FF04000 		mov	r0, #64
 3479 0808 1A46     		mov	r2, r3
 3480 080a 40F07A83 		bne	.L267
 3481              	.L512:
 3482              	.LVL239:
 3483              	.LBB828:
 3484              	.LBI828:
 181:../../libdaisy/src/hid/disp/display.h ****                   uint_fast8_t y1,
 3485              		.loc 3 181 10 is_stmt 1 view .LVU864
 3486              	.LBB829:
 187:../../libdaisy/src/hid/disp/display.h ****         int_fast16_t deltaY = abs((int_fast16_t)y2 - (int_fast16_t)y1);
 3487              		.loc 3 187 52 is_stmt 0 view .LVU865
 3488 080e A2EB0A0E 		sub	lr, r2, r10
 187:../../libdaisy/src/hid/disp/display.h ****         int_fast16_t deltaY = abs((int_fast16_t)y2 - (int_fast16_t)y1);
 3489              		.loc 3 187 22 view .LVU866
 3490 0812 BEF1000F 		cmp	lr, #0
 3491 0816 B8BF     		it	lt
 3492 0818 CEF1000E 		rsblt	lr, lr, #0
 3493              	.LVL240:
 189:../../libdaisy/src/hid/disp/display.h ****         int_fast16_t signY  = ((y1 < y2) ? 1 : -1);
 3494              		.loc 3 189 42 view .LVU867
 3495 081c 4345     		cmp	r3, r8
 3496 081e 00F25D82 		bhi	.L268
 3497              	.LVL241:
 3498              	.LBB830:
 3499              	.LBI830:
  41:../../libdaisy/src/hid/disp/oled_display.h ****     {
 3500              		.loc 1 41 10 is_stmt 1 view .LVU868
 3501              	.LBB831:
 3502              	.LBI831:
 239:../../libdaisy/src/dev/oled_ssd130x.h ****     {
ARM GAS  C:\Users\VINCIU~1\AppData\Local\Temp\cc9kCTNX.s 			page 87


 3503              		.loc 2 239 10 view .LVU869
 3504              	.LBB832:
 241:../../libdaisy/src/dev/oled_ssd130x.h ****             return;
 3505              		.loc 2 241 9 is_stmt 0 view .LVU870
 3506 0822 7F2A     		cmp	r2, #127
 3507              	.LBE832:
 3508              	.LBE831:
 3509              	.LBE830:
 189:../../libdaisy/src/hid/disp/display.h ****         int_fast16_t signY  = ((y1 < y2) ? 1 : -1);
 3510              		.loc 3 189 42 view .LVU871
 3511 0824 4FF0FF3A 		mov	r10, #-1
 3512              	.LBB839:
 3513              	.LBB836:
 3514              	.LBB833:
 241:../../libdaisy/src/dev/oled_ssd130x.h ****             return;
 3515              		.loc 2 241 9 view .LVU872
 3516 0828 07D8     		bhi	.L269
 3517              	.LVL242:
 3518              	.L336:
 244:../../libdaisy/src/dev/oled_ssd130x.h ****         else
 3519              		.loc 2 244 42 view .LVU873
 3520 082a 00F50372 		add	r2, r0, #524
 3521 082e 14FA82F2 		uxtah	r2, r4, r2
 3522 0832 117D     		ldrb	r1, [r2, #20]	@ zero_extendqisi2
 3523 0834 41F02001 		orr	r1, r1, #32
 3524 0838 1175     		strb	r1, [r2, #20]
 3525              	.L269:
 3526              	.LVL243:
 244:../../libdaisy/src/dev/oled_ssd130x.h ****         else
 3527              		.loc 2 244 42 view .LVU874
 3528              	.LBE833:
 3529              	.LBE836:
 3530              	.LBE839:
 199:../../libdaisy/src/hid/disp/display.h ****         {
 3531              		.loc 3 199 26 is_stmt 1 view .LVU875
 3532 083a 4345     		cmp	r3, r8
 3533 083c 20D0     		beq	.L271
 3534              	.L270:
 3535              	.LVL244:
 187:../../libdaisy/src/hid/disp/display.h ****         int_fast16_t deltaY = abs((int_fast16_t)y2 - (int_fast16_t)y1);
 3536              		.loc 3 187 22 is_stmt 0 view .LVU876
 3537 083e F446     		mov	ip, lr
 3538 0840 2521     		movs	r1, #37
 3539              	.L274:
 3540              	.LVL245:
 3541              	.LBB840:
 3542              	.LBI840:
  41:../../libdaisy/src/hid/disp/oled_display.h ****     {
 3543              		.loc 1 41 10 is_stmt 1 view .LVU877
 3544              	.LBB841:
 3545              	.LBI841:
 239:../../libdaisy/src/dev/oled_ssd130x.h ****     {
 3546              		.loc 2 239 10 view .LVU878
 3547              	.LBB842:
 244:../../libdaisy/src/dev/oled_ssd130x.h ****         else
 3548              		.loc 2 244 28 is_stmt 0 view .LVU879
 3549 0842 CA08     		lsrs	r2, r1, #3
ARM GAS  C:\Users\VINCIU~1\AppData\Local\Temp\cc9kCTNX.s 			page 88


 244:../../libdaisy/src/dev/oled_ssd130x.h ****         else
 3550              		.loc 2 244 54 view .LVU880
 3551 0844 01F00709 		and	r9, r1, #7
 244:../../libdaisy/src/dev/oled_ssd130x.h ****         else
 3552              		.loc 2 244 48 view .LVU881
 3553 0848 0120     		movs	r0, #1
 241:../../libdaisy/src/dev/oled_ssd130x.h ****             return;
 3554              		.loc 2 241 9 view .LVU882
 3555 084a B8F17F0F 		cmp	r8, #127
 244:../../libdaisy/src/dev/oled_ssd130x.h ****         else
 3556              		.loc 2 244 42 view .LVU883
 3557 084e 08EBC212 		add	r2, r8, r2, lsl #7
 244:../../libdaisy/src/dev/oled_ssd130x.h ****         else
 3558              		.loc 2 244 48 view .LVU884
 3559 0852 00FA09F0 		lsl	r0, r0, r9
 241:../../libdaisy/src/dev/oled_ssd130x.h ****             return;
 3560              		.loc 2 241 9 view .LVU885
 3561 0856 07D8     		bhi	.L275
 3562 0858 3F29     		cmp	r1, #63
 244:../../libdaisy/src/dev/oled_ssd130x.h ****         else
 3563              		.loc 2 244 42 view .LVU886
 3564 085a 2244     		add	r2, r2, r4
 241:../../libdaisy/src/dev/oled_ssd130x.h ****             return;
 3565              		.loc 2 241 9 view .LVU887
 3566 085c 04D8     		bhi	.L275
 244:../../libdaisy/src/dev/oled_ssd130x.h ****         else
 3567              		.loc 2 244 42 view .LVU888
 3568 085e 92F81490 		ldrb	r9, [r2, #20]	@ zero_extendqisi2
 3569 0862 40EA0900 		orr	r0, r0, r9
 3570 0866 1075     		strb	r0, [r2, #20]
 3571              	.L275:
 244:../../libdaisy/src/dev/oled_ssd130x.h ****         else
 3572              		.loc 2 244 42 view .LVU889
 3573              	.LBE842:
 3574              	.LBE841:
 3575              	.LBE840:
 203:../../libdaisy/src/hid/disp/display.h ****             {
 3576              		.loc 3 203 13 view .LVU890
 3577 0868 5FEA4C02 		lsls	r2, ip, #1
 206:../../libdaisy/src/hid/disp/display.h ****             }
 3578              		.loc 3 206 20 view .LVU891
 3579 086c 18BF     		it	ne
 3580 086e D044     		addne	r8, r8, r10
 3581              	.LVL246:
 209:../../libdaisy/src/hid/disp/display.h ****             {
 3582              		.loc 3 209 13 view .LVU892
 3583 0870 9645     		cmp	lr, r2
 3584 0872 01DD     		ble	.L277
 211:../../libdaisy/src/hid/disp/display.h ****                 y1 += signY;
 3585              		.loc 3 211 23 view .LVU893
 3586 0874 F444     		add	ip, ip, lr
 3587              	.LVL247:
 212:../../libdaisy/src/hid/disp/display.h ****             }
 3588              		.loc 3 212 20 view .LVU894
 3589 0876 0139     		subs	r1, r1, #1
 3590              	.LVL248:
 3591              	.L277:
ARM GAS  C:\Users\VINCIU~1\AppData\Local\Temp\cc9kCTNX.s 			page 89


 199:../../libdaisy/src/hid/disp/display.h ****         {
 3592              		.loc 3 199 26 is_stmt 1 view .LVU895
 3593 0878 4345     		cmp	r3, r8
 3594 087a E2D1     		bne	.L274
 199:../../libdaisy/src/hid/disp/display.h ****         {
 3595              		.loc 3 199 26 is_stmt 0 view .LVU896
 3596 087c 2529     		cmp	r1, #37
 3597 087e E0D1     		bne	.L274
 3598              	.LVL249:
 3599              	.L271:
 199:../../libdaisy/src/hid/disp/display.h ****         {
 3600              		.loc 3 199 26 view .LVU897
 3601              	.LBE829:
 3602              	.LBE828:
  81:menus.cpp     ****     screen->DrawLine(screen->Width() / 2 - 10 + 20,
 3603              		.loc 4 81 5 is_stmt 1 view .LVU898
  82:menus.cpp     ****                      37,
  83:menus.cpp     ****                      screen->Width() / 2 - 10 + 22,
  84:menus.cpp     ****                      44,
  85:menus.cpp     ****                      !colorTemplate);
 3604              		.loc 4 85 36 is_stmt 0 view .LVU899
 3605 0880 2268     		ldr	r2, [r4]
  81:menus.cpp     ****     screen->DrawLine(screen->Width() / 2 - 10 + 20,
 3606              		.loc 4 81 36 view .LVU900
 3607 0882 D368     		ldr	r3, [r2, #12]
 3608              		.loc 4 85 36 view .LVU901
 3609 0884 D2F81890 		ldr	r9, [r2, #24]
 3610 0888 AB42     		cmp	r3, r5
 3611 088a 40F04883 		bne	.L496
 3612              	.LVL250:
 3613              	.L376:
  81:menus.cpp     ****     screen->DrawLine(screen->Width() / 2 - 10 + 20,
 3614              		.loc 4 81 36 view .LVU902
 3615 088e 4FF04A08 		mov	r8, #74
 3616 0892 AB42     		cmp	r3, r5
 3617 0894 C246     		mov	r10, r8
 3618 0896 40F05083 		bne	.L497
 3619              	.L377:
 3620 089a 4C23     		movs	r3, #76
 3621 089c B145     		cmp	r9, r6
 3622 089e 4FF04002 		mov	r2, #64
 3623 08a2 1846     		mov	r0, r3
 3624 08a4 40F05483 		bne	.L280
 3625              	.L513:
 3626              	.LVL251:
 3627              	.LBB846:
 3628              	.LBI846:
 181:../../libdaisy/src/hid/disp/display.h ****                   uint_fast8_t y1,
 3629              		.loc 3 181 10 is_stmt 1 view .LVU903
 3630              	.LBB847:
 187:../../libdaisy/src/hid/disp/display.h ****         int_fast16_t deltaY = abs((int_fast16_t)y2 - (int_fast16_t)y1);
 3631              		.loc 3 187 52 is_stmt 0 view .LVU904
 3632 08a8 A0EB0A09 		sub	r9, r0, r10
 187:../../libdaisy/src/hid/disp/display.h ****         int_fast16_t deltaY = abs((int_fast16_t)y2 - (int_fast16_t)y1);
 3633              		.loc 3 187 22 view .LVU905
 3634 08ac B9F1000F 		cmp	r9, #0
 3635 08b0 B8BF     		it	lt
ARM GAS  C:\Users\VINCIU~1\AppData\Local\Temp\cc9kCTNX.s 			page 90


 3636 08b2 C9F10009 		rsblt	r9, r9, #0
 3637              	.LVL252:
 189:../../libdaisy/src/hid/disp/display.h ****         int_fast16_t signY  = ((y1 < y2) ? 1 : -1);
 3638              		.loc 3 189 42 view .LVU906
 3639 08b6 9845     		cmp	r8, r3
 3640 08b8 34BF     		ite	cc
 3641 08ba 4FF0010A 		movcc	r10, #1
 3642 08be 4FF0FF3A 		movcs	r10, #-1
 3643              	.LVL253:
 3644              	.LBB848:
 3645              	.LBB849:
 3646              	.LBB850:
 241:../../libdaisy/src/dev/oled_ssd130x.h ****             return;
 3647              		.loc 2 241 9 view .LVU907
 3648 08c2 7F28     		cmp	r0, #127
 3649              	.LBE850:
 3650              	.LBE849:
 3651              	.LBE848:
 191:../../libdaisy/src/hid/disp/display.h ****         int_fast16_t error2;
 3652              		.loc 3 191 22 view .LVU908
 3653 08c4 A9F10701 		sub	r1, r9, #7
 3654              	.LVL254:
 3655              	.LBB853:
 3656              	.LBI848:
  41:../../libdaisy/src/hid/disp/oled_display.h ****     {
 3657              		.loc 1 41 10 is_stmt 1 view .LVU909
 3658              	.LBB852:
 3659              	.LBI849:
 239:../../libdaisy/src/dev/oled_ssd130x.h ****     {
 3660              		.loc 2 239 10 view .LVU910
 3661              	.LBB851:
 241:../../libdaisy/src/dev/oled_ssd130x.h ****             return;
 3662              		.loc 2 241 9 is_stmt 0 view .LVU911
 3663 08c8 07D8     		bhi	.L282
 244:../../libdaisy/src/dev/oled_ssd130x.h ****         else
 3664              		.loc 2 244 42 view .LVU912
 3665 08ca 02F52372 		add	r2, r2, #652
 3666 08ce 14FA82F2 		uxtah	r2, r4, r2
 3667 08d2 107D     		ldrb	r0, [r2, #20]	@ zero_extendqisi2
 3668 08d4 40F01000 		orr	r0, r0, #16
 3669 08d8 1075     		strb	r0, [r2, #20]
 3670              	.L282:
 3671              	.LVL255:
 244:../../libdaisy/src/dev/oled_ssd130x.h ****         else
 3672              		.loc 2 244 42 view .LVU913
 3673              	.LBE851:
 3674              	.LBE852:
 3675              	.LBE853:
 199:../../libdaisy/src/hid/disp/display.h ****         {
 3676              		.loc 3 199 26 is_stmt 1 view .LVU914
 189:../../libdaisy/src/hid/disp/display.h ****         int_fast16_t signY  = ((y1 < y2) ? 1 : -1);
 3677              		.loc 3 189 42 is_stmt 0 view .LVU915
 3678 08da 4FF0250C 		mov	ip, #37
 3679              	.LVL256:
 3680              	.L283:
 3681              	.LBB854:
 3682              	.LBI854:
ARM GAS  C:\Users\VINCIU~1\AppData\Local\Temp\cc9kCTNX.s 			page 91


  41:../../libdaisy/src/hid/disp/oled_display.h ****     {
 3683              		.loc 1 41 10 is_stmt 1 view .LVU916
 3684              	.LBB855:
 3685              	.LBI855:
 239:../../libdaisy/src/dev/oled_ssd130x.h ****     {
 3686              		.loc 2 239 10 view .LVU917
 3687              	.LBB856:
 244:../../libdaisy/src/dev/oled_ssd130x.h ****         else
 3688              		.loc 2 244 28 is_stmt 0 view .LVU918
 3689 08de 4FEADC02 		lsr	r2, ip, #3
