ARM GAS  C:\Users\VINCIU~1\AppData\Local\Temp\ccNNq0o9.s 			page 1


   1              		.cpu cortex-m7
   2              		.eabi_attribute 28, 1
   3              		.eabi_attribute 20, 1
   4              		.eabi_attribute 21, 1
   5              		.eabi_attribute 23, 3
   6              		.eabi_attribute 24, 1
   7              		.eabi_attribute 25, 1
   8              		.eabi_attribute 26, 1
   9              		.eabi_attribute 30, 2
  10              		.eabi_attribute 34, 1
  11              		.eabi_attribute 18, 4
  12              		.file	"metamorphic_project.cpp"
  13              		.text
  14              	.Ltext0:
  15              		.cfi_sections	.debug_frame
  16              		.section	.text._ZN5daisy9DaisySeedD2Ev,"axG",%progbits,_ZN5daisy9DaisySeedD5Ev,comdat
  17              		.align	1
  18              		.p2align 2,,3
  19              		.weak	_ZN5daisy9DaisySeedD2Ev
  20              		.arch armv7e-m
  21              		.syntax unified
  22              		.thumb
  23              		.thumb_func
  24              		.fpu fpv5-d16
  26              	_ZN5daisy9DaisySeedD2Ev:
  27              	.LVL0:
  28              	.LFB1793:
  29              		.file 1 "../../libdaisy/src/daisy_seed.h"
   1:../../libdaisy/src/daisy_seed.h **** #pragma once
   2:../../libdaisy/src/daisy_seed.h **** #ifndef DSY_SEED_H
   3:../../libdaisy/src/daisy_seed.h **** #define DSY_SEED_H
   4:../../libdaisy/src/daisy_seed.h **** 
   5:../../libdaisy/src/daisy_seed.h **** #include "daisy.h"
   6:../../libdaisy/src/daisy_seed.h **** 
   7:../../libdaisy/src/daisy_seed.h **** //Uncomment this out if you're still using the rev2 hardware
   8:../../libdaisy/src/daisy_seed.h **** //#define SEED_REV2
   9:../../libdaisy/src/daisy_seed.h **** 
  10:../../libdaisy/src/daisy_seed.h **** namespace daisy
  11:../../libdaisy/src/daisy_seed.h **** {
  12:../../libdaisy/src/daisy_seed.h **** /**
  13:../../libdaisy/src/daisy_seed.h ****    @brief This is the higher-level interface for the Daisy board. \n 
  14:../../libdaisy/src/daisy_seed.h ****     All basic peripheral configuration/initialization is setup here. \n
  15:../../libdaisy/src/daisy_seed.h **** 
  16:../../libdaisy/src/daisy_seed.h ****    @ingroup boards
  17:../../libdaisy/src/daisy_seed.h **** */
  18:../../libdaisy/src/daisy_seed.h **** class DaisySeed
  19:../../libdaisy/src/daisy_seed.h **** {
  20:../../libdaisy/src/daisy_seed.h ****   public:
  21:../../libdaisy/src/daisy_seed.h ****     DaisySeed() {}
  22:../../libdaisy/src/daisy_seed.h ****     ~DaisySeed() {}
  30              		.loc 1 22 5 view -0
  31              		.cfi_startproc
  32              		@ args = 0, pretend = 0, frame = 0
  33              		@ frame_needed = 0, uses_anonymous_args = 0
  34              		@ link register save eliminated.
  35              	.LBB252:
  36              	.LBI252:
ARM GAS  C:\Users\VINCIU~1\AppData\Local\Temp\ccNNq0o9.s 			page 2


  37              		.file 2 "../../libdaisy/src/sys/system.h"
   1:../../libdaisy/src/sys/system.h **** #ifndef DSY_SYSTEM_H
   2:../../libdaisy/src/sys/system.h **** #define DSY_SYSTEM_H
   3:../../libdaisy/src/sys/system.h **** 
   4:../../libdaisy/src/sys/system.h **** #ifndef UNIT_TEST // for unit tests, a dummy implementation is provided below
   5:../../libdaisy/src/sys/system.h **** 
   6:../../libdaisy/src/sys/system.h **** #include <cstdint>
   7:../../libdaisy/src/sys/system.h **** #include "per/tim.h"
   8:../../libdaisy/src/sys/system.h **** 
   9:../../libdaisy/src/sys/system.h **** namespace daisy
  10:../../libdaisy/src/sys/system.h **** {
  11:../../libdaisy/src/sys/system.h **** /** A handle for interacting with the Core System. 
  12:../../libdaisy/src/sys/system.h ****  ** This includes the Clock tree, MPU, global DMA initialization,
  13:../../libdaisy/src/sys/system.h ****  ** cache handling, and any other necessary global initiailzation
  14:../../libdaisy/src/sys/system.h ****  **
  15:../../libdaisy/src/sys/system.h ****  ** @author shensley
  16:../../libdaisy/src/sys/system.h ****  ** @addtogroup system
  17:../../libdaisy/src/sys/system.h ****  */
  18:../../libdaisy/src/sys/system.h **** class System
  19:../../libdaisy/src/sys/system.h **** {
  20:../../libdaisy/src/sys/system.h ****   public:
  21:../../libdaisy/src/sys/system.h ****     /** Contains settings for initializing the System */
  22:../../libdaisy/src/sys/system.h ****     struct Config
  23:../../libdaisy/src/sys/system.h ****     {
  24:../../libdaisy/src/sys/system.h ****         /** Specifies the system clock frequency that feeds APB/AHB clocks, etc. */
  25:../../libdaisy/src/sys/system.h ****         enum class SysClkFreq
  26:../../libdaisy/src/sys/system.h ****         {
  27:../../libdaisy/src/sys/system.h ****             FREQ_400MHZ,
  28:../../libdaisy/src/sys/system.h ****             FREQ_480MHZ,
  29:../../libdaisy/src/sys/system.h ****         };
  30:../../libdaisy/src/sys/system.h **** 
  31:../../libdaisy/src/sys/system.h ****         /** Method to call on the struct to set to defaults
  32:../../libdaisy/src/sys/system.h ****          ** CPU Freq set to 400MHz
  33:../../libdaisy/src/sys/system.h ****          ** Cache Enabled 
  34:../../libdaisy/src/sys/system.h ****          ** */
  35:../../libdaisy/src/sys/system.h ****         void Defaults()
  36:../../libdaisy/src/sys/system.h ****         {
  37:../../libdaisy/src/sys/system.h ****             cpu_freq   = SysClkFreq::FREQ_400MHZ;
  38:../../libdaisy/src/sys/system.h ****             use_dcache = true;
  39:../../libdaisy/src/sys/system.h ****             use_icache = true;
  40:../../libdaisy/src/sys/system.h ****         }
  41:../../libdaisy/src/sys/system.h **** 
  42:../../libdaisy/src/sys/system.h ****         /** Method to call on the struct to set to boost mode:
  43:../../libdaisy/src/sys/system.h ****          ** CPU Freq set to 480MHz
  44:../../libdaisy/src/sys/system.h ****          ** Cache Enabled 
  45:../../libdaisy/src/sys/system.h ****          ** */
  46:../../libdaisy/src/sys/system.h ****         void Boost()
  47:../../libdaisy/src/sys/system.h ****         {
  48:../../libdaisy/src/sys/system.h ****             cpu_freq   = SysClkFreq::FREQ_480MHZ;
  49:../../libdaisy/src/sys/system.h ****             use_dcache = true;
  50:../../libdaisy/src/sys/system.h ****             use_icache = true;
  51:../../libdaisy/src/sys/system.h ****         }
  52:../../libdaisy/src/sys/system.h **** 
  53:../../libdaisy/src/sys/system.h ****         SysClkFreq cpu_freq;
  54:../../libdaisy/src/sys/system.h ****         bool       use_dcache;
  55:../../libdaisy/src/sys/system.h ****         bool       use_icache;
  56:../../libdaisy/src/sys/system.h ****     };
ARM GAS  C:\Users\VINCIU~1\AppData\Local\Temp\ccNNq0o9.s 			page 3


  57:../../libdaisy/src/sys/system.h **** 
  58:../../libdaisy/src/sys/system.h ****     System() {}
  59:../../libdaisy/src/sys/system.h ****     ~System() {}
  38              		.loc 2 59 5 view .LVU1
  39              		.loc 2 59 5 is_stmt 0 view .LVU2
  40              	.LBE252:
  41              	.LBB253:
  42              	.LBI253:
  43              		.file 3 "../../libdaisy/src/hid/usb.h"
   1:../../libdaisy/src/hid/usb.h **** #pragma once
   2:../../libdaisy/src/hid/usb.h **** #ifndef DSY_HID_USB_H
   3:../../libdaisy/src/hid/usb.h **** #define DSY_HID_USB_H
   4:../../libdaisy/src/hid/usb.h **** #include <stdint.h>
   5:../../libdaisy/src/hid/usb.h **** #include <stdlib.h>
   6:../../libdaisy/src/hid/usb.h **** 
   7:../../libdaisy/src/hid/usb.h **** namespace daisy
   8:../../libdaisy/src/hid/usb.h **** /** @addtogroup externals
   9:../../libdaisy/src/hid/usb.h ****     @{
  10:../../libdaisy/src/hid/usb.h **** */
  11:../../libdaisy/src/hid/usb.h **** 
  12:../../libdaisy/src/hid/usb.h **** {
  13:../../libdaisy/src/hid/usb.h **** /** 
  14:../../libdaisy/src/hid/usb.h ****     @brief Interface for initializing and using the USB Peripherals on the daisy
  15:../../libdaisy/src/hid/usb.h ****     @author Stephen Hensley
  16:../../libdaisy/src/hid/usb.h ****     @date December 2019
  17:../../libdaisy/src/hid/usb.h **** */
  18:../../libdaisy/src/hid/usb.h **** class UsbHandle
  19:../../libdaisy/src/hid/usb.h **** {
  20:../../libdaisy/src/hid/usb.h ****   public:
  21:../../libdaisy/src/hid/usb.h ****     /** Return values for USBHandle Functions */
  22:../../libdaisy/src/hid/usb.h ****     enum class Result
  23:../../libdaisy/src/hid/usb.h ****     {
  24:../../libdaisy/src/hid/usb.h ****         OK,
  25:../../libdaisy/src/hid/usb.h ****         ERR,
  26:../../libdaisy/src/hid/usb.h ****     };
  27:../../libdaisy/src/hid/usb.h **** 
  28:../../libdaisy/src/hid/usb.h ****     /** Specified which of the two USB Peripherals to initialize. */
  29:../../libdaisy/src/hid/usb.h ****     enum UsbPeriph
  30:../../libdaisy/src/hid/usb.h ****     {
  31:../../libdaisy/src/hid/usb.h ****         FS_INTERNAL, /**< Internal pin */
  32:../../libdaisy/src/hid/usb.h ****         FS_EXTERNAL, /**< FS External D+ pin is Pin 38 (GPIO32). FS External D- pin is Pin 37 (GPIO
  33:../../libdaisy/src/hid/usb.h ****         FS_BOTH,     /**< Both */
  34:../../libdaisy/src/hid/usb.h ****     };
  35:../../libdaisy/src/hid/usb.h **** 
  36:../../libdaisy/src/hid/usb.h **** 
  37:../../libdaisy/src/hid/usb.h ****     /** Function called upon reception of a buffer */
  38:../../libdaisy/src/hid/usb.h ****     typedef void (*ReceiveCallback)(uint8_t* buff, uint32_t* len);
  39:../../libdaisy/src/hid/usb.h **** 
  40:../../libdaisy/src/hid/usb.h ****     UsbHandle() {}
  41:../../libdaisy/src/hid/usb.h **** 
  42:../../libdaisy/src/hid/usb.h ****     ~UsbHandle() {}
  44              		.loc 3 42 5 is_stmt 1 view .LVU3
  45              		.loc 3 42 5 is_stmt 0 view .LVU4
  46              	.LBE253:
  47              	.LBB254:
  48              	.LBI254:
  49              		.file 4 "../../libdaisy/src/per/adc.h"
ARM GAS  C:\Users\VINCIU~1\AppData\Local\Temp\ccNNq0o9.s 			page 4


   1:../../libdaisy/src/per/adc.h **** #pragma once
   2:../../libdaisy/src/per/adc.h **** #ifndef DSY_ADC_H
   3:../../libdaisy/src/per/adc.h **** #define DSY_ADC_H /**< Macro */
   4:../../libdaisy/src/per/adc.h **** #include <stdint.h>
   5:../../libdaisy/src/per/adc.h **** #include <stdlib.h>
   6:../../libdaisy/src/per/adc.h **** #include "daisy_core.h"
   7:../../libdaisy/src/per/adc.h **** #include "per/gpio.h"
   8:../../libdaisy/src/per/adc.h **** 
   9:../../libdaisy/src/per/adc.h **** #define DSY_ADC_MAX_CHANNELS 14 /**< Maximum number of ADC channels */
  10:../../libdaisy/src/per/adc.h **** 
  11:../../libdaisy/src/per/adc.h **** namespace daisy
  12:../../libdaisy/src/per/adc.h **** {
  13:../../libdaisy/src/per/adc.h **** /** @addtogroup analog_digital_conversion
  14:../../libdaisy/src/per/adc.h ****     @{
  15:../../libdaisy/src/per/adc.h **** */
  16:../../libdaisy/src/per/adc.h **** 
  17:../../libdaisy/src/per/adc.h **** /* While there may not be many configuration options here,
  18:../../libdaisy/src/per/adc.h **** using a struct like this allows us to add more configuration
  19:../../libdaisy/src/per/adc.h **** later without breaking existing functionality.
  20:../../libdaisy/src/per/adc.h **** */
  21:../../libdaisy/src/per/adc.h **** 
  22:../../libdaisy/src/per/adc.h **** /** Configuration Structure for a given channel */
  23:../../libdaisy/src/per/adc.h **** struct AdcChannelConfig
  24:../../libdaisy/src/per/adc.h **** {
  25:../../libdaisy/src/per/adc.h ****     /** Which pin to use for multiplexing */
  26:../../libdaisy/src/per/adc.h ****     enum MuxPin
  27:../../libdaisy/src/per/adc.h ****     {
  28:../../libdaisy/src/per/adc.h ****         MUX_SEL_0,    /**< & */
  29:../../libdaisy/src/per/adc.h ****         MUX_SEL_1,    /**< & */
  30:../../libdaisy/src/per/adc.h ****         MUX_SEL_2,    /**< & */
  31:../../libdaisy/src/per/adc.h ****         MUX_SEL_LAST, /**< & */
  32:../../libdaisy/src/per/adc.h ****     };
  33:../../libdaisy/src/per/adc.h **** 
  34:../../libdaisy/src/per/adc.h ****     /** Initializes a single ADC pin as an ADC. 
  35:../../libdaisy/src/per/adc.h ****     \param pin Pin to init.
  36:../../libdaisy/src/per/adc.h ****      */
  37:../../libdaisy/src/per/adc.h ****     void InitSingle(dsy_gpio_pin pin);
  38:../../libdaisy/src/per/adc.h **** 
  39:../../libdaisy/src/per/adc.h ****     /** 
  40:../../libdaisy/src/per/adc.h ****     Initializes a single ADC pin as a Multiplexed ADC.
  41:../../libdaisy/src/per/adc.h ****     Requires a CD405X Multiplexer connected to the pin.
  42:../../libdaisy/src/per/adc.h ****     You only need to supply the mux pins that are required,
  43:../../libdaisy/src/per/adc.h ****     e.g. a 4052 mux would only require mux_0 and mux_1.
  44:../../libdaisy/src/per/adc.h ****     Internal Callbacks handle the pin addressing.
  45:../../libdaisy/src/per/adc.h ****     \param mux_channels must be 1-8
  46:../../libdaisy/src/per/adc.h ****     \param mux_0 First mux pin
  47:../../libdaisy/src/per/adc.h ****     \param mux_1 Second mux pin
  48:../../libdaisy/src/per/adc.h ****     \param mux_2 Third mux pin
  49:../../libdaisy/src/per/adc.h ****     \param adc_pin &
  50:../../libdaisy/src/per/adc.h ****     */
  51:../../libdaisy/src/per/adc.h ****     void InitMux(dsy_gpio_pin adc_pin,
  52:../../libdaisy/src/per/adc.h ****                  size_t       mux_channels,
  53:../../libdaisy/src/per/adc.h ****                  dsy_gpio_pin mux_0,
  54:../../libdaisy/src/per/adc.h ****                  dsy_gpio_pin mux_1 = {DSY_GPIOX, 0},
  55:../../libdaisy/src/per/adc.h ****                  dsy_gpio_pin mux_2 = {DSY_GPIOX, 0});
  56:../../libdaisy/src/per/adc.h **** 
  57:../../libdaisy/src/per/adc.h ****     dsy_gpio pin_;                   /**< & */
ARM GAS  C:\Users\VINCIU~1\AppData\Local\Temp\ccNNq0o9.s 			page 5


  58:../../libdaisy/src/per/adc.h ****     dsy_gpio mux_pin_[MUX_SEL_LAST]; /**< & */
  59:../../libdaisy/src/per/adc.h ****     uint8_t  mux_channels_;          /**< & */
  60:../../libdaisy/src/per/adc.h **** };
  61:../../libdaisy/src/per/adc.h **** 
  62:../../libdaisy/src/per/adc.h **** /**
  63:../../libdaisy/src/per/adc.h ****    Handler for analog to digital conversion
  64:../../libdaisy/src/per/adc.h **** */
  65:../../libdaisy/src/per/adc.h **** class AdcHandle
  66:../../libdaisy/src/per/adc.h **** {
  67:../../libdaisy/src/per/adc.h ****   public:
  68:../../libdaisy/src/per/adc.h ****     /** Supported oversampling amounts */
  69:../../libdaisy/src/per/adc.h ****     enum OverSampling
  70:../../libdaisy/src/per/adc.h ****     {
  71:../../libdaisy/src/per/adc.h ****         OVS_NONE, /**< & */
  72:../../libdaisy/src/per/adc.h ****         OVS_4,    /**< & */
  73:../../libdaisy/src/per/adc.h ****         OVS_8,    /**< & */
  74:../../libdaisy/src/per/adc.h ****         OVS_16,   /**< & */
  75:../../libdaisy/src/per/adc.h ****         OVS_32,   /**< & */
  76:../../libdaisy/src/per/adc.h ****         OVS_64,   /**< & */
  77:../../libdaisy/src/per/adc.h ****         OVS_128,  /**< & */
  78:../../libdaisy/src/per/adc.h ****         OVS_256,  /**< & */
  79:../../libdaisy/src/per/adc.h ****         OVS_512,  /**< & */
  80:../../libdaisy/src/per/adc.h ****         OVS_1024, /**< & */
  81:../../libdaisy/src/per/adc.h ****         OVS_LAST, /**< & */
  82:../../libdaisy/src/per/adc.h ****     };
  83:../../libdaisy/src/per/adc.h **** 
  84:../../libdaisy/src/per/adc.h ****     AdcHandle() {}
  85:../../libdaisy/src/per/adc.h ****     ~AdcHandle() {}
  50              		.loc 4 85 5 is_stmt 1 view .LVU5
  51              		.loc 4 85 5 is_stmt 0 view .LVU6
  52              	.LBE254:
  53              	.LBB255:
  54              	.LBI255:
  55              		.file 5 "../../libdaisy/src/hid/audio.h"
   1:../../libdaisy/src/hid/audio.h **** #ifndef DSY_AUDIO_H
   2:../../libdaisy/src/hid/audio.h **** #define DSY_AUDIO_H /**< & */
   3:../../libdaisy/src/hid/audio.h **** 
   4:../../libdaisy/src/hid/audio.h **** #include "per/sai.h"
   5:../../libdaisy/src/hid/audio.h **** 
   6:../../libdaisy/src/hid/audio.h **** namespace daisy
   7:../../libdaisy/src/hid/audio.h **** {
   8:../../libdaisy/src/hid/audio.h **** class AudioHandle
   9:../../libdaisy/src/hid/audio.h **** {
  10:../../libdaisy/src/hid/audio.h ****   public:
  11:../../libdaisy/src/hid/audio.h ****     /** Manually configurable details about the Audio Engine */
  12:../../libdaisy/src/hid/audio.h ****     /** TODO: Figure out how to get samplerate in here. */
  13:../../libdaisy/src/hid/audio.h ****     struct Config
  14:../../libdaisy/src/hid/audio.h ****     {
  15:../../libdaisy/src/hid/audio.h ****         size_t                        blocksize;
  16:../../libdaisy/src/hid/audio.h ****         SaiHandle::Config::SampleRate samplerate;
  17:../../libdaisy/src/hid/audio.h ****         float                         postgain;
  18:../../libdaisy/src/hid/audio.h ****     };
  19:../../libdaisy/src/hid/audio.h **** 
  20:../../libdaisy/src/hid/audio.h ****     enum class Result
  21:../../libdaisy/src/hid/audio.h ****     {
  22:../../libdaisy/src/hid/audio.h ****         OK,
  23:../../libdaisy/src/hid/audio.h ****         ERR,
ARM GAS  C:\Users\VINCIU~1\AppData\Local\Temp\ccNNq0o9.s 			page 6


  24:../../libdaisy/src/hid/audio.h ****     };
  25:../../libdaisy/src/hid/audio.h **** 
  26:../../libdaisy/src/hid/audio.h ****     /** Non-Interleaving input buffer
  27:../../libdaisy/src/hid/audio.h ****      * Buffer arranged by float[chn][sample] 
  28:../../libdaisy/src/hid/audio.h ****      * const so that the user can't modify the input
  29:../../libdaisy/src/hid/audio.h ****     */
  30:../../libdaisy/src/hid/audio.h ****     typedef const float* const* InputBuffer;
  31:../../libdaisy/src/hid/audio.h **** 
  32:../../libdaisy/src/hid/audio.h ****     /** Non-Interleaving output buffer
  33:../../libdaisy/src/hid/audio.h ****      * Arranged by float[chn][sample] 
  34:../../libdaisy/src/hid/audio.h ****     */
  35:../../libdaisy/src/hid/audio.h ****     typedef float** OutputBuffer;
  36:../../libdaisy/src/hid/audio.h **** 
  37:../../libdaisy/src/hid/audio.h ****     /** Type for a Non-Interleaving audio callback 
  38:../../libdaisy/src/hid/audio.h ****    * Non-Interleaving audio callbacks in daisy will be of this type
  39:../../libdaisy/src/hid/audio.h ****   */
  40:../../libdaisy/src/hid/audio.h ****     typedef void (*AudioCallback)(InputBuffer  in,
  41:../../libdaisy/src/hid/audio.h ****                                   OutputBuffer out,
  42:../../libdaisy/src/hid/audio.h ****                                   size_t       size);
  43:../../libdaisy/src/hid/audio.h **** 
  44:../../libdaisy/src/hid/audio.h ****     /** Interleaving Input buffer
  45:../../libdaisy/src/hid/audio.h ****      ** audio is prepared as { L0, R0, L1, R1, . . . LN, RN }]
  46:../../libdaisy/src/hid/audio.h ****      ** this is const, as the user shouldn't modify it
  47:../../libdaisy/src/hid/audio.h ****     */
  48:../../libdaisy/src/hid/audio.h ****     typedef const float* InterleavingInputBuffer;
  49:../../libdaisy/src/hid/audio.h **** 
  50:../../libdaisy/src/hid/audio.h ****     /** Interleaving Output buffer 
  51:../../libdaisy/src/hid/audio.h ****      ** audio is prepared as { L0, R0, L1, R1, . . . LN, RN }
  52:../../libdaisy/src/hid/audio.h ****     */
  53:../../libdaisy/src/hid/audio.h ****     typedef float* InterleavingOutputBuffer;
  54:../../libdaisy/src/hid/audio.h **** 
  55:../../libdaisy/src/hid/audio.h ****     /** Interleaving Audio Callback 
  56:../../libdaisy/src/hid/audio.h ****    * Interleaving audio callbacks in daisy must be of this type
  57:../../libdaisy/src/hid/audio.h ****   */
  58:../../libdaisy/src/hid/audio.h ****     typedef void (*InterleavingAudioCallback)(InterleavingInputBuffer  in,
  59:../../libdaisy/src/hid/audio.h ****                                               InterleavingOutputBuffer out,
  60:../../libdaisy/src/hid/audio.h ****                                               size_t                   size);
  61:../../libdaisy/src/hid/audio.h **** 
  62:../../libdaisy/src/hid/audio.h ****     AudioHandle() : pimpl_(nullptr) {}
  63:../../libdaisy/src/hid/audio.h ****     ~AudioHandle() {}
  56              		.loc 5 63 5 is_stmt 1 view .LVU7
  57              		.loc 5 63 5 is_stmt 0 view .LVU8
  58              	.LBE255:
  59              		.loc 1 22 19 view .LVU9
  60 0000 7047     		bx	lr
  61              		.cfi_endproc
  62              	.LFE1793:
  64              		.weak	_ZN5daisy9DaisySeedD1Ev
  65              		.thumb_set _ZN5daisy9DaisySeedD1Ev,_ZN5daisy9DaisySeedD2Ev
  66 0002 00BF     		.section	.text._ZN7daisysp10OscillatorD2Ev,"axG",%progbits,_ZN7daisysp10OscillatorD5Ev,comdat
  67              		.align	1
  68              		.p2align 2,,3
  69              		.weak	_ZN7daisysp10OscillatorD2Ev
  70              		.syntax unified
  71              		.thumb
  72              		.thumb_func
  73              		.fpu fpv5-d16
ARM GAS  C:\Users\VINCIU~1\AppData\Local\Temp\ccNNq0o9.s 			page 7


  75              	_ZN7daisysp10OscillatorD2Ev:
  76              	.LVL1:
  77              	.LFB3482:
  78              		.file 6 "../../DaisySP/Source/Synthesis/oscillator.h"
   1:../../DaisySP/Source/Synthesis/oscillator.h **** #pragma once
   2:../../DaisySP/Source/Synthesis/oscillator.h **** #ifndef DSY_OSCILLATOR_H
   3:../../DaisySP/Source/Synthesis/oscillator.h **** #define DSY_OSCILLATOR_H
   4:../../DaisySP/Source/Synthesis/oscillator.h **** #include <stdint.h>
   5:../../DaisySP/Source/Synthesis/oscillator.h **** #include "Utility/dsp.h"
   6:../../DaisySP/Source/Synthesis/oscillator.h **** #ifdef __cplusplus
   7:../../DaisySP/Source/Synthesis/oscillator.h **** 
   8:../../DaisySP/Source/Synthesis/oscillator.h **** namespace daisysp
   9:../../DaisySP/Source/Synthesis/oscillator.h **** {
  10:../../DaisySP/Source/Synthesis/oscillator.h **** /** Synthesis of several waveforms, including polyBLEP bandlimited waveforms.
  11:../../DaisySP/Source/Synthesis/oscillator.h **** */
  12:../../DaisySP/Source/Synthesis/oscillator.h **** class Oscillator
  13:../../DaisySP/Source/Synthesis/oscillator.h **** {
  14:../../DaisySP/Source/Synthesis/oscillator.h ****   public:
  15:../../DaisySP/Source/Synthesis/oscillator.h ****     Oscillator() {}
  16:../../DaisySP/Source/Synthesis/oscillator.h ****     ~Oscillator() {}
  79              		.loc 6 16 5 is_stmt 1 view -0
  80              		.cfi_startproc
  81              		@ args = 0, pretend = 0, frame = 0
  82              		@ frame_needed = 0, uses_anonymous_args = 0
  83              		@ link register save eliminated.
  84              		.loc 6 16 20 is_stmt 0 view .LVU11
  85 0000 7047     		bx	lr
  86              		.cfi_endproc
  87              	.LFE3482:
  89              		.weak	_ZN7daisysp10OscillatorD1Ev
  90              		.thumb_set _ZN7daisysp10OscillatorD1Ev,_ZN7daisysp10OscillatorD2Ev
  91              		.section	.text._ZN5daisy11OledDisplayINS_13SSD130xDriverILj128ELj64ENS_24SSD130x4WireSpiTransportE
  92              		.align	1
  93              		.p2align 2,,3
  94              		.weak	_ZN5daisy11OledDisplayINS_13SSD130xDriverILj128ELj64ENS_24SSD130x4WireSpiTransportEEEED2Ev
  95              		.syntax unified
  96              		.thumb
  97              		.thumb_func
  98              		.fpu fpv5-d16
 100              	_ZN5daisy11OledDisplayINS_13SSD130xDriverILj128ELj64ENS_24SSD130x4WireSpiTransportEEEED2Ev:
 101              	.LVL2:
 102              	.LFB4621:
 103              		.file 7 "../../libdaisy/src/hid/disp/oled_display.h"
   1:../../libdaisy/src/hid/disp/oled_display.h **** #pragma once
   2:../../libdaisy/src/hid/disp/oled_display.h **** #ifndef DSY_OLED_DISPLAY_H
   3:../../libdaisy/src/hid/disp/oled_display.h **** #define DSY_OLED_DISPLAY_H /**< Macro */
   4:../../libdaisy/src/hid/disp/oled_display.h **** 
   5:../../libdaisy/src/hid/disp/oled_display.h **** #include "display.h"
   6:../../libdaisy/src/hid/disp/oled_display.h **** 
   7:../../libdaisy/src/hid/disp/oled_display.h **** namespace daisy
   8:../../libdaisy/src/hid/disp/oled_display.h **** {
   9:../../libdaisy/src/hid/disp/oled_display.h **** /** 
  10:../../libdaisy/src/hid/disp/oled_display.h ****  * This class is for drawing to a monochrome OLED display. 
  11:../../libdaisy/src/hid/disp/oled_display.h **** */
  12:../../libdaisy/src/hid/disp/oled_display.h **** template <typename DisplayDriver>
  13:../../libdaisy/src/hid/disp/oled_display.h **** class OledDisplay : public OneBitGraphicsDisplayImpl<OledDisplay<DisplayDriver>>
  14:../../libdaisy/src/hid/disp/oled_display.h **** {
ARM GAS  C:\Users\VINCIU~1\AppData\Local\Temp\ccNNq0o9.s 			page 8


  15:../../libdaisy/src/hid/disp/oled_display.h ****   public:
  16:../../libdaisy/src/hid/disp/oled_display.h ****     OledDisplay() {}
  17:../../libdaisy/src/hid/disp/oled_display.h ****     virtual ~OledDisplay() {}
 104              		.loc 7 17 13 is_stmt 1 view -0
 105              		.cfi_startproc
 106              		@ args = 0, pretend = 0, frame = 0
 107              		@ frame_needed = 0, uses_anonymous_args = 0
 108              		@ link register save eliminated.
 109              	.LBB256:
 110              	.LBI256:
 111              		.file 8 "../../libdaisy/src/hid/disp/display.h"
   1:../../libdaisy/src/hid/disp/display.h **** #pragma once
   2:../../libdaisy/src/hid/disp/display.h **** #ifndef DSY_DISPLAY_H
   3:../../libdaisy/src/hid/disp/display.h **** #define DSY_DISPLAY_H /**< Macro */
   4:../../libdaisy/src/hid/disp/display.h **** #include <cmath>
   5:../../libdaisy/src/hid/disp/display.h **** #include "util/oled_fonts.h"
   6:../../libdaisy/src/hid/disp/display.h **** #include "daisy_core.h"
   7:../../libdaisy/src/hid/disp/display.h **** 
   8:../../libdaisy/src/hid/disp/display.h **** #ifndef deg2rad
   9:../../libdaisy/src/hid/disp/display.h **** #define deg2rad(deg) ((deg)*3.141592 / 180.0)
  10:../../libdaisy/src/hid/disp/display.h **** #endif
  11:../../libdaisy/src/hid/disp/display.h **** 
  12:../../libdaisy/src/hid/disp/display.h **** namespace daisy
  13:../../libdaisy/src/hid/disp/display.h **** {
  14:../../libdaisy/src/hid/disp/display.h **** /** 
  15:../../libdaisy/src/hid/disp/display.h ****  * This interface is used as a base class for all types of 1bit-per-pixel
  16:../../libdaisy/src/hid/disp/display.h ****  * graphics displays.
  17:../../libdaisy/src/hid/disp/display.h **** */
  18:../../libdaisy/src/hid/disp/display.h **** class OneBitGraphicsDisplay
  19:../../libdaisy/src/hid/disp/display.h **** {
  20:../../libdaisy/src/hid/disp/display.h ****   public:
  21:../../libdaisy/src/hid/disp/display.h ****     OneBitGraphicsDisplay() {}
  22:../../libdaisy/src/hid/disp/display.h ****     virtual ~OneBitGraphicsDisplay() {}
  23:../../libdaisy/src/hid/disp/display.h **** 
  24:../../libdaisy/src/hid/disp/display.h ****     virtual uint16_t Height() const = 0;
  25:../../libdaisy/src/hid/disp/display.h ****     virtual uint16_t Width() const  = 0;
  26:../../libdaisy/src/hid/disp/display.h **** 
  27:../../libdaisy/src/hid/disp/display.h ****     size_t CurrentX() { return currentX_; };
  28:../../libdaisy/src/hid/disp/display.h ****     size_t CurrentY() { return currentY_; };
  29:../../libdaisy/src/hid/disp/display.h **** 
  30:../../libdaisy/src/hid/disp/display.h ****     /** 
  31:../../libdaisy/src/hid/disp/display.h ****     Fills the entire display with either on/off.
  32:../../libdaisy/src/hid/disp/display.h ****     \param on Sets on or off.
  33:../../libdaisy/src/hid/disp/display.h ****     */
  34:../../libdaisy/src/hid/disp/display.h ****     virtual void Fill(bool on) = 0;
  35:../../libdaisy/src/hid/disp/display.h **** 
  36:../../libdaisy/src/hid/disp/display.h ****     /**
  37:../../libdaisy/src/hid/disp/display.h ****     Sets the pixel at the specified coordinate to be on/off.
  38:../../libdaisy/src/hid/disp/display.h ****     \param x   x Coordinate
  39:../../libdaisy/src/hid/disp/display.h ****     \param y   y coordinate
  40:../../libdaisy/src/hid/disp/display.h ****     \param on  on or off
  41:../../libdaisy/src/hid/disp/display.h ****     */
  42:../../libdaisy/src/hid/disp/display.h ****     virtual void DrawPixel(uint_fast8_t x, uint_fast8_t y, bool on) = 0;
  43:../../libdaisy/src/hid/disp/display.h **** 
  44:../../libdaisy/src/hid/disp/display.h ****     /**
  45:../../libdaisy/src/hid/disp/display.h ****     Draws a line from (x1, y1) to (y1, y2)
  46:../../libdaisy/src/hid/disp/display.h ****     \param x1  x Coordinate of the starting point
ARM GAS  C:\Users\VINCIU~1\AppData\Local\Temp\ccNNq0o9.s 			page 9


  47:../../libdaisy/src/hid/disp/display.h ****     \param y1  y Coordinate of the starting point
  48:../../libdaisy/src/hid/disp/display.h ****     \param x2  x Coordinate of the ending point
  49:../../libdaisy/src/hid/disp/display.h ****     \param y2  y Coordinate of the ending point
  50:../../libdaisy/src/hid/disp/display.h ****     \param on  on or off
  51:../../libdaisy/src/hid/disp/display.h ****     */
  52:../../libdaisy/src/hid/disp/display.h ****     virtual void DrawLine(uint_fast8_t x1,
  53:../../libdaisy/src/hid/disp/display.h ****                           uint_fast8_t y1,
  54:../../libdaisy/src/hid/disp/display.h ****                           uint_fast8_t x2,
  55:../../libdaisy/src/hid/disp/display.h ****                           uint_fast8_t y2,
  56:../../libdaisy/src/hid/disp/display.h ****                           bool         on)
  57:../../libdaisy/src/hid/disp/display.h ****         = 0;
  58:../../libdaisy/src/hid/disp/display.h **** 
  59:../../libdaisy/src/hid/disp/display.h ****     /**
  60:../../libdaisy/src/hid/disp/display.h ****     Draws a rectangle based on two coordinates.
  61:../../libdaisy/src/hid/disp/display.h ****     \param x1 x Coordinate of the first point
  62:../../libdaisy/src/hid/disp/display.h ****     \param y1 y Coordinate of the first point
  63:../../libdaisy/src/hid/disp/display.h ****     \param x2 x Coordinate of the second point
  64:../../libdaisy/src/hid/disp/display.h ****     \param y2 y Coordinate of the second point
  65:../../libdaisy/src/hid/disp/display.h ****     \param on on or off
  66:../../libdaisy/src/hid/disp/display.h ****     */
  67:../../libdaisy/src/hid/disp/display.h ****     virtual void DrawRect(uint_fast8_t x1,
  68:../../libdaisy/src/hid/disp/display.h ****                           uint_fast8_t y1,
  69:../../libdaisy/src/hid/disp/display.h ****                           uint_fast8_t x2,
  70:../../libdaisy/src/hid/disp/display.h ****                           uint_fast8_t y2,
  71:../../libdaisy/src/hid/disp/display.h ****                           bool         on,
  72:../../libdaisy/src/hid/disp/display.h ****                           bool         fill = false)
  73:../../libdaisy/src/hid/disp/display.h ****         = 0;
  74:../../libdaisy/src/hid/disp/display.h **** 
  75:../../libdaisy/src/hid/disp/display.h ****     /**
  76:../../libdaisy/src/hid/disp/display.h ****     Draws an arc around the specified coordinate
  77:../../libdaisy/src/hid/disp/display.h ****     \param x           x Coordinate of the center of the arc
  78:../../libdaisy/src/hid/disp/display.h ****     \param y           y Coordinate of the center of the arc
  79:../../libdaisy/src/hid/disp/display.h ****     \param radius      radius of the arc
  80:../../libdaisy/src/hid/disp/display.h ****     \param start_angle angle where to start the arc
  81:../../libdaisy/src/hid/disp/display.h ****     \param sweep       total angle of the arc
  82:../../libdaisy/src/hid/disp/display.h ****     \param on  on or off
  83:../../libdaisy/src/hid/disp/display.h ****     */
  84:../../libdaisy/src/hid/disp/display.h ****     virtual void DrawArc(uint_fast8_t x,
  85:../../libdaisy/src/hid/disp/display.h ****                          uint_fast8_t y,
  86:../../libdaisy/src/hid/disp/display.h ****                          uint_fast8_t radius,
  87:../../libdaisy/src/hid/disp/display.h ****                          int_fast16_t start_angle,
  88:../../libdaisy/src/hid/disp/display.h ****                          int_fast16_t sweep,
  89:../../libdaisy/src/hid/disp/display.h ****                          bool         on)
  90:../../libdaisy/src/hid/disp/display.h ****         = 0;
  91:../../libdaisy/src/hid/disp/display.h **** 
  92:../../libdaisy/src/hid/disp/display.h ****     /**
  93:../../libdaisy/src/hid/disp/display.h ****     Draws a circle around the specified coordinate
  94:../../libdaisy/src/hid/disp/display.h ****     \param x           x Coordinate of the center of the circle
  95:../../libdaisy/src/hid/disp/display.h ****     \param y           y Coordinate of the center of the circle
  96:../../libdaisy/src/hid/disp/display.h ****     \param radius      radius of the circle
  97:../../libdaisy/src/hid/disp/display.h ****     \param on  on or off
  98:../../libdaisy/src/hid/disp/display.h ****     */
  99:../../libdaisy/src/hid/disp/display.h ****     void
 100:../../libdaisy/src/hid/disp/display.h ****     DrawCircle(uint_fast8_t x, uint_fast8_t y, uint_fast8_t radius, bool on)
 101:../../libdaisy/src/hid/disp/display.h ****     {
 102:../../libdaisy/src/hid/disp/display.h ****         DrawArc(x, y, radius, 0, 360, on);
 103:../../libdaisy/src/hid/disp/display.h ****     };
ARM GAS  C:\Users\VINCIU~1\AppData\Local\Temp\ccNNq0o9.s 			page 10


 104:../../libdaisy/src/hid/disp/display.h **** 
 105:../../libdaisy/src/hid/disp/display.h ****     /** 
 106:../../libdaisy/src/hid/disp/display.h ****     Writes the character with the specific FontDef
 107:../../libdaisy/src/hid/disp/display.h ****     to the display buffer at the current Cursor position.
 108:../../libdaisy/src/hid/disp/display.h ****     \param ch character to be written
 109:../../libdaisy/src/hid/disp/display.h ****     \param font font to be written in
 110:../../libdaisy/src/hid/disp/display.h ****     \param on    on or off
 111:../../libdaisy/src/hid/disp/display.h ****     \return &
 112:../../libdaisy/src/hid/disp/display.h ****     */
 113:../../libdaisy/src/hid/disp/display.h ****     virtual char WriteChar(char ch, FontDef font, bool on) = 0;
 114:../../libdaisy/src/hid/disp/display.h **** 
 115:../../libdaisy/src/hid/disp/display.h ****     /** 
 116:../../libdaisy/src/hid/disp/display.h ****     Similar to WriteChar, except it will handle an entire String.
 117:../../libdaisy/src/hid/disp/display.h ****     Wrapping does not happen automatically, so the width
 118:../../libdaisy/src/hid/disp/display.h ****     of the string must be kept within the dimensions of the screen.
 119:../../libdaisy/src/hid/disp/display.h ****     \param str string to be written
 120:../../libdaisy/src/hid/disp/display.h ****     \param font font to use
 121:../../libdaisy/src/hid/disp/display.h ****     \param on  on or off
 122:../../libdaisy/src/hid/disp/display.h ****     \return &
 123:../../libdaisy/src/hid/disp/display.h ****     */
 124:../../libdaisy/src/hid/disp/display.h ****     virtual char WriteString(const char* str, FontDef font, bool on) = 0;
 125:../../libdaisy/src/hid/disp/display.h **** 
 126:../../libdaisy/src/hid/disp/display.h ****     /** 
 127:../../libdaisy/src/hid/disp/display.h ****     Moves the 'Cursor' position used for WriteChar, and WriteStr to the specified coordinate.
 128:../../libdaisy/src/hid/disp/display.h ****     \param x x pos
 129:../../libdaisy/src/hid/disp/display.h ****     \param y y pos
 130:../../libdaisy/src/hid/disp/display.h ****     */
 131:../../libdaisy/src/hid/disp/display.h ****     void SetCursor(uint16_t x, uint16_t y)
 132:../../libdaisy/src/hid/disp/display.h ****     {
 133:../../libdaisy/src/hid/disp/display.h ****         currentX_ = (x >= Width()) ? Width() - 1 : x;
 134:../../libdaisy/src/hid/disp/display.h ****         currentY_ = (y >= Height()) ? Height() - 1 : y;
 135:../../libdaisy/src/hid/disp/display.h ****     }
 136:../../libdaisy/src/hid/disp/display.h **** 
 137:../../libdaisy/src/hid/disp/display.h ****     /** 
 138:../../libdaisy/src/hid/disp/display.h ****     Writes the current display buffer to the OLED device using SPI or I2C depending on 
 139:../../libdaisy/src/hid/disp/display.h ****     how the object was initialized.
 140:../../libdaisy/src/hid/disp/display.h ****     */
 141:../../libdaisy/src/hid/disp/display.h ****     virtual void Update() = 0;
 142:../../libdaisy/src/hid/disp/display.h **** 
 143:../../libdaisy/src/hid/disp/display.h ****   protected:
 144:../../libdaisy/src/hid/disp/display.h ****     uint16_t currentX_;
 145:../../libdaisy/src/hid/disp/display.h ****     uint16_t currentY_;
 146:../../libdaisy/src/hid/disp/display.h **** };
 147:../../libdaisy/src/hid/disp/display.h **** 
 148:../../libdaisy/src/hid/disp/display.h **** /** This class is intended as a intermediary class for your actual implementation of the OneBitGrap
 149:../../libdaisy/src/hid/disp/display.h ****  *  interface. It uses the CRTP design pattern where the template argument is the child class. It p
 150:../../libdaisy/src/hid/disp/display.h ****  *  implementations for most of the functions, except DrawPixel(), Update() and Fill(), which you'l
 151:../../libdaisy/src/hid/disp/display.h ****  *  to provide in your child class.
 152:../../libdaisy/src/hid/disp/display.h ****  *  The main goal of this class is to provide common drawing functions without relying on massive a
 153:../../libdaisy/src/hid/disp/display.h ****  *  virtual function calls that would result in a performance loss. To achieve this, any drawing fu
 154:../../libdaisy/src/hid/disp/display.h ****  *  is implemented here and internally calls other drawing functions (e.g. DrawRect() which interna
 155:../../libdaisy/src/hid/disp/display.h ****  *  DrawPixel() and DrawLine()) makes these calls via the qualified name of these functions to expl
 156:../../libdaisy/src/hid/disp/display.h ****  *  suppress the virtual dispatch mechanism like this:
 157:../../libdaisy/src/hid/disp/display.h ****  * 
 158:../../libdaisy/src/hid/disp/display.h ****  *      ChildType::DrawPixel(...); // no virtual function call; direct call into the child class fu
 159:../../libdaisy/src/hid/disp/display.h ****  *  
 160:../../libdaisy/src/hid/disp/display.h ****  *  To create a custom OneBitGraphicsDisplay implementation, you can 
ARM GAS  C:\Users\VINCIU~1\AppData\Local\Temp\ccNNq0o9.s 			page 11


 161:../../libdaisy/src/hid/disp/display.h ****  *  A) inherit from OneBitGraphicsDisplay directly and provide all the drawing functions yourself
 162:../../libdaisy/src/hid/disp/display.h ****  *  B) Inherit from OneBitGraphicsDisplayImpl and only provide DrawPixel(), Fill() and Update()
 163:../../libdaisy/src/hid/disp/display.h ****  *     like this:
 164:../../libdaisy/src/hid/disp/display.h ****  *  
 165:../../libdaisy/src/hid/disp/display.h ****  *      class MyDisplayClass : public OneBitGraphicsDisplayImpl<MyDisplayClass> 
 166:../../libdaisy/src/hid/disp/display.h ****  *      {
 167:../../libdaisy/src/hid/disp/display.h ****  *      public:
 168:../../libdaisy/src/hid/disp/display.h ****  *          void Fill() override { ... };
 169:../../libdaisy/src/hid/disp/display.h ****  *          void DrawPixel(uint_fast8_t x, uint_fast8_t y, bool on) override { ... };
 170:../../libdaisy/src/hid/disp/display.h ****  *          void Update() override { ... }
 171:../../libdaisy/src/hid/disp/display.h ****  *      };
 172:../../libdaisy/src/hid/disp/display.h ****  *  
 173:../../libdaisy/src/hid/disp/display.h ****  */
 174:../../libdaisy/src/hid/disp/display.h **** template <class ChildType>
 175:../../libdaisy/src/hid/disp/display.h **** class OneBitGraphicsDisplayImpl : public OneBitGraphicsDisplay
 176:../../libdaisy/src/hid/disp/display.h **** {
 177:../../libdaisy/src/hid/disp/display.h ****   public:
 178:../../libdaisy/src/hid/disp/display.h ****     OneBitGraphicsDisplayImpl() {}
 179:../../libdaisy/src/hid/disp/display.h ****     virtual ~OneBitGraphicsDisplayImpl() {}
 112              		.loc 8 179 13 view .LVU13
 113              	.LBB257:
 114              	.LBI257:
  22:../../libdaisy/src/hid/disp/display.h **** 
 115              		.loc 8 22 13 view .LVU14
  22:../../libdaisy/src/hid/disp/display.h **** 
 116              		.loc 8 22 13 is_stmt 0 view .LVU15
 117              	.LBE257:
 118              	.LBE256:
 119              		.loc 7 17 29 view .LVU16
 120 0000 7047     		bx	lr
 121              		.cfi_endproc
 122              	.LFE4621:
 124              		.weak	_ZN5daisy11OledDisplayINS_13SSD130xDriverILj128ELj64ENS_24SSD130x4WireSpiTransportEEEED1Ev
 125              		.thumb_set _ZN5daisy11OledDisplayINS_13SSD130xDriverILj128ELj64ENS_24SSD130x4WireSpiTransportEEEED
 126 0002 00BF     		.section	.text._ZNK5daisy11OledDisplayINS_13SSD130xDriverILj128ELj64ENS_24SSD130x4WireSpiTransport
 127              		.align	1
 128              		.p2align 2,,3
 129              		.weak	_ZNK5daisy11OledDisplayINS_13SSD130xDriverILj128ELj64ENS_24SSD130x4WireSpiTransportEEEE6Heig
 130              		.syntax unified
 131              		.thumb
 132              		.thumb_func
 133              		.fpu fpv5-d16
 135              	_ZNK5daisy11OledDisplayINS_13SSD130xDriverILj128ELj64ENS_24SSD130x4WireSpiTransportEEEE6HeightEv:
 136              	.LVL3:
 137              	.LFB4624:
  18:../../libdaisy/src/hid/disp/oled_display.h **** 
  19:../../libdaisy/src/hid/disp/oled_display.h ****     struct Config
  20:../../libdaisy/src/hid/disp/oled_display.h ****     {
  21:../../libdaisy/src/hid/disp/oled_display.h ****         typename DisplayDriver::Config driver_config;
  22:../../libdaisy/src/hid/disp/oled_display.h ****     };
  23:../../libdaisy/src/hid/disp/oled_display.h **** 
  24:../../libdaisy/src/hid/disp/oled_display.h ****     void Init(Config config) { driver_.Init(config.driver_config); }
  25:../../libdaisy/src/hid/disp/oled_display.h **** 
  26:../../libdaisy/src/hid/disp/oled_display.h ****     uint16_t Height() const override { return driver_.Height(); }
 138              		.loc 7 26 14 is_stmt 1 view -0
 139              		.cfi_startproc
 140              		@ args = 0, pretend = 0, frame = 0
ARM GAS  C:\Users\VINCIU~1\AppData\Local\Temp\ccNNq0o9.s 			page 12


 141              		@ frame_needed = 0, uses_anonymous_args = 0
 142              		@ link register save eliminated.
 143              		.loc 7 26 65 is_stmt 0 view .LVU18
 144 0000 4020     		movs	r0, #64
 145              	.LVL4:
 146              		.loc 7 26 65 view .LVU19
 147 0002 7047     		bx	lr
 148              		.cfi_endproc
 149              	.LFE4624:
 151              		.section	.text._ZNK5daisy11OledDisplayINS_13SSD130xDriverILj128ELj64ENS_24SSD130x4WireSpiTransport
 152              		.align	1
 153              		.p2align 2,,3
 154              		.weak	_ZNK5daisy11OledDisplayINS_13SSD130xDriverILj128ELj64ENS_24SSD130x4WireSpiTransportEEEE5Widt
 155              		.syntax unified
 156              		.thumb
 157              		.thumb_func
 158              		.fpu fpv5-d16
 160              	_ZNK5daisy11OledDisplayINS_13SSD130xDriverILj128ELj64ENS_24SSD130x4WireSpiTransportEEEE5WidthEv:
 161              	.LVL5:
 162              	.LFB4625:
  27:../../libdaisy/src/hid/disp/oled_display.h ****     uint16_t Width() const override { return driver_.Width(); }
 163              		.loc 7 27 14 is_stmt 1 view -0
 164              		.cfi_startproc
 165              		@ args = 0, pretend = 0, frame = 0
 166              		@ frame_needed = 0, uses_anonymous_args = 0
 167              		@ link register save eliminated.
 168              		.loc 7 27 63 is_stmt 0 view .LVU21
 169 0000 8020     		movs	r0, #128
 170              	.LVL6:
 171              		.loc 7 27 63 view .LVU22
 172 0002 7047     		bx	lr
 173              		.cfi_endproc
 174              	.LFE4625:
 176              		.section	.text._ZN5daisy11OledDisplayINS_13SSD130xDriverILj128ELj64ENS_24SSD130x4WireSpiTransportE
 177              		.align	1
 178              		.p2align 2,,3
 179              		.weak	_ZN5daisy11OledDisplayINS_13SSD130xDriverILj128ELj64ENS_24SSD130x4WireSpiTransportEEEE4FillE
 180              		.syntax unified
 181              		.thumb
 182              		.thumb_func
 183              		.fpu fpv5-d16
 185              	_ZN5daisy11OledDisplayINS_13SSD130xDriverILj128ELj64ENS_24SSD130x4WireSpiTransportEEEE4FillEb:
 186              	.LVL7:
 187              	.LFB4626:
  28:../../libdaisy/src/hid/disp/oled_display.h **** 
  29:../../libdaisy/src/hid/disp/oled_display.h ****     /** 
  30:../../libdaisy/src/hid/disp/oled_display.h ****     Fills the entire display with either on/off.
  31:../../libdaisy/src/hid/disp/oled_display.h ****     \param on Sets on or off.
  32:../../libdaisy/src/hid/disp/oled_display.h ****     */
  33:../../libdaisy/src/hid/disp/oled_display.h ****     void Fill(bool on) override { driver_.Fill(on); }
 188              		.loc 7 33 10 is_stmt 1 view -0
 189              		.cfi_startproc
 190              		@ args = 0, pretend = 0, frame = 0
 191              		@ frame_needed = 0, uses_anonymous_args = 0
 192              		@ link register save eliminated.
 193              	.LBB258:
 194              	.LBI258:
ARM GAS  C:\Users\VINCIU~1\AppData\Local\Temp\ccNNq0o9.s 			page 13


 195              		.file 9 "../../libdaisy/src/dev/oled_ssd130x.h"
   1:../../libdaisy/src/dev/oled_ssd130x.h **** #pragma once
   2:../../libdaisy/src/dev/oled_ssd130x.h **** #ifndef SA_OLED_SSD130X_H
   3:../../libdaisy/src/dev/oled_ssd130x.h **** #define SA_OLED_SSD130X_H /**< & */
   4:../../libdaisy/src/dev/oled_ssd130x.h **** 
   5:../../libdaisy/src/dev/oled_ssd130x.h **** #include "per/i2c.h"
   6:../../libdaisy/src/dev/oled_ssd130x.h **** #include "per/spi.h"
   7:../../libdaisy/src/dev/oled_ssd130x.h **** #include "per/gpio.h"
   8:../../libdaisy/src/dev/oled_ssd130x.h **** #include "sys/system.h"
   9:../../libdaisy/src/dev/oled_ssd130x.h **** 
  10:../../libdaisy/src/dev/oled_ssd130x.h **** namespace daisy
  11:../../libdaisy/src/dev/oled_ssd130x.h **** {
  12:../../libdaisy/src/dev/oled_ssd130x.h **** /**
  13:../../libdaisy/src/dev/oled_ssd130x.h ****  * I2C Transport for SSD1306 / SSD1309 OLED display devices
  14:../../libdaisy/src/dev/oled_ssd130x.h ****  */
  15:../../libdaisy/src/dev/oled_ssd130x.h **** class SSD130xI2CTransport
  16:../../libdaisy/src/dev/oled_ssd130x.h **** {
  17:../../libdaisy/src/dev/oled_ssd130x.h ****   public:
  18:../../libdaisy/src/dev/oled_ssd130x.h ****     struct Config
  19:../../libdaisy/src/dev/oled_ssd130x.h ****     {
  20:../../libdaisy/src/dev/oled_ssd130x.h ****         I2CHandle::Config i2c_config;
  21:../../libdaisy/src/dev/oled_ssd130x.h ****         uint8_t           i2c_address;
  22:../../libdaisy/src/dev/oled_ssd130x.h ****         void              Defaults()
  23:../../libdaisy/src/dev/oled_ssd130x.h ****         {
  24:../../libdaisy/src/dev/oled_ssd130x.h ****             i2c_config.periph         = I2CHandle::Config::Peripheral::I2C_1;
  25:../../libdaisy/src/dev/oled_ssd130x.h ****             i2c_config.speed          = I2CHandle::Config::Speed::I2C_1MHZ;
  26:../../libdaisy/src/dev/oled_ssd130x.h ****             i2c_config.mode           = I2CHandle::Config::Mode::I2C_MASTER;
  27:../../libdaisy/src/dev/oled_ssd130x.h ****             i2c_config.pin_config.scl = {DSY_GPIOB, 8};
  28:../../libdaisy/src/dev/oled_ssd130x.h ****             i2c_config.pin_config.sda = {DSY_GPIOB, 9};
  29:../../libdaisy/src/dev/oled_ssd130x.h ****             i2c_address               = 0x3C;
  30:../../libdaisy/src/dev/oled_ssd130x.h ****         }
  31:../../libdaisy/src/dev/oled_ssd130x.h ****     };
  32:../../libdaisy/src/dev/oled_ssd130x.h ****     void Init(const Config& config)
  33:../../libdaisy/src/dev/oled_ssd130x.h ****     {
  34:../../libdaisy/src/dev/oled_ssd130x.h ****         i2c_address_ = config.i2c_address;
  35:../../libdaisy/src/dev/oled_ssd130x.h ****         i2c_.Init(config.i2c_config);
  36:../../libdaisy/src/dev/oled_ssd130x.h ****     };
  37:../../libdaisy/src/dev/oled_ssd130x.h ****     void SendCommand(uint8_t cmd)
  38:../../libdaisy/src/dev/oled_ssd130x.h ****     {
  39:../../libdaisy/src/dev/oled_ssd130x.h ****         uint8_t buf[2] = {0X00, cmd};
  40:../../libdaisy/src/dev/oled_ssd130x.h ****         i2c_.TransmitBlocking(i2c_address_, buf, 2, 1000);
  41:../../libdaisy/src/dev/oled_ssd130x.h ****     };
  42:../../libdaisy/src/dev/oled_ssd130x.h **** 
  43:../../libdaisy/src/dev/oled_ssd130x.h ****     void SendData(uint8_t* buff, size_t size)
  44:../../libdaisy/src/dev/oled_ssd130x.h ****     {
  45:../../libdaisy/src/dev/oled_ssd130x.h ****         for(size_t i = 0; i < size; i++)
  46:../../libdaisy/src/dev/oled_ssd130x.h ****         {
  47:../../libdaisy/src/dev/oled_ssd130x.h ****             uint8_t buf[2] = {0X40, buff[i]};
  48:../../libdaisy/src/dev/oled_ssd130x.h ****             i2c_.TransmitBlocking(i2c_address_, buf, 2, 1000);
  49:../../libdaisy/src/dev/oled_ssd130x.h ****         }
  50:../../libdaisy/src/dev/oled_ssd130x.h ****     };
  51:../../libdaisy/src/dev/oled_ssd130x.h **** 
  52:../../libdaisy/src/dev/oled_ssd130x.h ****   private:
  53:../../libdaisy/src/dev/oled_ssd130x.h ****     daisy::I2CHandle i2c_;
  54:../../libdaisy/src/dev/oled_ssd130x.h ****     uint8_t          i2c_address_;
  55:../../libdaisy/src/dev/oled_ssd130x.h **** };
  56:../../libdaisy/src/dev/oled_ssd130x.h **** 
ARM GAS  C:\Users\VINCIU~1\AppData\Local\Temp\ccNNq0o9.s 			page 14


  57:../../libdaisy/src/dev/oled_ssd130x.h **** /**
  58:../../libdaisy/src/dev/oled_ssd130x.h ****  * 4 Wire SPI Transport for SSD1306 / SSD1309 OLED display devices
  59:../../libdaisy/src/dev/oled_ssd130x.h ****  */
  60:../../libdaisy/src/dev/oled_ssd130x.h **** class SSD130x4WireSpiTransport
  61:../../libdaisy/src/dev/oled_ssd130x.h **** {
  62:../../libdaisy/src/dev/oled_ssd130x.h ****   public:
  63:../../libdaisy/src/dev/oled_ssd130x.h ****     struct Config
  64:../../libdaisy/src/dev/oled_ssd130x.h ****     {
  65:../../libdaisy/src/dev/oled_ssd130x.h ****         struct
  66:../../libdaisy/src/dev/oled_ssd130x.h ****         {
  67:../../libdaisy/src/dev/oled_ssd130x.h ****             dsy_gpio_pin dc;    /**< & */
  68:../../libdaisy/src/dev/oled_ssd130x.h ****             dsy_gpio_pin reset; /**< & */
  69:../../libdaisy/src/dev/oled_ssd130x.h ****         } pin_config;
  70:../../libdaisy/src/dev/oled_ssd130x.h ****         void Defaults()
  71:../../libdaisy/src/dev/oled_ssd130x.h ****         {
  72:../../libdaisy/src/dev/oled_ssd130x.h ****             pin_config.dc    = {DSY_GPIOB, 4};
  73:../../libdaisy/src/dev/oled_ssd130x.h ****             pin_config.reset = {DSY_GPIOB, 15};
  74:../../libdaisy/src/dev/oled_ssd130x.h ****         }
  75:../../libdaisy/src/dev/oled_ssd130x.h ****     };
  76:../../libdaisy/src/dev/oled_ssd130x.h ****     void Init(const Config& config)
  77:../../libdaisy/src/dev/oled_ssd130x.h ****     {
  78:../../libdaisy/src/dev/oled_ssd130x.h ****         // Initialize both GPIO
  79:../../libdaisy/src/dev/oled_ssd130x.h ****         pin_dc_.mode = DSY_GPIO_MODE_OUTPUT_PP;
  80:../../libdaisy/src/dev/oled_ssd130x.h ****         pin_dc_.pin  = config.pin_config.dc;
  81:../../libdaisy/src/dev/oled_ssd130x.h ****         dsy_gpio_init(&pin_dc_);
  82:../../libdaisy/src/dev/oled_ssd130x.h ****         pin_reset_.mode = DSY_GPIO_MODE_OUTPUT_PP;
  83:../../libdaisy/src/dev/oled_ssd130x.h ****         pin_reset_.pin  = config.pin_config.reset;
  84:../../libdaisy/src/dev/oled_ssd130x.h ****         dsy_gpio_init(&pin_reset_);
  85:../../libdaisy/src/dev/oled_ssd130x.h ****         // Initialize SPI
  86:../../libdaisy/src/dev/oled_ssd130x.h ****         SpiHandle::Config spi_config;
  87:../../libdaisy/src/dev/oled_ssd130x.h ****         spi_config.periph    = SpiHandle::Config::Peripheral::SPI_1;
  88:../../libdaisy/src/dev/oled_ssd130x.h ****         spi_config.mode      = SpiHandle::Config::Mode::MASTER;
  89:../../libdaisy/src/dev/oled_ssd130x.h ****         spi_config.direction = SpiHandle::Config::Direction::TWO_LINES_TX_ONLY;
  90:../../libdaisy/src/dev/oled_ssd130x.h ****         spi_config.datasize  = 8;
  91:../../libdaisy/src/dev/oled_ssd130x.h ****         spi_config.clock_polarity = SpiHandle::Config::ClockPolarity::LOW;
  92:../../libdaisy/src/dev/oled_ssd130x.h ****         spi_config.clock_phase    = SpiHandle::Config::ClockPhase::ONE_EDGE;
  93:../../libdaisy/src/dev/oled_ssd130x.h ****         spi_config.nss            = SpiHandle::Config::NSS::HARD_OUTPUT;
  94:../../libdaisy/src/dev/oled_ssd130x.h ****         spi_config.baud_prescaler = SpiHandle::Config::BaudPrescaler::PS_8;
  95:../../libdaisy/src/dev/oled_ssd130x.h **** 
  96:../../libdaisy/src/dev/oled_ssd130x.h ****         spi_config.pin_config.sclk = {DSY_GPIOG, 11};
  97:../../libdaisy/src/dev/oled_ssd130x.h ****         spi_config.pin_config.miso = {DSY_GPIOX, 0};
  98:../../libdaisy/src/dev/oled_ssd130x.h ****         spi_config.pin_config.mosi = {DSY_GPIOB, 5};
  99:../../libdaisy/src/dev/oled_ssd130x.h ****         spi_config.pin_config.nss  = {DSY_GPIOG, 10};
 100:../../libdaisy/src/dev/oled_ssd130x.h **** 
 101:../../libdaisy/src/dev/oled_ssd130x.h ****         spi_.Init(spi_config);
 102:../../libdaisy/src/dev/oled_ssd130x.h **** 
 103:../../libdaisy/src/dev/oled_ssd130x.h ****         // Reset and Configure OLED.
 104:../../libdaisy/src/dev/oled_ssd130x.h ****         dsy_gpio_write(&pin_reset_, 0);
 105:../../libdaisy/src/dev/oled_ssd130x.h ****         System::Delay(10);
 106:../../libdaisy/src/dev/oled_ssd130x.h ****         dsy_gpio_write(&pin_reset_, 1);
 107:../../libdaisy/src/dev/oled_ssd130x.h ****         System::Delay(10);
 108:../../libdaisy/src/dev/oled_ssd130x.h ****     };
 109:../../libdaisy/src/dev/oled_ssd130x.h ****     void SendCommand(uint8_t cmd)
 110:../../libdaisy/src/dev/oled_ssd130x.h ****     {
 111:../../libdaisy/src/dev/oled_ssd130x.h ****         dsy_gpio_write(&pin_dc_, 0);
 112:../../libdaisy/src/dev/oled_ssd130x.h ****         spi_.BlockingTransmit(&cmd, 1);
 113:../../libdaisy/src/dev/oled_ssd130x.h ****     };
ARM GAS  C:\Users\VINCIU~1\AppData\Local\Temp\ccNNq0o9.s 			page 15


 114:../../libdaisy/src/dev/oled_ssd130x.h **** 
 115:../../libdaisy/src/dev/oled_ssd130x.h ****     void SendData(uint8_t* buff, size_t size)
 116:../../libdaisy/src/dev/oled_ssd130x.h ****     {
 117:../../libdaisy/src/dev/oled_ssd130x.h ****         dsy_gpio_write(&pin_dc_, 1);
 118:../../libdaisy/src/dev/oled_ssd130x.h ****         spi_.BlockingTransmit(buff, size);
 119:../../libdaisy/src/dev/oled_ssd130x.h ****     };
 120:../../libdaisy/src/dev/oled_ssd130x.h **** 
 121:../../libdaisy/src/dev/oled_ssd130x.h ****   private:
 122:../../libdaisy/src/dev/oled_ssd130x.h ****     SpiHandle spi_;
 123:../../libdaisy/src/dev/oled_ssd130x.h ****     dsy_gpio  pin_reset_;
 124:../../libdaisy/src/dev/oled_ssd130x.h ****     dsy_gpio  pin_dc_;
 125:../../libdaisy/src/dev/oled_ssd130x.h **** };
 126:../../libdaisy/src/dev/oled_ssd130x.h **** 
 127:../../libdaisy/src/dev/oled_ssd130x.h **** 
 128:../../libdaisy/src/dev/oled_ssd130x.h **** /**
 129:../../libdaisy/src/dev/oled_ssd130x.h ****  * A driver implementation for the SSD1306/SSD1309
 130:../../libdaisy/src/dev/oled_ssd130x.h ****  */
 131:../../libdaisy/src/dev/oled_ssd130x.h **** template <size_t width, size_t height, typename Transport>
 132:../../libdaisy/src/dev/oled_ssd130x.h **** class SSD130xDriver
 133:../../libdaisy/src/dev/oled_ssd130x.h **** {
 134:../../libdaisy/src/dev/oled_ssd130x.h ****   public:
 135:../../libdaisy/src/dev/oled_ssd130x.h ****     struct Config
 136:../../libdaisy/src/dev/oled_ssd130x.h ****     {
 137:../../libdaisy/src/dev/oled_ssd130x.h ****         typename Transport::Config transport_config;
 138:../../libdaisy/src/dev/oled_ssd130x.h ****     };
 139:../../libdaisy/src/dev/oled_ssd130x.h **** 
 140:../../libdaisy/src/dev/oled_ssd130x.h ****     void Init(Config config)
 141:../../libdaisy/src/dev/oled_ssd130x.h ****     {
 142:../../libdaisy/src/dev/oled_ssd130x.h ****         transport_.Init(config.transport_config);
 143:../../libdaisy/src/dev/oled_ssd130x.h **** 
 144:../../libdaisy/src/dev/oled_ssd130x.h ****         // Init routine...
 145:../../libdaisy/src/dev/oled_ssd130x.h **** 
 146:../../libdaisy/src/dev/oled_ssd130x.h ****         // Display Off
 147:../../libdaisy/src/dev/oled_ssd130x.h ****         transport_.SendCommand(0xaE);
 148:../../libdaisy/src/dev/oled_ssd130x.h ****         // Dimension dependent commands...
 149:../../libdaisy/src/dev/oled_ssd130x.h ****         switch(height)
 150:../../libdaisy/src/dev/oled_ssd130x.h ****         {
 151:../../libdaisy/src/dev/oled_ssd130x.h ****             case 16:
 152:../../libdaisy/src/dev/oled_ssd130x.h ****                 // Display Clock Divide Ratio
 153:../../libdaisy/src/dev/oled_ssd130x.h ****                 transport_.SendCommand(0xD5);
 154:../../libdaisy/src/dev/oled_ssd130x.h ****                 transport_.SendCommand(0x60);
 155:../../libdaisy/src/dev/oled_ssd130x.h ****                 // Multiplex Ratio
 156:../../libdaisy/src/dev/oled_ssd130x.h ****                 transport_.SendCommand(0xA8);
 157:../../libdaisy/src/dev/oled_ssd130x.h ****                 transport_.SendCommand(0x0F);
 158:../../libdaisy/src/dev/oled_ssd130x.h ****                 // COM Pins
 159:../../libdaisy/src/dev/oled_ssd130x.h ****                 transport_.SendCommand(0xDA);
 160:../../libdaisy/src/dev/oled_ssd130x.h ****                 transport_.SendCommand(0x02);
 161:../../libdaisy/src/dev/oled_ssd130x.h ****                 break;
 162:../../libdaisy/src/dev/oled_ssd130x.h ****             case 32:
 163:../../libdaisy/src/dev/oled_ssd130x.h ****                 // Display Clock Divide Ratio
 164:../../libdaisy/src/dev/oled_ssd130x.h ****                 transport_.SendCommand(0xD5);
 165:../../libdaisy/src/dev/oled_ssd130x.h ****                 transport_.SendCommand(0x80);
 166:../../libdaisy/src/dev/oled_ssd130x.h ****                 // Multiplex Ratio
 167:../../libdaisy/src/dev/oled_ssd130x.h ****                 transport_.SendCommand(0xA8);
 168:../../libdaisy/src/dev/oled_ssd130x.h ****                 transport_.SendCommand(0x1F);
 169:../../libdaisy/src/dev/oled_ssd130x.h ****                 // COM Pins
 170:../../libdaisy/src/dev/oled_ssd130x.h ****                 transport_.SendCommand(0xDA);
ARM GAS  C:\Users\VINCIU~1\AppData\Local\Temp\ccNNq0o9.s 			page 16


 171:../../libdaisy/src/dev/oled_ssd130x.h ****                 if(width == 64)
 172:../../libdaisy/src/dev/oled_ssd130x.h ****                 {
 173:../../libdaisy/src/dev/oled_ssd130x.h ****                     transport_.SendCommand(0x12);
 174:../../libdaisy/src/dev/oled_ssd130x.h ****                 }
 175:../../libdaisy/src/dev/oled_ssd130x.h ****                 else
 176:../../libdaisy/src/dev/oled_ssd130x.h ****                 {
 177:../../libdaisy/src/dev/oled_ssd130x.h ****                     transport_.SendCommand(0x02);
 178:../../libdaisy/src/dev/oled_ssd130x.h ****                 }
 179:../../libdaisy/src/dev/oled_ssd130x.h **** 
 180:../../libdaisy/src/dev/oled_ssd130x.h ****                 break;
 181:../../libdaisy/src/dev/oled_ssd130x.h ****             case 48:
 182:../../libdaisy/src/dev/oled_ssd130x.h ****                 // Display Clock Divide Ratio
 183:../../libdaisy/src/dev/oled_ssd130x.h ****                 transport_.SendCommand(0xD5);
 184:../../libdaisy/src/dev/oled_ssd130x.h ****                 transport_.SendCommand(0x80);
 185:../../libdaisy/src/dev/oled_ssd130x.h ****                 // Multiplex Ratio
 186:../../libdaisy/src/dev/oled_ssd130x.h ****                 transport_.SendCommand(0xA8);
 187:../../libdaisy/src/dev/oled_ssd130x.h ****                 transport_.SendCommand(0x2F);
 188:../../libdaisy/src/dev/oled_ssd130x.h ****                 // COM Pins
 189:../../libdaisy/src/dev/oled_ssd130x.h ****                 transport_.SendCommand(0xDA);
 190:../../libdaisy/src/dev/oled_ssd130x.h ****                 transport_.SendCommand(0x12);
 191:../../libdaisy/src/dev/oled_ssd130x.h ****                 break;
 192:../../libdaisy/src/dev/oled_ssd130x.h ****             default: // 128
 193:../../libdaisy/src/dev/oled_ssd130x.h ****                 // Display Clock Divide Ratio
 194:../../libdaisy/src/dev/oled_ssd130x.h ****                 transport_.SendCommand(0xD5);
 195:../../libdaisy/src/dev/oled_ssd130x.h ****                 transport_.SendCommand(0x80);
 196:../../libdaisy/src/dev/oled_ssd130x.h ****                 // Multiplex Ratio
 197:../../libdaisy/src/dev/oled_ssd130x.h ****                 transport_.SendCommand(0xA8);
 198:../../libdaisy/src/dev/oled_ssd130x.h ****                 transport_.SendCommand(0x3F);
 199:../../libdaisy/src/dev/oled_ssd130x.h ****                 // COM Pins
 200:../../libdaisy/src/dev/oled_ssd130x.h ****                 transport_.SendCommand(0xDA);
 201:../../libdaisy/src/dev/oled_ssd130x.h ****                 transport_.SendCommand(0x12);
 202:../../libdaisy/src/dev/oled_ssd130x.h ****                 break;
 203:../../libdaisy/src/dev/oled_ssd130x.h ****         }
 204:../../libdaisy/src/dev/oled_ssd130x.h **** 
 205:../../libdaisy/src/dev/oled_ssd130x.h ****         // Display Offset
 206:../../libdaisy/src/dev/oled_ssd130x.h ****         transport_.SendCommand(0xD3);
 207:../../libdaisy/src/dev/oled_ssd130x.h ****         transport_.SendCommand(0x00);
 208:../../libdaisy/src/dev/oled_ssd130x.h ****         // Start Line Address
 209:../../libdaisy/src/dev/oled_ssd130x.h ****         transport_.SendCommand(0x40);
 210:../../libdaisy/src/dev/oled_ssd130x.h ****         // Normal Display
 211:../../libdaisy/src/dev/oled_ssd130x.h ****         transport_.SendCommand(0xA6);
 212:../../libdaisy/src/dev/oled_ssd130x.h ****         // All On Resume
 213:../../libdaisy/src/dev/oled_ssd130x.h ****         transport_.SendCommand(0xA4);
 214:../../libdaisy/src/dev/oled_ssd130x.h ****         // Charge Pump
 215:../../libdaisy/src/dev/oled_ssd130x.h ****         transport_.SendCommand(0x8D);
 216:../../libdaisy/src/dev/oled_ssd130x.h ****         transport_.SendCommand(0x14);
 217:../../libdaisy/src/dev/oled_ssd130x.h ****         // Set Segment Remap
 218:../../libdaisy/src/dev/oled_ssd130x.h ****         transport_.SendCommand(0xA1);
 219:../../libdaisy/src/dev/oled_ssd130x.h ****         // COM Output Scan Direction
 220:../../libdaisy/src/dev/oled_ssd130x.h ****         transport_.SendCommand(0xC8);
 221:../../libdaisy/src/dev/oled_ssd130x.h ****         // Contrast Control
 222:../../libdaisy/src/dev/oled_ssd130x.h ****         transport_.SendCommand(0x81);
 223:../../libdaisy/src/dev/oled_ssd130x.h ****         transport_.SendCommand(0x8F);
 224:../../libdaisy/src/dev/oled_ssd130x.h ****         // Pre Charge
 225:../../libdaisy/src/dev/oled_ssd130x.h ****         transport_.SendCommand(0xD9);
 226:../../libdaisy/src/dev/oled_ssd130x.h ****         transport_.SendCommand(0x25);
 227:../../libdaisy/src/dev/oled_ssd130x.h ****         // VCOM Detect
ARM GAS  C:\Users\VINCIU~1\AppData\Local\Temp\ccNNq0o9.s 			page 17


 228:../../libdaisy/src/dev/oled_ssd130x.h ****         transport_.SendCommand(0xDB);
 229:../../libdaisy/src/dev/oled_ssd130x.h ****         transport_.SendCommand(0x34);
 230:../../libdaisy/src/dev/oled_ssd130x.h **** 
 231:../../libdaisy/src/dev/oled_ssd130x.h **** 
 232:../../libdaisy/src/dev/oled_ssd130x.h ****         // Display On
 233:../../libdaisy/src/dev/oled_ssd130x.h ****         transport_.SendCommand(0xAF); //--turn on oled panel
 234:../../libdaisy/src/dev/oled_ssd130x.h ****     };
 235:../../libdaisy/src/dev/oled_ssd130x.h **** 
 236:../../libdaisy/src/dev/oled_ssd130x.h ****     size_t Width() const { return width; };
 237:../../libdaisy/src/dev/oled_ssd130x.h ****     size_t Height() const { return height; };
 238:../../libdaisy/src/dev/oled_ssd130x.h **** 
 239:../../libdaisy/src/dev/oled_ssd130x.h ****     void DrawPixel(uint_fast8_t x, uint_fast8_t y, bool on)
 240:../../libdaisy/src/dev/oled_ssd130x.h ****     {
 241:../../libdaisy/src/dev/oled_ssd130x.h ****         if(x >= width || y >= height)
 242:../../libdaisy/src/dev/oled_ssd130x.h ****             return;
 243:../../libdaisy/src/dev/oled_ssd130x.h ****         if(on)
 244:../../libdaisy/src/dev/oled_ssd130x.h ****             buffer_[x + (y / 8) * width] |= (1 << (y % 8));
 245:../../libdaisy/src/dev/oled_ssd130x.h ****         else
 246:../../libdaisy/src/dev/oled_ssd130x.h ****             buffer_[x + (y / 8) * width] &= ~(1 << (y % 8));
 247:../../libdaisy/src/dev/oled_ssd130x.h ****     }
 248:../../libdaisy/src/dev/oled_ssd130x.h **** 
 249:../../libdaisy/src/dev/oled_ssd130x.h ****     void Fill(bool on)
 196              		.loc 9 249 10 view .LVU24
 197              	.LBB259:
 250:../../libdaisy/src/dev/oled_ssd130x.h ****     {
 251:../../libdaisy/src/dev/oled_ssd130x.h ****         for(size_t i = 0; i < sizeof(buffer_); i++)
 198              		.loc 9 251 29 view .LVU25
 252:../../libdaisy/src/dev/oled_ssd130x.h ****         {
 253:../../libdaisy/src/dev/oled_ssd130x.h ****             buffer_[i] = on ? 0xff : 0x00;
 199              		.loc 9 253 24 is_stmt 0 view .LVU26
 200 0000 4942     		rsbs	r1, r1, #0
 201              	.LVL8:
 202              		.loc 9 253 24 view .LVU27
 203 0002 4FF48062 		mov	r2, #1024
 204 0006 1430     		adds	r0, r0, #20
 205              	.LVL9:
 206              		.loc 9 253 24 view .LVU28
 207 0008 C9B2     		uxtb	r1, r1
 208 000a FFF7FEBF 		b	memset
 209              	.LVL10:
 210              		.loc 9 253 24 view .LVU29
 211              	.LBE259:
 212              	.LBE258:
 213              		.cfi_endproc
 214              	.LFE4626:
 216 000e 00BF     		.section	.text._ZN5daisy11MidiHandlerINS_17MidiUartTransportEED2Ev,"axG",%progbits,_ZN5daisy11Midi
 217              		.align	1
 218              		.p2align 2,,3
 219              		.weak	_ZN5daisy11MidiHandlerINS_17MidiUartTransportEED2Ev
 220              		.syntax unified
 221              		.thumb
 222              		.thumb_func
 223              		.fpu fpv5-d16
 225              	_ZN5daisy11MidiHandlerINS_17MidiUartTransportEED2Ev:
 226              	.LVL11:
 227              	.LFB4635:
 228              		.file 10 "../../libdaisy/src/hid/midi.h"
ARM GAS  C:\Users\VINCIU~1\AppData\Local\Temp\ccNNq0o9.s 			page 18


   1:../../libdaisy/src/hid/midi.h **** #pragma once
   2:../../libdaisy/src/hid/midi.h **** #ifndef DSY_MIDI_H
   3:../../libdaisy/src/hid/midi.h **** #define DSY_MIDI_H
   4:../../libdaisy/src/hid/midi.h **** 
   5:../../libdaisy/src/hid/midi.h **** // TODO: make this adjustable
   6:../../libdaisy/src/hid/midi.h **** #define SYSEX_BUFFER_LEN 100
   7:../../libdaisy/src/hid/midi.h **** 
   8:../../libdaisy/src/hid/midi.h **** #include <stdint.h>
   9:../../libdaisy/src/hid/midi.h **** #include <stdlib.h>
  10:../../libdaisy/src/hid/midi.h **** #include "per/uart.h"
  11:../../libdaisy/src/hid/midi.h **** #include "util/ringbuffer.h"
  12:../../libdaisy/src/hid/midi.h **** #include "hid/MidiEvent.h"
  13:../../libdaisy/src/hid/midi.h **** 
  14:../../libdaisy/src/hid/midi.h **** namespace daisy
  15:../../libdaisy/src/hid/midi.h **** {
  16:../../libdaisy/src/hid/midi.h **** /** @addtogroup external 
  17:../../libdaisy/src/hid/midi.h ****     @{ 
  18:../../libdaisy/src/hid/midi.h **** */
  19:../../libdaisy/src/hid/midi.h **** 
  20:../../libdaisy/src/hid/midi.h **** class MidiUartTransport
  21:../../libdaisy/src/hid/midi.h **** {
  22:../../libdaisy/src/hid/midi.h ****   public:
  23:../../libdaisy/src/hid/midi.h ****     MidiUartTransport() {}
  24:../../libdaisy/src/hid/midi.h ****     ~MidiUartTransport() {}
  25:../../libdaisy/src/hid/midi.h **** 
  26:../../libdaisy/src/hid/midi.h ****     struct Config
  27:../../libdaisy/src/hid/midi.h ****     {
  28:../../libdaisy/src/hid/midi.h ****         UartHandler::Config::Peripheral periph;
  29:../../libdaisy/src/hid/midi.h ****         dsy_gpio_pin                    rx;
  30:../../libdaisy/src/hid/midi.h ****         dsy_gpio_pin                    tx;
  31:../../libdaisy/src/hid/midi.h **** 
  32:../../libdaisy/src/hid/midi.h ****         Config()
  33:../../libdaisy/src/hid/midi.h ****         {
  34:../../libdaisy/src/hid/midi.h ****             periph = UartHandler::Config::Peripheral::USART_1;
  35:../../libdaisy/src/hid/midi.h ****             rx     = {DSY_GPIOB, 7};
  36:../../libdaisy/src/hid/midi.h ****             tx     = {DSY_GPIOB, 6};
  37:../../libdaisy/src/hid/midi.h ****         }
  38:../../libdaisy/src/hid/midi.h ****     };
  39:../../libdaisy/src/hid/midi.h **** 
  40:../../libdaisy/src/hid/midi.h ****     inline void Init(Config config)
  41:../../libdaisy/src/hid/midi.h ****     {
  42:../../libdaisy/src/hid/midi.h ****         UartHandler::Config uart_config;
  43:../../libdaisy/src/hid/midi.h **** 
  44:../../libdaisy/src/hid/midi.h ****         //defaults
  45:../../libdaisy/src/hid/midi.h ****         uart_config.baudrate   = 31250;
  46:../../libdaisy/src/hid/midi.h ****         uart_config.stopbits   = UartHandler::Config::StopBits::BITS_1;
  47:../../libdaisy/src/hid/midi.h ****         uart_config.parity     = UartHandler::Config::Parity::NONE;
  48:../../libdaisy/src/hid/midi.h ****         uart_config.mode       = UartHandler::Config::Mode::TX_RX;
  49:../../libdaisy/src/hid/midi.h ****         uart_config.wordlength = UartHandler::Config::WordLength::BITS_8;
  50:../../libdaisy/src/hid/midi.h **** 
  51:../../libdaisy/src/hid/midi.h ****         //user settings
  52:../../libdaisy/src/hid/midi.h ****         uart_config.periph        = config.periph;
  53:../../libdaisy/src/hid/midi.h ****         uart_config.pin_config.rx = config.rx;
  54:../../libdaisy/src/hid/midi.h ****         uart_config.pin_config.tx = config.tx;
  55:../../libdaisy/src/hid/midi.h **** 
  56:../../libdaisy/src/hid/midi.h ****         uart_.Init(uart_config);
  57:../../libdaisy/src/hid/midi.h ****     }
ARM GAS  C:\Users\VINCIU~1\AppData\Local\Temp\ccNNq0o9.s 			page 19


  58:../../libdaisy/src/hid/midi.h **** 
  59:../../libdaisy/src/hid/midi.h ****     inline void    StartRx() { uart_.StartRx(); }
  60:../../libdaisy/src/hid/midi.h ****     inline size_t  Readable() { return uart_.Readable(); }
  61:../../libdaisy/src/hid/midi.h ****     inline uint8_t Rx() { return uart_.PopRx(); }
  62:../../libdaisy/src/hid/midi.h ****     inline bool    RxActive() { return uart_.RxActive(); }
  63:../../libdaisy/src/hid/midi.h ****     inline void    FlushRx() { uart_.FlushRx(); }
  64:../../libdaisy/src/hid/midi.h ****     inline void    Tx(uint8_t* buff, size_t size) { uart_.PollTx(buff, size); }
  65:../../libdaisy/src/hid/midi.h **** 
  66:../../libdaisy/src/hid/midi.h ****   private:
  67:../../libdaisy/src/hid/midi.h ****     UartHandler uart_;
  68:../../libdaisy/src/hid/midi.h **** };
  69:../../libdaisy/src/hid/midi.h **** 
  70:../../libdaisy/src/hid/midi.h **** /** 
  71:../../libdaisy/src/hid/midi.h ****     @brief Simple MIDI Handler \n 
  72:../../libdaisy/src/hid/midi.h ****     Parses bytes from an input into valid MidiEvents. \n 
  73:../../libdaisy/src/hid/midi.h ****     The MidiEvents fill a FIFO queue that the user can pop messages from.
  74:../../libdaisy/src/hid/midi.h ****     @author shensley
  75:../../libdaisy/src/hid/midi.h ****     @date March 2020
  76:../../libdaisy/src/hid/midi.h **** */
  77:../../libdaisy/src/hid/midi.h **** template <typename Transport>
  78:../../libdaisy/src/hid/midi.h **** class MidiHandler
  79:../../libdaisy/src/hid/midi.h **** {
  80:../../libdaisy/src/hid/midi.h ****   public:
  81:../../libdaisy/src/hid/midi.h ****     MidiHandler() {}
  82:../../libdaisy/src/hid/midi.h ****     ~MidiHandler() {}
 229              		.loc 10 82 5 is_stmt 1 view -0
 230              		.cfi_startproc
 231              		@ args = 0, pretend = 0, frame = 0
 232              		@ frame_needed = 0, uses_anonymous_args = 0
 233              		@ link register save eliminated.
 234              	.LBB260:
 235              	.LBI260:
  24:../../libdaisy/src/hid/midi.h **** 
 236              		.loc 10 24 5 view .LVU31
  24:../../libdaisy/src/hid/midi.h **** 
 237              		.loc 10 24 5 is_stmt 0 view .LVU32
 238              	.LBE260:
 239              		.loc 10 82 21 view .LVU33
 240 0000 7047     		bx	lr
 241              		.cfi_endproc
 242              	.LFE4635:
 244              		.weak	_ZN5daisy11MidiHandlerINS_17MidiUartTransportEED1Ev
 245              		.thumb_set _ZN5daisy11MidiHandlerINS_17MidiUartTransportEED1Ev,_ZN5daisy11MidiHandlerINS_17MidiUar
 246 0002 00BF     		.section	.text._Z13AudioCallbackPKPKfPPfj,"ax",%progbits
 247              		.align	1
 248              		.p2align 2,,3
 249              		.global	_Z13AudioCallbackPKPKfPPfj
 250              		.syntax unified
 251              		.thumb
 252              		.thumb_func
 253              		.fpu fpv5-d16
 255              	_Z13AudioCallbackPKPKfPPfj:
 256              	.LVL12:
 257              	.LFB4041:
 258              		.file 11 "metamorphic_project.cpp"
   1:metamorphic_project.cpp **** //INCLUDES
   2:metamorphic_project.cpp **** #include <stdio.h>
ARM GAS  C:\Users\VINCIU~1\AppData\Local\Temp\ccNNq0o9.s 			page 20


   3:metamorphic_project.cpp **** #include <string.h>
   4:metamorphic_project.cpp **** #include "daisy_seed.h"
   5:metamorphic_project.cpp **** #include "daisysp.h"
   6:metamorphic_project.cpp **** #include "dev/oled_ssd130x.h"
   7:metamorphic_project.cpp **** #include "globalFunc.h"
   8:metamorphic_project.cpp **** #include "menus.h"
   9:metamorphic_project.cpp **** //USING
  10:metamorphic_project.cpp **** using namespace daisy;
  11:metamorphic_project.cpp **** using namespace daisysp;
  12:metamorphic_project.cpp **** using SynthOled = OledDisplay<SSD130x4WireSpi128x64Driver>;
  13:metamorphic_project.cpp **** //VARIABLES
  14:metamorphic_project.cpp **** DaisySeed                              hw;
  15:metamorphic_project.cpp **** SynthOled                              display;
  16:metamorphic_project.cpp **** Menus                                  synthMenus;
  17:metamorphic_project.cpp **** Oscillator                             osc;
  18:metamorphic_project.cpp **** MidiHandler<MidiUartTransport>         midi;
  19:metamorphic_project.cpp **** MidiHandler<MidiUartTransport>::Config midi_cfg;
  20:metamorphic_project.cpp **** 
  21:metamorphic_project.cpp **** void HandleMidiMessage(MidiEvent m)
  22:metamorphic_project.cpp **** {
  23:metamorphic_project.cpp ****     switch(m.type)
  24:metamorphic_project.cpp ****     {
  25:metamorphic_project.cpp ****         case NoteOn:
  26:metamorphic_project.cpp **** 
  27:metamorphic_project.cpp ****         {
  28:metamorphic_project.cpp ****             NoteOnEvent p = m.AsNoteOn();
  29:metamorphic_project.cpp ****             if(m.data[1] != 0)
  30:metamorphic_project.cpp ****             {
  31:metamorphic_project.cpp ****                 osc.SetFreq(mtof(p.note));
  32:metamorphic_project.cpp ****                 osc.SetAmp(0.7);
  33:metamorphic_project.cpp ****             }
  34:metamorphic_project.cpp ****         }
  35:metamorphic_project.cpp ****         break;
  36:metamorphic_project.cpp **** 
  37:metamorphic_project.cpp ****         case NoteOff:
  38:metamorphic_project.cpp ****         {
  39:metamorphic_project.cpp ****             if(m.data[1] != 0) {
  40:metamorphic_project.cpp ****                 osc.SetAmp(0);
  41:metamorphic_project.cpp ****             }
  42:metamorphic_project.cpp ****         }
  43:metamorphic_project.cpp ****         break;
  44:metamorphic_project.cpp ****         default: break;
  45:metamorphic_project.cpp ****     }
  46:metamorphic_project.cpp **** }
  47:metamorphic_project.cpp **** 
  48:metamorphic_project.cpp **** 
  49:metamorphic_project.cpp **** void AudioCallback(AudioHandle::InputBuffer  in,
  50:metamorphic_project.cpp ****                    AudioHandle::OutputBuffer out,
  51:metamorphic_project.cpp ****                    size_t                    size)
  52:metamorphic_project.cpp **** {
 259              		.loc 11 52 1 is_stmt 1 view -0
 260              		.cfi_startproc
 261              		@ args = 0, pretend = 0, frame = 0
 262              		@ frame_needed = 0, uses_anonymous_args = 0
  53:metamorphic_project.cpp ****     float osc_out;
 263              		.loc 11 53 5 view .LVU35
  54:metamorphic_project.cpp ****     for(size_t i = 0; i < size; i++)
ARM GAS  C:\Users\VINCIU~1\AppData\Local\Temp\ccNNq0o9.s 			page 21


 264              		.loc 11 54 5 view .LVU36
 265              	.LBB261:
 266              		.loc 11 54 25 view .LVU37
 267 0000 A2B1     		cbz	r2, .L17
 268              	.LBE261:
  52:metamorphic_project.cpp ****     float osc_out;
 269              		.loc 11 52 1 is_stmt 0 view .LVU38
 270 0002 70B5     		push	{r4, r5, r6, lr}
 271              		.cfi_def_cfa_offset 16
 272              		.cfi_offset 4, -16
 273              		.cfi_offset 5, -12
 274              		.cfi_offset 6, -8
 275              		.cfi_offset 14, -4
 276 0004 0D46     		mov	r5, r1
 277 0006 1646     		mov	r6, r2
 278              	.LBB262:
 279              		.loc 11 54 16 view .LVU39
 280 0008 0024     		movs	r4, #0
 281              	.LVL13:
 282              	.L11:
  55:metamorphic_project.cpp ****     {
  56:metamorphic_project.cpp ****         osc_out   = osc.Process();
 283              		.loc 11 56 9 is_stmt 1 discriminator 2 view .LVU40
 284              		.loc 11 56 32 is_stmt 0 discriminator 2 view .LVU41
 285 000a 0948     		ldr	r0, .L20
 286 000c FFF7FEFF 		bl	_ZN7daisysp10Oscillator7ProcessEv
 287              	.LVL14:
  57:metamorphic_project.cpp ****         out[0][i] = osc_out;
  58:metamorphic_project.cpp ****         out[1][i] = osc_out;
 288              		.loc 11 58 19 discriminator 2 view .LVU42
 289 0010 D5E90003 		ldrd	r0, r3, [r5]
 290              	.LVL15:
  57:metamorphic_project.cpp ****         out[0][i] = osc_out;
 291              		.loc 11 57 9 is_stmt 1 discriminator 2 view .LVU43
  57:metamorphic_project.cpp ****         out[0][i] = osc_out;
 292              		.loc 11 57 19 is_stmt 0 discriminator 2 view .LVU44
 293 0014 00EB8400 		add	r0, r0, r4, lsl #2
 294              		.loc 11 58 19 discriminator 2 view .LVU45
 295 0018 03EB8403 		add	r3, r3, r4, lsl #2
  54:metamorphic_project.cpp ****     {
 296              		.loc 11 54 5 discriminator 2 view .LVU46
 297 001c 0134     		adds	r4, r4, #1
 298              	.LVL16:
  57:metamorphic_project.cpp ****         out[0][i] = osc_out;
 299              		.loc 11 57 19 discriminator 2 view .LVU47
 300 001e 80ED000A 		vstr.32	s0, [r0]
 301              		.loc 11 58 9 is_stmt 1 discriminator 2 view .LVU48
  54:metamorphic_project.cpp ****     {
 302              		.loc 11 54 25 is_stmt 0 discriminator 2 view .LVU49
 303 0022 A642     		cmp	r6, r4
 304              		.loc 11 58 19 discriminator 2 view .LVU50
 305 0024 83ED000A 		vstr.32	s0, [r3]
  54:metamorphic_project.cpp ****     {
 306              		.loc 11 54 5 is_stmt 1 discriminator 2 view .LVU51
 307              	.LVL17:
  54:metamorphic_project.cpp ****     {
 308              		.loc 11 54 25 discriminator 2 view .LVU52
ARM GAS  C:\Users\VINCIU~1\AppData\Local\Temp\ccNNq0o9.s 			page 22


 309 0028 EFD1     		bne	.L11
 310              	.LBE262:
  59:metamorphic_project.cpp ****     }
  60:metamorphic_project.cpp **** }
 311              		.loc 11 60 1 is_stmt 0 view .LVU53
 312 002a 70BD     		pop	{r4, r5, r6, pc}
 313              	.LVL18:
 314              	.L17:
 315              		.cfi_def_cfa_offset 0
 316              		.cfi_restore 4
 317              		.cfi_restore 5
 318              		.cfi_restore 6
 319              		.cfi_restore 14
 320              		.loc 11 60 1 view .LVU54
 321 002c 7047     		bx	lr
 322              	.L21:
 323 002e 00BF     		.align	2
 324              	.L20:
 325 0030 00000000 		.word	.LANCHOR0
 326              		.cfi_endproc
 327              	.LFE4041:
 329              		.section	.text._ZN5daisy11OledDisplayINS_13SSD130xDriverILj128ELj64ENS_24SSD130x4WireSpiTransportE
 330              		.align	1
 331              		.p2align 2,,3
 332              		.weak	_ZN5daisy11OledDisplayINS_13SSD130xDriverILj128ELj64ENS_24SSD130x4WireSpiTransportEEEED0Ev
 333              		.syntax unified
 334              		.thumb
 335              		.thumb_func
 336              		.fpu fpv5-d16
 338              	_ZN5daisy11OledDisplayINS_13SSD130xDriverILj128ELj64ENS_24SSD130x4WireSpiTransportEEEED0Ev:
 339              	.LVL19:
 340              	.LFB4623:
  17:../../libdaisy/src/hid/disp/oled_display.h **** 
 341              		.loc 7 17 13 is_stmt 1 view -0
 342              		.cfi_startproc
 343              		@ args = 0, pretend = 0, frame = 0
 344              		@ frame_needed = 0, uses_anonymous_args = 0
  17:../../libdaisy/src/hid/disp/oled_display.h **** 
 345              		.loc 7 17 13 is_stmt 0 view .LVU56
 346 0000 10B5     		push	{r4, lr}
 347              		.cfi_def_cfa_offset 8
 348              		.cfi_offset 4, -8
 349              		.cfi_offset 14, -4
  17:../../libdaisy/src/hid/disp/oled_display.h **** 
 350              		.loc 7 17 13 view .LVU57
 351 0002 0446     		mov	r4, r0
 352              	.LVL20:
 353              	.LBB263:
 354              	.LBI263:
  17:../../libdaisy/src/hid/disp/oled_display.h **** 
 355              		.loc 7 17 13 is_stmt 1 view .LVU58
 356              	.LBB264:
 357              	.LBI264:
 358              		.loc 8 179 13 view .LVU59
 359              	.LBB265:
 360              	.LBI265:
  22:../../libdaisy/src/hid/disp/display.h **** 
ARM GAS  C:\Users\VINCIU~1\AppData\Local\Temp\ccNNq0o9.s 			page 23


 361              		.loc 8 22 13 view .LVU60
  22:../../libdaisy/src/hid/disp/display.h **** 
 362              		.loc 8 22 13 is_stmt 0 view .LVU61
 363              	.LBE265:
 364              	.LBE264:
 365              	.LBE263:
  17:../../libdaisy/src/hid/disp/oled_display.h **** 
 366              		.loc 7 17 29 view .LVU62
 367 0004 40F21441 		movw	r1, #1044
 368 0008 FFF7FEFF 		bl	_ZdlPvj
 369              	.LVL21:
  17:../../libdaisy/src/hid/disp/oled_display.h **** 
 370              		.loc 7 17 29 view .LVU63
 371 000c 2046     		mov	r0, r4
 372 000e 10BD     		pop	{r4, pc}
  17:../../libdaisy/src/hid/disp/oled_display.h **** 
 373              		.loc 7 17 29 view .LVU64
 374              		.cfi_endproc
 375              	.LFE4623:
 377              		.section	.text._ZN5daisy11OledDisplayINS_13SSD130xDriverILj128ELj64ENS_24SSD130x4WireSpiTransportE
 378              		.align	1
 379              		.p2align 2,,3
 380              		.weak	_ZN5daisy11OledDisplayINS_13SSD130xDriverILj128ELj64ENS_24SSD130x4WireSpiTransportEEEE6Updat
 381              		.syntax unified
 382              		.thumb
 383              		.thumb_func
 384              		.fpu fpv5-d16
 386              	_ZN5daisy11OledDisplayINS_13SSD130xDriverILj128ELj64ENS_24SSD130x4WireSpiTransportEEEE6UpdateEv:
 387              	.LVL22:
 388              	.LFB4633:
  34:../../libdaisy/src/hid/disp/oled_display.h **** 
  35:../../libdaisy/src/hid/disp/oled_display.h ****     /**
  36:../../libdaisy/src/hid/disp/oled_display.h ****     Sets the pixel at the specified coordinate to be on/off.
  37:../../libdaisy/src/hid/disp/oled_display.h ****     \param x   x Coordinate
  38:../../libdaisy/src/hid/disp/oled_display.h ****     \param y   y coordinate
  39:../../libdaisy/src/hid/disp/oled_display.h ****     \param on  on or off
  40:../../libdaisy/src/hid/disp/oled_display.h ****     */
  41:../../libdaisy/src/hid/disp/oled_display.h ****     void DrawPixel(uint_fast8_t x, uint_fast8_t y, bool on) override
  42:../../libdaisy/src/hid/disp/oled_display.h ****     {
  43:../../libdaisy/src/hid/disp/oled_display.h ****         driver_.DrawPixel(x, y, on);
  44:../../libdaisy/src/hid/disp/oled_display.h ****     }
  45:../../libdaisy/src/hid/disp/oled_display.h **** 
  46:../../libdaisy/src/hid/disp/oled_display.h ****     /** 
  47:../../libdaisy/src/hid/disp/oled_display.h ****     Writes the current display buffer to the OLED device using SPI or I2C depending on 
  48:../../libdaisy/src/hid/disp/oled_display.h ****     how the object was initialized.
  49:../../libdaisy/src/hid/disp/oled_display.h ****     */
  50:../../libdaisy/src/hid/disp/oled_display.h ****     void Update() override { driver_.Update(); }
 389              		.loc 7 50 10 is_stmt 1 view -0
 390              		.cfi_startproc
 391              		@ args = 0, pretend = 0, frame = 8
 392              		@ frame_needed = 0, uses_anonymous_args = 0
 393              	.LBB276:
 394              	.LBI276:
 254:../../libdaisy/src/dev/oled_ssd130x.h ****         }
 255:../../libdaisy/src/dev/oled_ssd130x.h ****     };
 256:../../libdaisy/src/dev/oled_ssd130x.h **** 
 257:../../libdaisy/src/dev/oled_ssd130x.h ****     /**
ARM GAS  C:\Users\VINCIU~1\AppData\Local\Temp\ccNNq0o9.s 			page 24


 258:../../libdaisy/src/dev/oled_ssd130x.h ****      * Update the display 
 259:../../libdaisy/src/dev/oled_ssd130x.h ****     */
 260:../../libdaisy/src/dev/oled_ssd130x.h ****     void Update()
 395              		.loc 9 260 10 view .LVU66
 396              	.LBB277:
 261:../../libdaisy/src/dev/oled_ssd130x.h ****     {
 262:../../libdaisy/src/dev/oled_ssd130x.h ****         uint8_t i;
 263:../../libdaisy/src/dev/oled_ssd130x.h ****         uint8_t high_column_addr;
 264:../../libdaisy/src/dev/oled_ssd130x.h ****         switch(height)
 265:../../libdaisy/src/dev/oled_ssd130x.h ****         {
 266:../../libdaisy/src/dev/oled_ssd130x.h ****             case 32: high_column_addr = 0x12; break;
 267:../../libdaisy/src/dev/oled_ssd130x.h **** 
 268:../../libdaisy/src/dev/oled_ssd130x.h ****             default: high_column_addr = 0x10; break;
 269:../../libdaisy/src/dev/oled_ssd130x.h ****         }
 270:../../libdaisy/src/dev/oled_ssd130x.h ****         for(i = 0; i < (height / 8); i++)
 397              		.loc 9 270 22 view .LVU67
 398              	.LBE277:
 399              	.LBE276:
 400              		.loc 7 50 10 is_stmt 0 view .LVU68
 401 0000 2DE9F041 		push	{r4, r5, r6, r7, r8, lr}
 402              		.cfi_def_cfa_offset 24
 403              		.cfi_offset 4, -24
 404              		.cfi_offset 5, -20
 405              		.cfi_offset 6, -16
 406              		.cfi_offset 7, -12
 407              		.cfi_offset 8, -8
 408              		.cfi_offset 14, -4
 409              	.LBB299:
 410              	.LBB297:
 411              	.LBB278:
 412              	.LBB279:
 112:../../libdaisy/src/dev/oled_ssd130x.h ****     };
 413              		.loc 9 112 30 view .LVU69
 414 0004 B024     		movs	r4, #176
 415              	.LBE279:
 416              	.LBE278:
 417              	.LBE297:
 418              	.LBE299:
 419              		.loc 7 50 10 view .LVU70
 420 0006 82B0     		sub	sp, sp, #8
 421              		.cfi_def_cfa_offset 32
 422              	.LBB300:
 423              	.LBB298:
 424              	.LBB284:
 425              	.LBB280:
 111:../../libdaisy/src/dev/oled_ssd130x.h ****         spi_.BlockingTransmit(&cmd, 1);
 426              		.loc 9 111 24 view .LVU71
 427 0008 00F10806 		add	r6, r0, #8
 428 000c 00F11005 		add	r5, r0, #16
 429 0010 00F11408 		add	r8, r0, #20
 430              	.LVL23:
 431              	.L25:
 111:../../libdaisy/src/dev/oled_ssd130x.h ****         spi_.BlockingTransmit(&cmd, 1);
 432              		.loc 9 111 24 view .LVU72
 433 0014 0027     		movs	r7, #0
 111:../../libdaisy/src/dev/oled_ssd130x.h ****         spi_.BlockingTransmit(&cmd, 1);
 434              		.loc 9 111 23 view .LVU73
ARM GAS  C:\Users\VINCIU~1\AppData\Local\Temp\ccNNq0o9.s 			page 25


 435 0016 2846     		mov	r0, r5
 436 0018 8DF80740 		strb	r4, [sp, #7]
 437              	.LVL24:
 111:../../libdaisy/src/dev/oled_ssd130x.h ****         spi_.BlockingTransmit(&cmd, 1);
 438              		.loc 9 111 23 view .LVU74
 439              	.LBE280:
 440              	.LBI278:
 109:../../libdaisy/src/dev/oled_ssd130x.h ****     {
 441              		.loc 9 109 10 is_stmt 1 view .LVU75
 442              	.LBB281:
 111:../../libdaisy/src/dev/oled_ssd130x.h ****         spi_.BlockingTransmit(&cmd, 1);
 443              		.loc 9 111 9 view .LVU76
 444              	.LBE281:
 445              	.LBE284:
 446              		.loc 9 270 22 is_stmt 0 view .LVU77
 447 001c 0134     		adds	r4, r4, #1
 448              	.LVL25:
 449              	.LBB285:
 450              	.LBB282:
 111:../../libdaisy/src/dev/oled_ssd130x.h ****         spi_.BlockingTransmit(&cmd, 1);
 451              		.loc 9 111 23 view .LVU78
 452 001e 3946     		mov	r1, r7
 453 0020 FFF7FEFF 		bl	dsy_gpio_write
 454              	.LVL26:
 112:../../libdaisy/src/dev/oled_ssd130x.h ****     };
 455              		.loc 9 112 9 is_stmt 1 view .LVU79
 112:../../libdaisy/src/dev/oled_ssd130x.h ****     };
 456              		.loc 9 112 30 is_stmt 0 view .LVU80
 457 0024 6423     		movs	r3, #100
 458 0026 0122     		movs	r2, #1
 459 0028 0DF10701 		add	r1, sp, #7
 460 002c 3046     		mov	r0, r6
 461              	.LBE282:
 462              	.LBE285:
 463              		.loc 9 270 22 view .LVU81
 464 002e E4B2     		uxtb	r4, r4
 465              	.LBB286:
 466              	.LBB283:
 112:../../libdaisy/src/dev/oled_ssd130x.h ****     };
 467              		.loc 9 112 30 view .LVU82
 468 0030 FFF7FEFF 		bl	_ZN5daisy9SpiHandle16BlockingTransmitEPhjm
 469              	.LVL27:
 112:../../libdaisy/src/dev/oled_ssd130x.h ****     };
 470              		.loc 9 112 30 view .LVU83
 471              	.LBE283:
 472              	.LBE286:
 473              	.LBB287:
 474              	.LBB288:
 111:../../libdaisy/src/dev/oled_ssd130x.h ****         spi_.BlockingTransmit(&cmd, 1);
 475              		.loc 9 111 23 view .LVU84
 476 0034 3946     		mov	r1, r7
 477 0036 2846     		mov	r0, r5
 478 0038 8DF80770 		strb	r7, [sp, #7]
 479              	.LVL28:
 111:../../libdaisy/src/dev/oled_ssd130x.h ****         spi_.BlockingTransmit(&cmd, 1);
 480              		.loc 9 111 23 view .LVU85
 481              	.LBE288:
ARM GAS  C:\Users\VINCIU~1\AppData\Local\Temp\ccNNq0o9.s 			page 26


 482              	.LBI287:
 109:../../libdaisy/src/dev/oled_ssd130x.h ****     {
 483              		.loc 9 109 10 is_stmt 1 view .LVU86
 484              	.LBB289:
 111:../../libdaisy/src/dev/oled_ssd130x.h ****         spi_.BlockingTransmit(&cmd, 1);
 485              		.loc 9 111 9 view .LVU87
 111:../../libdaisy/src/dev/oled_ssd130x.h ****         spi_.BlockingTransmit(&cmd, 1);
 486              		.loc 9 111 23 is_stmt 0 view .LVU88
 487 003c FFF7FEFF 		bl	dsy_gpio_write
 488              	.LVL29:
 112:../../libdaisy/src/dev/oled_ssd130x.h ****     };
 489              		.loc 9 112 9 is_stmt 1 view .LVU89
 112:../../libdaisy/src/dev/oled_ssd130x.h ****     };
 490              		.loc 9 112 30 is_stmt 0 view .LVU90
 491 0040 0122     		movs	r2, #1
 492 0042 6423     		movs	r3, #100
 493 0044 0DF10701 		add	r1, sp, #7
 494 0048 3046     		mov	r0, r6
 495 004a FFF7FEFF 		bl	_ZN5daisy9SpiHandle16BlockingTransmitEPhjm
 496              	.LVL30:
 112:../../libdaisy/src/dev/oled_ssd130x.h ****     };
 497              		.loc 9 112 30 view .LVU91
 498 004e 1023     		movs	r3, #16
 499              	.LBE289:
 500              	.LBE287:
 501              	.LBB290:
 502              	.LBB291:
 111:../../libdaisy/src/dev/oled_ssd130x.h ****         spi_.BlockingTransmit(&cmd, 1);
 503              		.loc 9 111 23 view .LVU92
 504 0050 3946     		mov	r1, r7
 505 0052 2846     		mov	r0, r5
 506 0054 8DF80730 		strb	r3, [sp, #7]
 507              	.LVL31:
 111:../../libdaisy/src/dev/oled_ssd130x.h ****         spi_.BlockingTransmit(&cmd, 1);
 508              		.loc 9 111 23 view .LVU93
 509              	.LBE291:
 510              	.LBI290:
 109:../../libdaisy/src/dev/oled_ssd130x.h ****     {
 511              		.loc 9 109 10 is_stmt 1 view .LVU94
 512              	.LBB292:
 111:../../libdaisy/src/dev/oled_ssd130x.h ****         spi_.BlockingTransmit(&cmd, 1);
 513              		.loc 9 111 9 view .LVU95
 111:../../libdaisy/src/dev/oled_ssd130x.h ****         spi_.BlockingTransmit(&cmd, 1);
 514              		.loc 9 111 23 is_stmt 0 view .LVU96
 515 0058 FFF7FEFF 		bl	dsy_gpio_write
 516              	.LVL32:
 112:../../libdaisy/src/dev/oled_ssd130x.h ****     };
 517              		.loc 9 112 9 is_stmt 1 view .LVU97
 112:../../libdaisy/src/dev/oled_ssd130x.h ****     };
 518              		.loc 9 112 30 is_stmt 0 view .LVU98
 519 005c 6423     		movs	r3, #100
 520 005e 0122     		movs	r2, #1
 521 0060 0DF10701 		add	r1, sp, #7
 522 0064 3046     		mov	r0, r6
 523 0066 FFF7FEFF 		bl	_ZN5daisy9SpiHandle16BlockingTransmitEPhjm
 524              	.LVL33:
 112:../../libdaisy/src/dev/oled_ssd130x.h ****     };
ARM GAS  C:\Users\VINCIU~1\AppData\Local\Temp\ccNNq0o9.s 			page 27


 525              		.loc 9 112 30 view .LVU99
 526              	.LBE292:
 527              	.LBE290:
 528              	.LBB293:
 529              	.LBI293:
 115:../../libdaisy/src/dev/oled_ssd130x.h ****     {
 530              		.loc 9 115 10 is_stmt 1 view .LVU100
 531              	.LBB294:
 117:../../libdaisy/src/dev/oled_ssd130x.h ****         spi_.BlockingTransmit(buff, size);
 532              		.loc 9 117 9 view .LVU101
 117:../../libdaisy/src/dev/oled_ssd130x.h ****         spi_.BlockingTransmit(buff, size);
 533              		.loc 9 117 23 is_stmt 0 view .LVU102
 534 006a 0121     		movs	r1, #1
 535 006c 2846     		mov	r0, r5
 536 006e FFF7FEFF 		bl	dsy_gpio_write
 537              	.LVL34:
 118:../../libdaisy/src/dev/oled_ssd130x.h ****     };
 538              		.loc 9 118 9 is_stmt 1 view .LVU103
 118:../../libdaisy/src/dev/oled_ssd130x.h ****     };
 539              		.loc 9 118 30 is_stmt 0 view .LVU104
 540 0072 8022     		movs	r2, #128
 541 0074 4146     		mov	r1, r8
 542 0076 6423     		movs	r3, #100
 543 0078 3046     		mov	r0, r6
 544              	.LBE294:
 545              	.LBE293:
 546              		.loc 9 270 22 view .LVU105
 547 007a 9044     		add	r8, r8, r2
 548              	.LVL35:
 549              	.LBB296:
 550              	.LBB295:
 118:../../libdaisy/src/dev/oled_ssd130x.h ****     };
 551              		.loc 9 118 30 view .LVU106
 552 007c FFF7FEFF 		bl	_ZN5daisy9SpiHandle16BlockingTransmitEPhjm
 553              	.LVL36:
 118:../../libdaisy/src/dev/oled_ssd130x.h ****     };
 554              		.loc 9 118 30 view .LVU107
 555              	.LBE295:
 556              	.LBE296:
 557              		.loc 9 270 9 is_stmt 1 view .LVU108
 558              		.loc 9 270 22 view .LVU109
 559 0080 B82C     		cmp	r4, #184
 560 0082 C7D1     		bne	.L25
 561              	.LBE298:
 562              	.LBE300:
 563              		.loc 7 50 48 is_stmt 0 view .LVU110
 564 0084 02B0     		add	sp, sp, #8
 565              		.cfi_def_cfa_offset 24
 566              		@ sp needed
 567 0086 BDE8F081 		pop	{r4, r5, r6, r7, r8, pc}
 568              		.loc 7 50 48 view .LVU111
 569              		.cfi_endproc
 570              	.LFE4633:
 572 008a 00BF     		.section	.text._ZN5daisy25OneBitGraphicsDisplayImplINS_11OledDisplayINS_13SSD130xDriverILj128ELj64
 573              		.align	1
 574              		.p2align 2,,3
 575              		.weak	_ZN5daisy25OneBitGraphicsDisplayImplINS_11OledDisplayINS_13SSD130xDriverILj128ELj64ENS_24SSD
ARM GAS  C:\Users\VINCIU~1\AppData\Local\Temp\ccNNq0o9.s 			page 28


 576              		.syntax unified
 577              		.thumb
 578              		.thumb_func
 579              		.fpu fpv5-d16
 581              	_ZN5daisy25OneBitGraphicsDisplayImplINS_11OledDisplayINS_13SSD130xDriverILj128ELj64ENS_24SSD130x4Wi
 582              	.LVL37:
 583              	.LFB4631:
 180:../../libdaisy/src/hid/disp/display.h **** 
 181:../../libdaisy/src/hid/disp/display.h ****     void DrawLine(uint_fast8_t x1,
 182:../../libdaisy/src/hid/disp/display.h ****                   uint_fast8_t y1,
 183:../../libdaisy/src/hid/disp/display.h ****                   uint_fast8_t x2,
 184:../../libdaisy/src/hid/disp/display.h ****                   uint_fast8_t y2,
 185:../../libdaisy/src/hid/disp/display.h ****                   bool         on) override
 186:../../libdaisy/src/hid/disp/display.h ****     {
 187:../../libdaisy/src/hid/disp/display.h ****         int_fast16_t deltaX = abs((int_fast16_t)x2 - (int_fast16_t)x1);
 188:../../libdaisy/src/hid/disp/display.h ****         int_fast16_t deltaY = abs((int_fast16_t)y2 - (int_fast16_t)y1);
 189:../../libdaisy/src/hid/disp/display.h ****         int_fast16_t signX  = ((x1 < x2) ? 1 : -1);
 190:../../libdaisy/src/hid/disp/display.h ****         int_fast16_t signY  = ((y1 < y2) ? 1 : -1);
 191:../../libdaisy/src/hid/disp/display.h ****         int_fast16_t error  = deltaX - deltaY;
 192:../../libdaisy/src/hid/disp/display.h ****         int_fast16_t error2;
 193:../../libdaisy/src/hid/disp/display.h **** 
 194:../../libdaisy/src/hid/disp/display.h ****         // If we write "ChildType::DrawPixel(x2, y2, on);", we end up with
 195:../../libdaisy/src/hid/disp/display.h ****         // all sorts of weird compiler errors when the Child class is a template
 196:../../libdaisy/src/hid/disp/display.h ****         // class. The only way around this is to use this very verbose syntax:
 197:../../libdaisy/src/hid/disp/display.h ****         ((ChildType*)(this))->ChildType::DrawPixel(x2, y2, on);
 198:../../libdaisy/src/hid/disp/display.h **** 
 199:../../libdaisy/src/hid/disp/display.h ****         while((x1 != x2) || (y1 != y2))
 200:../../libdaisy/src/hid/disp/display.h ****         {
 201:../../libdaisy/src/hid/disp/display.h ****             ((ChildType*)(this))->ChildType::DrawPixel(x1, y1, on);
 202:../../libdaisy/src/hid/disp/display.h ****             error2 = error * 2;
 203:../../libdaisy/src/hid/disp/display.h ****             if(error2 > -deltaY)
 204:../../libdaisy/src/hid/disp/display.h ****             {
 205:../../libdaisy/src/hid/disp/display.h ****                 error -= deltaY;
 206:../../libdaisy/src/hid/disp/display.h ****                 x1 += signX;
 207:../../libdaisy/src/hid/disp/display.h ****             }
 208:../../libdaisy/src/hid/disp/display.h **** 
 209:../../libdaisy/src/hid/disp/display.h ****             if(error2 < deltaX)
 210:../../libdaisy/src/hid/disp/display.h ****             {
 211:../../libdaisy/src/hid/disp/display.h ****                 error += deltaX;
 212:../../libdaisy/src/hid/disp/display.h ****                 y1 += signY;
 213:../../libdaisy/src/hid/disp/display.h ****             }
 214:../../libdaisy/src/hid/disp/display.h ****         }
 215:../../libdaisy/src/hid/disp/display.h ****     }
 216:../../libdaisy/src/hid/disp/display.h **** 
 217:../../libdaisy/src/hid/disp/display.h ****     void DrawRect(uint_fast8_t x1,
 218:../../libdaisy/src/hid/disp/display.h ****                   uint_fast8_t y1,
 219:../../libdaisy/src/hid/disp/display.h ****                   uint_fast8_t x2,
 220:../../libdaisy/src/hid/disp/display.h ****                   uint_fast8_t y2,
 221:../../libdaisy/src/hid/disp/display.h ****                   bool         on,
 222:../../libdaisy/src/hid/disp/display.h ****                   bool         fill = false) override
 223:../../libdaisy/src/hid/disp/display.h ****     {
 224:../../libdaisy/src/hid/disp/display.h ****         if(fill)
 225:../../libdaisy/src/hid/disp/display.h ****         {
 226:../../libdaisy/src/hid/disp/display.h ****             for(uint_fast8_t x = x1; x <= x2; x++)
 227:../../libdaisy/src/hid/disp/display.h ****             {
 228:../../libdaisy/src/hid/disp/display.h ****                 for(uint_fast8_t y = y1; y <= y2; y++)
 229:../../libdaisy/src/hid/disp/display.h ****                 {
ARM GAS  C:\Users\VINCIU~1\AppData\Local\Temp\ccNNq0o9.s 			page 29


 230:../../libdaisy/src/hid/disp/display.h ****                     ((ChildType*)(this))->ChildType::DrawPixel(x, y, on);
 231:../../libdaisy/src/hid/disp/display.h ****                 }
 232:../../libdaisy/src/hid/disp/display.h ****             }
 233:../../libdaisy/src/hid/disp/display.h ****         }
 234:../../libdaisy/src/hid/disp/display.h ****         else
 235:../../libdaisy/src/hid/disp/display.h ****         {
 236:../../libdaisy/src/hid/disp/display.h ****             ((ChildType*)(this))->ChildType::DrawLine(x1, y1, x2, y1, on);
 237:../../libdaisy/src/hid/disp/display.h ****             ((ChildType*)(this))->ChildType::DrawLine(x2, y1, x2, y2, on);
 238:../../libdaisy/src/hid/disp/display.h ****             ((ChildType*)(this))->ChildType::DrawLine(x2, y2, x1, y2, on);
 239:../../libdaisy/src/hid/disp/display.h ****             ((ChildType*)(this))->ChildType::DrawLine(x1, y2, x1, y1, on);
 240:../../libdaisy/src/hid/disp/display.h ****         }
 241:../../libdaisy/src/hid/disp/display.h ****     }
 242:../../libdaisy/src/hid/disp/display.h **** 
 243:../../libdaisy/src/hid/disp/display.h ****     void DrawArc(uint_fast8_t x,
 244:../../libdaisy/src/hid/disp/display.h ****                  uint_fast8_t y,
 245:../../libdaisy/src/hid/disp/display.h ****                  uint_fast8_t radius,
 246:../../libdaisy/src/hid/disp/display.h ****                  int_fast16_t start_angle,
 247:../../libdaisy/src/hid/disp/display.h ****                  int_fast16_t sweep,
 248:../../libdaisy/src/hid/disp/display.h ****                  bool         on) override
 249:../../libdaisy/src/hid/disp/display.h ****     {
 250:../../libdaisy/src/hid/disp/display.h ****         // Values to calculate the circle
 251:../../libdaisy/src/hid/disp/display.h ****         int_fast16_t t_x, t_y, err, e2;
 252:../../libdaisy/src/hid/disp/display.h **** 
 253:../../libdaisy/src/hid/disp/display.h ****         // Temporary values to speed up comparisons
 254:../../libdaisy/src/hid/disp/display.h ****         float t_sxy, t_syx, t_sxny, t_synx;
 255:../../libdaisy/src/hid/disp/display.h ****         float t_exy, t_eyx, t_exny, t_eynx;
 256:../../libdaisy/src/hid/disp/display.h **** 
 257:../../libdaisy/src/hid/disp/display.h ****         float start_angle_rad, end_angle_rad;
 258:../../libdaisy/src/hid/disp/display.h ****         float start_x, start_y, end_x, end_y;
 259:../../libdaisy/src/hid/disp/display.h **** 
 260:../../libdaisy/src/hid/disp/display.h ****         bool d1, d2, d3, d4;
 261:../../libdaisy/src/hid/disp/display.h **** 
 262:../../libdaisy/src/hid/disp/display.h ****         d1 = d2 = d3 = d4 = true;
 263:../../libdaisy/src/hid/disp/display.h **** 
 264:../../libdaisy/src/hid/disp/display.h ****         bool circle = false;
 265:../../libdaisy/src/hid/disp/display.h **** 
 266:../../libdaisy/src/hid/disp/display.h ****         if(sweep < 0)
 267:../../libdaisy/src/hid/disp/display.h ****         {
 268:../../libdaisy/src/hid/disp/display.h ****             start_angle += sweep;
 269:../../libdaisy/src/hid/disp/display.h ****             sweep = -sweep;
 270:../../libdaisy/src/hid/disp/display.h ****         }
 271:../../libdaisy/src/hid/disp/display.h **** 
 272:../../libdaisy/src/hid/disp/display.h ****         start_angle_rad = deg2rad(start_angle);
 273:../../libdaisy/src/hid/disp/display.h ****         end_angle_rad   = deg2rad(start_angle + sweep);
 274:../../libdaisy/src/hid/disp/display.h **** 
 275:../../libdaisy/src/hid/disp/display.h ****         start_x = cos(start_angle_rad) * radius;
 276:../../libdaisy/src/hid/disp/display.h ****         start_y = -sin(start_angle_rad) * radius;
 277:../../libdaisy/src/hid/disp/display.h ****         end_x   = cos(end_angle_rad) * radius;
 278:../../libdaisy/src/hid/disp/display.h ****         end_y   = -sin(end_angle_rad) * radius;
 279:../../libdaisy/src/hid/disp/display.h **** 
 280:../../libdaisy/src/hid/disp/display.h ****         // Check if start and endpoint are very near
 281:../../libdaisy/src/hid/disp/display.h ****         if((end_x - start_x) * (end_x - start_x)
 282:../../libdaisy/src/hid/disp/display.h ****                + (end_y - start_y) * (end_y - start_y)
 283:../../libdaisy/src/hid/disp/display.h ****            < 2.0f)
 284:../../libdaisy/src/hid/disp/display.h ****         {
 285:../../libdaisy/src/hid/disp/display.h ****             if(sweep > 180)
 286:../../libdaisy/src/hid/disp/display.h ****                 circle = true;
ARM GAS  C:\Users\VINCIU~1\AppData\Local\Temp\ccNNq0o9.s 			page 30


 287:../../libdaisy/src/hid/disp/display.h ****             else
 288:../../libdaisy/src/hid/disp/display.h ****                 // Nothing to draw
 289:../../libdaisy/src/hid/disp/display.h ****                 return;
 290:../../libdaisy/src/hid/disp/display.h ****         }
 291:../../libdaisy/src/hid/disp/display.h **** 
 292:../../libdaisy/src/hid/disp/display.h ****         t_x = -radius;
 293:../../libdaisy/src/hid/disp/display.h ****         t_y = 0;
 294:../../libdaisy/src/hid/disp/display.h ****         err = 2 - 2 * radius;
 295:../../libdaisy/src/hid/disp/display.h **** 
 296:../../libdaisy/src/hid/disp/display.h ****         do
 297:../../libdaisy/src/hid/disp/display.h ****         {
 298:../../libdaisy/src/hid/disp/display.h ****             if(!circle)
 299:../../libdaisy/src/hid/disp/display.h ****             {
 300:../../libdaisy/src/hid/disp/display.h ****                 t_sxy  = start_x * t_y;
 301:../../libdaisy/src/hid/disp/display.h ****                 t_syx  = start_y * t_x;
 302:../../libdaisy/src/hid/disp/display.h ****                 t_sxny = start_x * -t_y;
 303:../../libdaisy/src/hid/disp/display.h ****                 t_synx = start_y * -t_x;
 304:../../libdaisy/src/hid/disp/display.h ****                 t_exy  = end_x * t_y;
 305:../../libdaisy/src/hid/disp/display.h ****                 t_eyx  = end_y * t_x;
 306:../../libdaisy/src/hid/disp/display.h ****                 t_exny = end_x * -t_y;
 307:../../libdaisy/src/hid/disp/display.h ****                 t_eynx = end_y * -t_x;
 308:../../libdaisy/src/hid/disp/display.h **** 
 309:../../libdaisy/src/hid/disp/display.h ****                 if(sweep > 180)
 310:../../libdaisy/src/hid/disp/display.h ****                 {
 311:../../libdaisy/src/hid/disp/display.h ****                     d1 = (t_sxy - t_synx < 0 || t_exy - t_eynx > 0);
 312:../../libdaisy/src/hid/disp/display.h ****                     d2 = (t_sxy - t_syx < 0 || t_exy - t_eyx > 0);
 313:../../libdaisy/src/hid/disp/display.h ****                     d3 = (t_sxny - t_syx < 0 || t_exny - t_eyx > 0);
 314:../../libdaisy/src/hid/disp/display.h ****                     d4 = (t_sxny - t_synx < 0 || t_exny - t_eynx > 0);
 315:../../libdaisy/src/hid/disp/display.h ****                 }
 316:../../libdaisy/src/hid/disp/display.h ****                 else
 317:../../libdaisy/src/hid/disp/display.h ****                 {
 318:../../libdaisy/src/hid/disp/display.h ****                     d1 = (t_sxy - t_synx < 0 && t_exy - t_eynx > 0);
 319:../../libdaisy/src/hid/disp/display.h ****                     d2 = (t_sxy - t_syx < 0 && t_exy - t_eyx > 0);
 320:../../libdaisy/src/hid/disp/display.h ****                     d3 = (t_sxny - t_syx < 0 && t_exny - t_eyx > 0);
 321:../../libdaisy/src/hid/disp/display.h ****                     d4 = (t_sxny - t_synx < 0 && t_exny - t_eynx > 0);
 322:../../libdaisy/src/hid/disp/display.h ****                 }
 323:../../libdaisy/src/hid/disp/display.h ****             }
 324:../../libdaisy/src/hid/disp/display.h **** 
 325:../../libdaisy/src/hid/disp/display.h ****             if(d1)
 326:../../libdaisy/src/hid/disp/display.h ****                 ((ChildType*)(this))
 327:../../libdaisy/src/hid/disp/display.h ****                     ->ChildType::DrawPixel(x - t_x, y + t_y, on);
 328:../../libdaisy/src/hid/disp/display.h ****             if(d2)
 329:../../libdaisy/src/hid/disp/display.h ****                 ((ChildType*)(this))
 330:../../libdaisy/src/hid/disp/display.h ****                     ->ChildType::DrawPixel(x + t_x, y + t_y, on);
 331:../../libdaisy/src/hid/disp/display.h ****             if(d3)
 332:../../libdaisy/src/hid/disp/display.h ****                 ((ChildType*)(this))
 333:../../libdaisy/src/hid/disp/display.h ****                     ->ChildType::DrawPixel(x + t_x, y - t_y, on);
 334:../../libdaisy/src/hid/disp/display.h ****             if(d4)
 335:../../libdaisy/src/hid/disp/display.h ****                 ((ChildType*)(this))
 336:../../libdaisy/src/hid/disp/display.h ****                     ->ChildType::DrawPixel(x - t_x, y - t_y, on);
 337:../../libdaisy/src/hid/disp/display.h **** 
 338:../../libdaisy/src/hid/disp/display.h ****             e2 = err;
 339:../../libdaisy/src/hid/disp/display.h ****             if(e2 <= t_y)
 340:../../libdaisy/src/hid/disp/display.h ****             {
 341:../../libdaisy/src/hid/disp/display.h ****                 t_y++;
 342:../../libdaisy/src/hid/disp/display.h ****                 err = err + (t_y * 2 + 1);
 343:../../libdaisy/src/hid/disp/display.h ****                 if(-t_x == t_y && e2 <= t_x)
ARM GAS  C:\Users\VINCIU~1\AppData\Local\Temp\ccNNq0o9.s 			page 31


 344:../../libdaisy/src/hid/disp/display.h ****                 {
 345:../../libdaisy/src/hid/disp/display.h ****                     e2 = 0;
 346:../../libdaisy/src/hid/disp/display.h ****                 }
 347:../../libdaisy/src/hid/disp/display.h ****             }
 348:../../libdaisy/src/hid/disp/display.h ****             if(e2 > t_x)
 349:../../libdaisy/src/hid/disp/display.h ****             {
 350:../../libdaisy/src/hid/disp/display.h ****                 t_x++;
 351:../../libdaisy/src/hid/disp/display.h ****                 err = err + (t_x * 2 + 1);
 352:../../libdaisy/src/hid/disp/display.h ****             }
 353:../../libdaisy/src/hid/disp/display.h ****         } while(t_x <= 0);
 354:../../libdaisy/src/hid/disp/display.h ****     }
 355:../../libdaisy/src/hid/disp/display.h **** 
 356:../../libdaisy/src/hid/disp/display.h ****     char WriteChar(char ch, FontDef font, bool on) override
 584              		.loc 8 356 10 is_stmt 1 view -0
 585              		.cfi_startproc
 586              		@ args = 4, pretend = 0, frame = 16
 587              		@ frame_needed = 0, uses_anonymous_args = 0
 588              		.loc 8 356 10 is_stmt 0 view .LVU113
 589 0000 2DE9F04F 		push	{r4, r5, r6, r7, r8, r9, r10, fp, lr}
 590              		.cfi_def_cfa_offset 36
 591              		.cfi_offset 4, -36
 592              		.cfi_offset 5, -32
 593              		.cfi_offset 6, -28
 594              		.cfi_offset 7, -24
 595              		.cfi_offset 8, -20
 596              		.cfi_offset 9, -16
 597              		.cfi_offset 10, -12
 598              		.cfi_offset 11, -8
 599              		.cfi_offset 14, -4
 600 0004 85B0     		sub	sp, sp, #20
 601              		.cfi_def_cfa_offset 56
 602              	.LVL38:
 357:../../libdaisy/src/hid/disp/display.h ****     {
 358:../../libdaisy/src/hid/disp/display.h ****         uint32_t i, b, j;
 359:../../libdaisy/src/hid/disp/display.h **** 
 360:../../libdaisy/src/hid/disp/display.h ****         // Check if character is valid
 361:../../libdaisy/src/hid/disp/display.h ****         if(ch < 32 || ch > 126)
 603              		.loc 8 361 20 view .LVU114
 604 0006 A1F12005 		sub	r5, r1, #32
 356:../../libdaisy/src/hid/disp/display.h ****     {
 605              		.loc 8 356 10 view .LVU115
 606 000a 04AC     		add	r4, sp, #16
 607 000c 9DF83870 		ldrb	r7, [sp, #56]	@ zero_extendqisi2
 608 0010 0091     		str	r1, [sp]
 609 0012 04E90C00 		stmdb	r4, {r2, r3}
 610              	.LVL39:
 611              		.loc 8 361 9 view .LVU116
 612 0016 EBB2     		uxtb	r3, r5
 613 0018 5E2B     		cmp	r3, #94
 614 001a 00F29580 		bhi	.L32
 362:../../libdaisy/src/hid/disp/display.h ****             return 0;
 363:../../libdaisy/src/hid/disp/display.h **** 
 364:../../libdaisy/src/hid/disp/display.h ****         // Check remaining space on current line
 365:../../libdaisy/src/hid/disp/display.h ****         if(Width() < (currentX_ + font.FontWidth)
 615              		.loc 8 365 17 view .LVU117
 616 001e 0368     		ldr	r3, [r0]
 617 0020 8046     		mov	r8, r0
ARM GAS  C:\Users\VINCIU~1\AppData\Local\Temp\ccNNq0o9.s 			page 32


 618 0022 5D4A     		ldr	r2, .L67
 619 0024 DB68     		ldr	r3, [r3, #12]
 620 0026 9DF80840 		ldrb	r4, [sp, #8]	@ zero_extendqisi2
 621 002a 9342     		cmp	r3, r2
 622 002c 9DF80960 		ldrb	r6, [sp, #9]	@ zero_extendqisi2
 623 0030 40F09480 		bne	.L59
 624 0034 8020     		movs	r0, #128
 625              	.LVL40:
 626              	.L31:
 627              		.loc 8 365 23 view .LVU118
 628 0036 B8F80430 		ldrh	r3, [r8, #4]
 629              		.loc 8 365 33 view .LVU119
 630 003a 2344     		add	r3, r3, r4
 366:../../libdaisy/src/hid/disp/display.h ****            || Height() < (currentY_ + font.FontHeight))
 631              		.loc 8 366 12 view .LVU120
 632 003c 8342     		cmp	r3, r0
 633 003e 00F38380 		bgt	.L32
 634              		.loc 8 366 21 discriminator 2 view .LVU121
 635 0042 D8F80030 		ldr	r3, [r8]
 636 0046 554A     		ldr	r2, .L67+4
 637 0048 9B68     		ldr	r3, [r3, #8]
 638 004a 9342     		cmp	r3, r2
 639 004c 40F08880 		bne	.L60
 640              		.loc 8 366 21 view .LVU122
 641 0050 4020     		movs	r0, #64
 642              	.L33:
 643              		.loc 8 366 27 discriminator 2 view .LVU123
 644 0052 B8F80620 		ldrh	r2, [r8, #6]
 645              		.loc 8 366 37 discriminator 2 view .LVU124
 646 0056 9319     		adds	r3, r2, r6
 647              		.loc 8 366 27 discriminator 2 view .LVU125
 648 0058 0192     		str	r2, [sp, #4]
 649              		.loc 8 366 12 discriminator 2 view .LVU126
 650 005a 8342     		cmp	r3, r0
 651 005c 74DC     		bgt	.L32
 652              	.LVL41:
 367:../../libdaisy/src/hid/disp/display.h ****         {
 368:../../libdaisy/src/hid/disp/display.h ****             // Not enough space on current line
 369:../../libdaisy/src/hid/disp/display.h ****             return 0;
 370:../../libdaisy/src/hid/disp/display.h ****         }
 371:../../libdaisy/src/hid/disp/display.h **** 
 372:../../libdaisy/src/hid/disp/display.h ****         // Use the font to write
 373:../../libdaisy/src/hid/disp/display.h ****         for(i = 0; i < font.FontHeight; i++)
 653              		.loc 8 373 22 is_stmt 1 view .LVU127
 654 005e 002E     		cmp	r6, #0
 655 0060 00F08980 		beq	.L34
 374:../../libdaisy/src/hid/disp/display.h ****         {
 375:../../libdaisy/src/hid/disp/display.h ****             b = font.data[(ch - 32) * font.FontHeight + i];
 656              		.loc 8 375 37 is_stmt 0 view .LVU128
 657 0064 06FB05F5 		mul	r5, r6, r5
 658 0068 6FF00040 		mvn	r0, #-2147483648
 659              		.loc 8 375 22 view .LVU129
 660 006c 039B     		ldr	r3, [sp, #12]
 661 006e 9646     		mov	lr, r2
 662 0070 2844     		add	r0, r0, r5
 663 0072 2E44     		add	r6, r6, r5
 376:../../libdaisy/src/hid/disp/display.h ****             for(j = 0; j < font.FontWidth; j++)
ARM GAS  C:\Users\VINCIU~1\AppData\Local\Temp\ccNNq0o9.s 			page 33


 377:../../libdaisy/src/hid/disp/display.h ****             {
 378:../../libdaisy/src/hid/disp/display.h ****                 if((b << j) & 0x8000)
 379:../../libdaisy/src/hid/disp/display.h ****                 {
 380:../../libdaisy/src/hid/disp/display.h ****                     ((ChildType*)(this))
 381:../../libdaisy/src/hid/disp/display.h ****                         ->ChildType::DrawPixel(
 382:../../libdaisy/src/hid/disp/display.h ****                             currentX_ + j, (currentY_ + i), on);
 383:../../libdaisy/src/hid/disp/display.h ****                 }
 384:../../libdaisy/src/hid/disp/display.h ****                 else
 385:../../libdaisy/src/hid/disp/display.h ****                 {
 386:../../libdaisy/src/hid/disp/display.h ****                     ((ChildType*)(this))
 387:../../libdaisy/src/hid/disp/display.h ****                         ->ChildType::DrawPixel(
 388:../../libdaisy/src/hid/disp/display.h ****                             currentX_ + j, (currentY_ + i), !on);
 389:../../libdaisy/src/hid/disp/display.h ****                 }
 390:../../libdaisy/src/hid/disp/display.h ****             }
 391:../../libdaisy/src/hid/disp/display.h ****         }
 392:../../libdaisy/src/hid/disp/display.h **** 
 393:../../libdaisy/src/hid/disp/display.h ****         // The current space is now taken
 394:../../libdaisy/src/hid/disp/display.h ****         SetCursor(currentX_ + font.FontWidth, currentY_);
 664              		.loc 8 394 19 view .LVU130
 665 0074 B8F804A0 		ldrh	r10, [r8, #4]
 666 0078 03EB4000 		add	r0, r3, r0, lsl #1
 667 007c 023B     		subs	r3, r3, #2
 668 007e 03EB460B 		add	fp, r3, r6, lsl #1
 669              	.LVL42:
 670              	.L37:
 375:../../libdaisy/src/hid/disp/display.h ****             for(j = 0; j < font.FontWidth; j++)
 671              		.loc 8 375 15 view .LVU131
 672 0082 30F8026F 		ldrh	r6, [r0, #2]!
 673              	.LVL43:
 376:../../libdaisy/src/hid/disp/display.h ****             for(j = 0; j < font.FontWidth; j++)
 674              		.loc 8 376 26 is_stmt 1 view .LVU132
 675 0086 BCB3     		cbz	r4, .L42
 676              	.LBB327:
 677              	.LBB328:
 678              	.LBB329:
 679              	.LBB330:
 680              	.LBB331:
 246:../../libdaisy/src/dev/oled_ssd130x.h ****     }
 681              		.loc 9 246 55 is_stmt 0 view .LVU133
 682 0088 0EF00703 		and	r3, lr, #7
 246:../../libdaisy/src/dev/oled_ssd130x.h ****     }
 683              		.loc 9 246 49 view .LVU134
 684 008c 4FF0010C 		mov	ip, #1
 246:../../libdaisy/src/dev/oled_ssd130x.h ****     }
 685              		.loc 9 246 28 view .LVU135
 686 0090 4FEADE02 		lsr	r2, lr, #3
 687 0094 5146     		mov	r1, r10
 246:../../libdaisy/src/dev/oled_ssd130x.h ****     }
 688              		.loc 9 246 49 view .LVU136
 689 0096 0CFA03FC 		lsl	ip, ip, r3
 690 009a 0AF11403 		add	r3, r10, #20
 246:../../libdaisy/src/dev/oled_ssd130x.h ****     }
 691              		.loc 9 246 42 view .LVU137
 692 009e 4FFA8CFC 		sxtb	ip, ip
 693 00a2 03EBC212 		add	r2, r3, r2, lsl #7
 694              	.LBE331:
 695              	.LBE330:
ARM GAS  C:\Users\VINCIU~1\AppData\Local\Temp\ccNNq0o9.s 			page 34


 696              	.LBE329:
 697              	.LBE328:
 698              	.LBE327:
 376:../../libdaisy/src/hid/disp/display.h ****             for(j = 0; j < font.FontWidth; j++)
 699              		.loc 8 376 19 view .LVU138
 700 00a6 0023     		movs	r3, #0
 701              	.LBB349:
 702              	.LBB344:
 703              	.LBB339:
 704              	.LBB335:
 705              	.LBB332:
 246:../../libdaisy/src/dev/oled_ssd130x.h ****     }
 706              		.loc 9 246 42 view .LVU139
 707 00a8 6FEA0C09 		mvn	r9, ip
 708 00ac 4244     		add	r2, r2, r8
 709 00ae 0EE0     		b	.L43
 710              	.LVL44:
 711              	.L61:
 246:../../libdaisy/src/dev/oled_ssd130x.h ****     }
 712              		.loc 9 246 42 view .LVU140
 713              	.LBE332:
 714              	.LBE335:
 715              	.LBE339:
 716              	.LBE344:
 717              	.LBE349:
 718              	.LBB350:
 719              	.LBI350:
  41:../../libdaisy/src/hid/disp/oled_display.h ****     {
 720              		.loc 7 41 10 is_stmt 1 view .LVU141
 721              	.LBB351:
 722              	.LBI351:
 239:../../libdaisy/src/dev/oled_ssd130x.h ****     {
 723              		.loc 9 239 10 view .LVU142
 724              	.LBB352:
 241:../../libdaisy/src/dev/oled_ssd130x.h ****             return;
 725              		.loc 9 241 9 is_stmt 0 view .LVU143
 726 00b0 7F29     		cmp	r1, #127
 727 00b2 07D8     		bhi	.L39
 728 00b4 BEF13F0F 		cmp	lr, #63
 729 00b8 04D8     		bhi	.L39
 244:../../libdaisy/src/dev/oled_ssd130x.h ****         else
 730              		.loc 9 244 42 view .LVU144
 731 00ba 1578     		ldrb	r5, [r2]	@ zero_extendqisi2
 243:../../libdaisy/src/dev/oled_ssd130x.h ****             buffer_[x + (y / 8) * width] |= (1 << (y % 8));
 732              		.loc 9 243 9 view .LVU145
 733 00bc 9FB1     		cbz	r7, .L41
 734              	.L58:
 243:../../libdaisy/src/dev/oled_ssd130x.h ****             buffer_[x + (y / 8) * width] |= (1 << (y % 8));
 735              		.loc 9 243 9 view .LVU146
 736              	.LBE352:
 737              	.LBE351:
 738              	.LBE350:
 739              	.LBB353:
 740              	.LBB345:
 741              	.LBB340:
 244:../../libdaisy/src/dev/oled_ssd130x.h ****         else
 742              		.loc 9 244 42 view .LVU147
ARM GAS  C:\Users\VINCIU~1\AppData\Local\Temp\ccNNq0o9.s 			page 35


 743 00be 4CEA0505 		orr	r5, ip, r5
 744 00c2 1570     		strb	r5, [r2]
 745              	.L39:
 746              	.LBE340:
 747              	.LBE345:
 748              	.LBE353:
 376:../../libdaisy/src/hid/disp/display.h ****             {
 749              		.loc 8 376 13 is_stmt 1 discriminator 2 view .LVU148
 750 00c4 0133     		adds	r3, r3, #1
 751              	.LVL45:
 376:../../libdaisy/src/hid/disp/display.h ****             {
 752              		.loc 8 376 26 discriminator 2 view .LVU149
 753 00c6 0132     		adds	r2, r2, #1
 754 00c8 0131     		adds	r1, r1, #1
 755 00ca 9C42     		cmp	r4, r3
 756 00cc 14D0     		beq	.L42
 757              	.LVL46:
 758              	.L43:
 378:../../libdaisy/src/hid/disp/display.h ****                 {
 759              		.loc 8 378 23 is_stmt 0 view .LVU150
 760 00ce 06FA03F5 		lsl	r5, r6, r3
 378:../../libdaisy/src/hid/disp/display.h ****                 {
 761              		.loc 8 378 17 view .LVU151
 762 00d2 2D04     		lsls	r5, r5, #16
 763 00d4 ECD4     		bmi	.L61
 764              	.LVL47:
 765              	.LBB354:
 766              	.LBI327:
  41:../../libdaisy/src/hid/disp/oled_display.h ****     {
 767              		.loc 7 41 10 is_stmt 1 view .LVU152
 768              	.LBB346:
 769              	.LBI328:
 239:../../libdaisy/src/dev/oled_ssd130x.h ****     {
 770              		.loc 9 239 10 view .LVU153
 771              	.LBB341:
 241:../../libdaisy/src/dev/oled_ssd130x.h ****             return;
 772              		.loc 9 241 9 is_stmt 0 view .LVU154
 773 00d6 7F29     		cmp	r1, #127
 774 00d8 F4D8     		bhi	.L39
 775 00da BEF13F0F 		cmp	lr, #63
 776 00de F1D8     		bhi	.L39
 244:../../libdaisy/src/dev/oled_ssd130x.h ****         else
 777              		.loc 9 244 42 view .LVU155
 778 00e0 1578     		ldrb	r5, [r2]	@ zero_extendqisi2
 243:../../libdaisy/src/dev/oled_ssd130x.h ****             buffer_[x + (y / 8) * width] |= (1 << (y % 8));
 779              		.loc 9 243 9 view .LVU156
 780 00e2 002F     		cmp	r7, #0
 781 00e4 EBD0     		beq	.L58
 782              	.L41:
 783              	.LVL48:
 784              	.LBB336:
 785              	.LBI330:
 239:../../libdaisy/src/dev/oled_ssd130x.h ****     {
 786              		.loc 9 239 10 is_stmt 1 view .LVU157
 239:../../libdaisy/src/dev/oled_ssd130x.h ****     {
 787              		.loc 9 239 10 is_stmt 0 view .LVU158
 788              	.LBE336:
ARM GAS  C:\Users\VINCIU~1\AppData\Local\Temp\ccNNq0o9.s 			page 36


 789              	.LBE341:
 790              	.LBE346:
 791              	.LBE354:
 376:../../libdaisy/src/hid/disp/display.h ****             {
 792              		.loc 8 376 13 view .LVU159
 793 00e6 0133     		adds	r3, r3, #1
 794              	.LVL49:
 795              	.LBB355:
 796              	.LBB347:
 797              	.LBB342:
 798              	.LBB337:
 799              	.LBB333:
 246:../../libdaisy/src/dev/oled_ssd130x.h ****     }
 800              		.loc 9 246 42 view .LVU160
 801 00e8 09EA0505 		and	r5, r9, r5
 802              	.LBE333:
 803              	.LBE337:
 804              	.LBE342:
 805              	.LBE347:
 806              	.LBE355:
 376:../../libdaisy/src/hid/disp/display.h ****             {
 807              		.loc 8 376 26 view .LVU161
 808 00ec 0132     		adds	r2, r2, #1
 809 00ee 0131     		adds	r1, r1, #1
 810 00f0 9C42     		cmp	r4, r3
 811              	.LBB356:
 812              	.LBB348:
 813              	.LBB343:
 814              	.LBB338:
 815              	.LBB334:
 246:../../libdaisy/src/dev/oled_ssd130x.h ****     }
 816              		.loc 9 246 42 view .LVU162
 817 00f2 02F8015C 		strb	r5, [r2, #-1]
 246:../../libdaisy/src/dev/oled_ssd130x.h ****     }
 818              		.loc 9 246 42 view .LVU163
 819              	.LBE334:
 820              	.LBE338:
 821              	.LBE343:
 822              	.LBE348:
 823              	.LBE356:
 376:../../libdaisy/src/hid/disp/display.h ****             {
 824              		.loc 8 376 13 is_stmt 1 view .LVU164
 825              	.LVL50:
 376:../../libdaisy/src/hid/disp/display.h ****             {
 826              		.loc 8 376 26 view .LVU165
 827 00f6 EAD1     		bne	.L43
 828              	.LVL51:
 829              	.L42:
 373:../../libdaisy/src/hid/disp/display.h ****         {
 830              		.loc 8 373 9 view .LVU166
 373:../../libdaisy/src/hid/disp/display.h ****         {
 831              		.loc 8 373 22 view .LVU167
 832 00f8 5845     		cmp	r0, fp
 833 00fa 0EF1010E 		add	lr, lr, #1
 834 00fe C0D1     		bne	.L37
 835              	.LVL52:
 836              	.L36:
ARM GAS  C:\Users\VINCIU~1\AppData\Local\Temp\ccNNq0o9.s 			page 37


 837              	.LBB357:
 838              	.LBB358:
 133:../../libdaisy/src/hid/disp/display.h ****         currentY_ = (y >= Height()) ? Height() - 1 : y;
 839              		.loc 8 133 33 is_stmt 0 view .LVU168
 840 0100 D8F80030 		ldr	r3, [r8]
 841              	.LBE358:
 842              	.LBE357:
 843              		.loc 8 394 18 view .LVU169
 844 0104 5444     		add	r4, r4, r10
 845 0106 2449     		ldr	r1, .L67
 846              	.LBB364:
 847              	.LBB359:
 133:../../libdaisy/src/hid/disp/display.h ****         currentY_ = (y >= Height()) ? Height() - 1 : y;
 848              		.loc 8 133 33 view .LVU170
 849 0108 DA68     		ldr	r2, [r3, #12]
 850              	.LBE359:
 851              	.LBE364:
 852              		.loc 8 394 18 view .LVU171
 853 010a A4B2     		uxth	r4, r4
 854              	.LVL53:
 855              	.LBB365:
 856              	.LBI357:
 131:../../libdaisy/src/hid/disp/display.h ****     {
 857              		.loc 8 131 10 is_stmt 1 view .LVU172
 858              	.LBB360:
 133:../../libdaisy/src/hid/disp/display.h ****         currentY_ = (y >= Height()) ? Height() - 1 : y;
 859              		.loc 8 133 9 view .LVU173
 860 010c 8A42     		cmp	r2, r1
 861 010e 2DD1     		bne	.L62
 133:../../libdaisy/src/hid/disp/display.h ****         currentY_ = (y >= Height()) ? Height() - 1 : y;
 862              		.loc 8 133 33 is_stmt 0 view .LVU174
 863 0110 8020     		movs	r0, #128
 864              	.L44:
 133:../../libdaisy/src/hid/disp/display.h ****         currentY_ = (y >= Height()) ? Height() - 1 : y;
 865              		.loc 8 133 19 view .LVU175
 866 0112 8442     		cmp	r4, r0
 867 0114 1CD2     		bcs	.L63
 868              	.LVL54:
 869              	.L45:
 134:../../libdaisy/src/hid/disp/display.h ****     }
 870              		.loc 8 134 34 view .LVU176
 871 0116 9B68     		ldr	r3, [r3, #8]
 872 0118 204A     		ldr	r2, .L67+4
 133:../../libdaisy/src/hid/disp/display.h ****         currentY_ = (y >= Height()) ? Height() - 1 : y;
 873              		.loc 8 133 19 view .LVU177
 874 011a A8F80440 		strh	r4, [r8, #4]	@ movhi
 134:../../libdaisy/src/hid/disp/display.h ****     }
 875              		.loc 8 134 9 is_stmt 1 view .LVU178
 876 011e 9342     		cmp	r3, r2
 877 0120 21D1     		bne	.L64
 134:../../libdaisy/src/hid/disp/display.h ****     }
 878              		.loc 8 134 34 is_stmt 0 view .LVU179
 879 0122 4020     		movs	r0, #64
 880              	.L47:
 134:../../libdaisy/src/hid/disp/display.h ****     }
 881              		.loc 8 134 19 view .LVU180
 882 0124 019B     		ldr	r3, [sp, #4]
ARM GAS  C:\Users\VINCIU~1\AppData\Local\Temp\ccNNq0o9.s 			page 38


 883 0126 8342     		cmp	r3, r0
 884 0128 07D3     		bcc	.L48
 134:../../libdaisy/src/hid/disp/display.h ****     }
 885              		.loc 8 134 46 view .LVU181
 886 012a D8F80030 		ldr	r3, [r8]
 887 012e 1B4A     		ldr	r2, .L67+4
 888 0130 9B68     		ldr	r3, [r3, #8]
 889 0132 9342     		cmp	r3, r2
 890 0134 29D1     		bne	.L65
 891 0136 3F23     		movs	r3, #63
 892 0138 0193     		str	r3, [sp, #4]
 893              	.LVL55:
 894              	.L48:
 134:../../libdaisy/src/hid/disp/display.h ****     }
 895              		.loc 8 134 19 view .LVU182
 896 013a DDE90003 		ldrd	r0, r3, [sp]
 897 013e A8F80630 		strh	r3, [r8, #6]	@ movhi
 898              	.LVL56:
 134:../../libdaisy/src/hid/disp/display.h ****     }
 899              		.loc 8 134 19 view .LVU183
 900              	.LBE360:
 901              	.LBE365:
 395:../../libdaisy/src/hid/disp/display.h **** 
 396:../../libdaisy/src/hid/disp/display.h ****         // Return written char for validation
 397:../../libdaisy/src/hid/disp/display.h ****         return ch;
 398:../../libdaisy/src/hid/disp/display.h ****     }
 902              		.loc 8 398 5 view .LVU184
 903 0142 05B0     		add	sp, sp, #20
 904              		.cfi_remember_state
 905              		.cfi_def_cfa_offset 36
 906              		@ sp needed
 907 0144 BDE8F08F 		pop	{r4, r5, r6, r7, r8, r9, r10, fp, pc}
 908              	.LVL57:
 909              	.L32:
 910              		.cfi_restore_state
 362:../../libdaisy/src/hid/disp/display.h **** 
 911              		.loc 8 362 20 view .LVU185
 912 0148 0020     		movs	r0, #0
 913              		.loc 8 398 5 view .LVU186
 914 014a 05B0     		add	sp, sp, #20
 915              		.cfi_remember_state
 916              		.cfi_def_cfa_offset 36
 917              		@ sp needed
 918 014c BDE8F08F 		pop	{r4, r5, r6, r7, r8, r9, r10, fp, pc}
 919              	.LVL58:
 920              	.L63:
 921              		.cfi_restore_state
 922              	.LBB366:
 923              	.LBB361:
 133:../../libdaisy/src/hid/disp/display.h ****         currentY_ = (y >= Height()) ? Height() - 1 : y;
 924              		.loc 8 133 44 view .LVU187
 925 0150 DA68     		ldr	r2, [r3, #12]
 926 0152 1149     		ldr	r1, .L67
 927 0154 8A42     		cmp	r2, r1
 928 0156 11D1     		bne	.L66
 929 0158 7F24     		movs	r4, #127
 930              	.LVL59:
ARM GAS  C:\Users\VINCIU~1\AppData\Local\Temp\ccNNq0o9.s 			page 39


 133:../../libdaisy/src/hid/disp/display.h ****         currentY_ = (y >= Height()) ? Height() - 1 : y;
 931              		.loc 8 133 44 view .LVU188
 932 015a DCE7     		b	.L45
 933              	.LVL60:
 934              	.L59:
 133:../../libdaisy/src/hid/disp/display.h ****         currentY_ = (y >= Height()) ? Height() - 1 : y;
 935              		.loc 8 133 44 view .LVU189
 936              	.LBE361:
 937              	.LBE366:
 365:../../libdaisy/src/hid/disp/display.h ****            || Height() < (currentY_ + font.FontHeight))
 938              		.loc 8 365 17 view .LVU190
 939 015c 9847     		blx	r3
 940              	.LVL61:
 365:../../libdaisy/src/hid/disp/display.h ****            || Height() < (currentY_ + font.FontHeight))
 941              		.loc 8 365 17 view .LVU191
 942 015e 6AE7     		b	.L31
 943              	.L60:
 366:../../libdaisy/src/hid/disp/display.h ****         {
 944              		.loc 8 366 21 discriminator 2 view .LVU192
 945 0160 4046     		mov	r0, r8
 946 0162 9847     		blx	r3
 947              	.LVL62:
 948 0164 75E7     		b	.L33
 949              	.LVL63:
 950              	.L64:
 951              	.LBB367:
 952              	.LBB362:
 134:../../libdaisy/src/hid/disp/display.h ****     }
 953              		.loc 8 134 33 view .LVU193
 954 0166 4046     		mov	r0, r8
 955 0168 9847     		blx	r3
 956              	.LVL64:
 957 016a DBE7     		b	.L47
 958              	.LVL65:
 959              	.L62:
 133:../../libdaisy/src/hid/disp/display.h ****         currentY_ = (y >= Height()) ? Height() - 1 : y;
 960              		.loc 8 133 32 view .LVU194
 961 016c 4046     		mov	r0, r8
 962 016e 9047     		blx	r2
 963              	.LVL66:
 133:../../libdaisy/src/hid/disp/display.h ****         currentY_ = (y >= Height()) ? Height() - 1 : y;
 964              		.loc 8 133 44 view .LVU195
 965 0170 D8F80030 		ldr	r3, [r8]
 966 0174 CDE7     		b	.L44
 967              	.LVL67:
 968              	.L34:
 133:../../libdaisy/src/hid/disp/display.h ****         currentY_ = (y >= Height()) ? Height() - 1 : y;
 969              		.loc 8 133 44 view .LVU196
 970              	.LBE362:
 971              	.LBE367:
 394:../../libdaisy/src/hid/disp/display.h **** 
 972              		.loc 8 394 19 view .LVU197
 973 0176 B8F804A0 		ldrh	r10, [r8, #4]
 974 017a C1E7     		b	.L36
 975              	.LVL68:
 976              	.L66:
 977              	.LBB368:
ARM GAS  C:\Users\VINCIU~1\AppData\Local\Temp\ccNNq0o9.s 			page 40


 978              	.LBB363:
 133:../../libdaisy/src/hid/disp/display.h ****         currentY_ = (y >= Height()) ? Height() - 1 : y;
 979              		.loc 8 133 43 view .LVU198
 980 017c 4046     		mov	r0, r8
 981 017e 9047     		blx	r2
 982              	.LVL69:
 133:../../libdaisy/src/hid/disp/display.h ****         currentY_ = (y >= Height()) ? Height() - 1 : y;
 983              		.loc 8 133 19 view .LVU199
 984 0180 0138     		subs	r0, r0, #1
 134:../../libdaisy/src/hid/disp/display.h ****     }
 985              		.loc 8 134 34 view .LVU200
 986 0182 D8F80030 		ldr	r3, [r8]
 133:../../libdaisy/src/hid/disp/display.h ****         currentY_ = (y >= Height()) ? Height() - 1 : y;
 987              		.loc 8 133 19 view .LVU201
 988 0186 84B2     		uxth	r4, r0
 989              	.LVL70:
 133:../../libdaisy/src/hid/disp/display.h ****         currentY_ = (y >= Height()) ? Height() - 1 : y;
 990              		.loc 8 133 19 view .LVU202
 991 0188 C5E7     		b	.L45
 992              	.L65:
 134:../../libdaisy/src/hid/disp/display.h ****     }
 993              		.loc 8 134 45 view .LVU203
 994 018a 4046     		mov	r0, r8
 995 018c 9847     		blx	r3
 996              	.LVL71:
 134:../../libdaisy/src/hid/disp/display.h ****     }
 997              		.loc 8 134 19 view .LVU204
 998 018e 0138     		subs	r0, r0, #1
 999 0190 83B2     		uxth	r3, r0
 1000 0192 0193     		str	r3, [sp, #4]
 1001              	.LVL72:
 134:../../libdaisy/src/hid/disp/display.h ****     }
 1002              		.loc 8 134 19 view .LVU205
 1003 0194 D1E7     		b	.L48
 1004              	.L68:
 1005 0196 00BF     		.align	2
 1006              	.L67:
 1007 0198 00000000 		.word	_ZNK5daisy11OledDisplayINS_13SSD130xDriverILj128ELj64ENS_24SSD130x4WireSpiTransportEEEE5Widt
 1008 019c 00000000 		.word	_ZNK5daisy11OledDisplayINS_13SSD130xDriverILj128ELj64ENS_24SSD130x4WireSpiTransportEEEE6Heig
 1009              	.LBE363:
 1010              	.LBE368:
 1011              		.cfi_endproc
 1012              	.LFE4631:
 1014              		.section	.text._ZN5daisy25OneBitGraphicsDisplayImplINS_11OledDisplayINS_13SSD130xDriverILj128ELj64
 1015              		.align	1
 1016              		.p2align 2,,3
 1017              		.weak	_ZN5daisy25OneBitGraphicsDisplayImplINS_11OledDisplayINS_13SSD130xDriverILj128ELj64ENS_24SSD
 1018              		.syntax unified
 1019              		.thumb
 1020              		.thumb_func
 1021              		.fpu fpv5-d16
 1023              	_ZN5daisy25OneBitGraphicsDisplayImplINS_11OledDisplayINS_13SSD130xDriverILj128ELj64ENS_24SSD130x4Wi
 1024              	.LVL73:
 1025              	.LFB4632:
 399:../../libdaisy/src/hid/disp/display.h **** 
 400:../../libdaisy/src/hid/disp/display.h ****     char WriteString(const char* str, FontDef font, bool on) override
 1026              		.loc 8 400 10 is_stmt 1 view -0
ARM GAS  C:\Users\VINCIU~1\AppData\Local\Temp\ccNNq0o9.s 			page 41


 1027              		.cfi_startproc
 1028              		@ args = 4, pretend = 0, frame = 8
 1029              		@ frame_needed = 0, uses_anonymous_args = 0
 1030              		.loc 8 400 10 is_stmt 0 view .LVU207
 1031 0000 F0B5     		push	{r4, r5, r6, r7, lr}
 1032              		.cfi_def_cfa_offset 20
 1033              		.cfi_offset 4, -20
 1034              		.cfi_offset 5, -16
 1035              		.cfi_offset 6, -12
 1036              		.cfi_offset 7, -8
 1037              		.cfi_offset 14, -4
 1038 0002 85B0     		sub	sp, sp, #20
 1039              		.cfi_def_cfa_offset 40
 1040              		.loc 8 400 10 view .LVU208
 1041 0004 0C46     		mov	r4, r1
 401:../../libdaisy/src/hid/disp/display.h ****     {
 402:../../libdaisy/src/hid/disp/display.h ****         // Write until null-byte
 403:../../libdaisy/src/hid/disp/display.h ****         while(*str)
 1042              		.loc 8 403 9 is_stmt 1 view .LVU209
 1043 0006 0978     		ldrb	r1, [r1]	@ zero_extendqisi2
 1044              	.LVL74:
 400:../../libdaisy/src/hid/disp/display.h ****     {
 1045              		.loc 8 400 10 is_stmt 0 view .LVU210
 1046 0008 02AD     		add	r5, sp, #8
 1047 000a 9DF82870 		ldrb	r7, [sp, #40]	@ zero_extendqisi2
 1048 000e 85E80C00 		stm	r5, {r2, r3}
 1049              		.loc 8 403 9 view .LVU211
 1050 0012 81B1     		cbz	r1, .L72
 1051 0014 0646     		mov	r6, r0
 1052 0016 02E0     		b	.L73
 1053              	.LVL75:
 1054              	.L79:
 1055              		.loc 8 403 9 view .LVU212
 1056 0018 14F8011F 		ldrb	r1, [r4, #1]!	@ zero_extendqisi2
 1057              	.LVL76:
 1058              		.loc 8 403 9 view .LVU213
 1059 001c 59B1     		cbz	r1, .L72
 1060              	.LVL77:
 1061              	.L73:
 404:../../libdaisy/src/hid/disp/display.h ****         {
 405:../../libdaisy/src/hid/disp/display.h ****             if(((ChildType*)(this))->ChildType::WriteChar(*str, font, on)
 1062              		.loc 8 405 58 view .LVU214
 1063 001e 3046     		mov	r0, r6
 1064 0020 95E80C00 		ldm	r5, {r2, r3}
 1065 0024 0097     		str	r7, [sp]
 1066 0026 FFF7FEFF 		bl	_ZN5daisy25OneBitGraphicsDisplayImplINS_11OledDisplayINS_13SSD130xDriverILj128ELj64ENS_24SSD130
 1067              	.LVL78:
 403:../../libdaisy/src/hid/disp/display.h ****         {
 1068              		.loc 8 403 9 is_stmt 1 view .LVU215
 406:../../libdaisy/src/hid/disp/display.h ****                != *str)
 1069              		.loc 8 406 16 is_stmt 0 view .LVU216
 1070 002a 2378     		ldrb	r3, [r4]	@ zero_extendqisi2
 405:../../libdaisy/src/hid/disp/display.h ****                != *str)
 1071              		.loc 8 405 13 view .LVU217
 1072 002c 9842     		cmp	r0, r3
 1073 002e F3D0     		beq	.L79
 407:../../libdaisy/src/hid/disp/display.h ****             {
ARM GAS  C:\Users\VINCIU~1\AppData\Local\Temp\ccNNq0o9.s 			page 42


 408:../../libdaisy/src/hid/disp/display.h ****                 // Char could not be written
 409:../../libdaisy/src/hid/disp/display.h ****                 return *str;
 410:../../libdaisy/src/hid/disp/display.h ****             }
 411:../../libdaisy/src/hid/disp/display.h **** 
 412:../../libdaisy/src/hid/disp/display.h ****             // Next char
 413:../../libdaisy/src/hid/disp/display.h ****             str++;
 414:../../libdaisy/src/hid/disp/display.h ****         }
 415:../../libdaisy/src/hid/disp/display.h **** 
 416:../../libdaisy/src/hid/disp/display.h ****         // Everything ok
 417:../../libdaisy/src/hid/disp/display.h ****         return *str;
 418:../../libdaisy/src/hid/disp/display.h ****     }
 1074              		.loc 8 418 5 view .LVU218
 1075 0030 1846     		mov	r0, r3
 1076 0032 05B0     		add	sp, sp, #20
 1077              		.cfi_remember_state
 1078              		.cfi_def_cfa_offset 20
 1079              		@ sp needed
 1080 0034 F0BD     		pop	{r4, r5, r6, r7, pc}
 1081              	.LVL79:
 1082              	.L72:
 1083              		.cfi_restore_state
 400:../../libdaisy/src/hid/disp/display.h ****     {
 1084              		.loc 8 400 10 view .LVU219
 1085 0036 0023     		movs	r3, #0
 1086              		.loc 8 418 5 view .LVU220
 1087 0038 1846     		mov	r0, r3
 1088 003a 05B0     		add	sp, sp, #20
 1089              		.cfi_def_cfa_offset 20
 1090              		@ sp needed
 1091 003c F0BD     		pop	{r4, r5, r6, r7, pc}
 1092              		.loc 8 418 5 view .LVU221
 1093              		.cfi_endproc
 1094              	.LFE4632:
 1096 003e 00BF     		.section	.text._ZN5daisy11OledDisplayINS_13SSD130xDriverILj128ELj64ENS_24SSD130x4WireSpiTransportE
 1097              		.align	1
 1098              		.p2align 2,,3
 1099              		.weak	_ZN5daisy11OledDisplayINS_13SSD130xDriverILj128ELj64ENS_24SSD130x4WireSpiTransportEEEE9DrawP
 1100              		.syntax unified
 1101              		.thumb
 1102              		.thumb_func
 1103              		.fpu fpv5-d16
 1105              	_ZN5daisy11OledDisplayINS_13SSD130xDriverILj128ELj64ENS_24SSD130x4WireSpiTransportEEEE9DrawPixelEjj
 1106              	.LVL80:
 1107              	.LFB4627:
  41:../../libdaisy/src/hid/disp/oled_display.h ****     {
 1108              		.loc 7 41 10 is_stmt 1 view -0
 1109              		.cfi_startproc
 1110              		@ args = 0, pretend = 0, frame = 0
 1111              		@ frame_needed = 0, uses_anonymous_args = 0
 1112              		@ link register save eliminated.
 1113              	.LBB373:
 1114              	.LBI373:
 239:../../libdaisy/src/dev/oled_ssd130x.h ****     {
 1115              		.loc 9 239 10 view .LVU223
 1116              	.LBB374:
 241:../../libdaisy/src/dev/oled_ssd130x.h ****             return;
 1117              		.loc 9 241 9 is_stmt 0 view .LVU224
ARM GAS  C:\Users\VINCIU~1\AppData\Local\Temp\ccNNq0o9.s 			page 43


 1118 0000 7F29     		cmp	r1, #127
 1119 0002 1ED8     		bhi	.L80
 1120 0004 3F2A     		cmp	r2, #63
 1121 0006 1CD8     		bhi	.L80
 243:../../libdaisy/src/dev/oled_ssd130x.h ****             buffer_[x + (y / 8) * width] |= (1 << (y % 8));
 1122              		.loc 9 243 9 view .LVU225
 1123 0008 6BB1     		cbz	r3, .L82
 244:../../libdaisy/src/dev/oled_ssd130x.h ****         else
 1124              		.loc 9 244 28 view .LVU226
 1125 000a D308     		lsrs	r3, r2, #3
 1126              	.LVL81:
 244:../../libdaisy/src/dev/oled_ssd130x.h ****         else
 1127              		.loc 9 244 48 view .LVU227
 1128 000c 4FF0010C 		mov	ip, #1
 244:../../libdaisy/src/dev/oled_ssd130x.h ****         else
 1129              		.loc 9 244 54 view .LVU228
 1130 0010 02F00702 		and	r2, r2, #7
 1131              	.LVL82:
 244:../../libdaisy/src/dev/oled_ssd130x.h ****         else
 1132              		.loc 9 244 42 view .LVU229
 1133 0014 01EBC313 		add	r3, r1, r3, lsl #7
 244:../../libdaisy/src/dev/oled_ssd130x.h ****         else
 1134              		.loc 9 244 48 view .LVU230
 1135 0018 0CFA02F2 		lsl	r2, ip, r2
 244:../../libdaisy/src/dev/oled_ssd130x.h ****         else
 1136              		.loc 9 244 42 view .LVU231
 1137 001c C118     		adds	r1, r0, r3
 1138              	.LVL83:
 244:../../libdaisy/src/dev/oled_ssd130x.h ****         else
 1139              		.loc 9 244 42 view .LVU232
 1140 001e 0B7D     		ldrb	r3, [r1, #20]	@ zero_extendqisi2
 1141 0020 1A43     		orrs	r2, r2, r3
 1142 0022 0A75     		strb	r2, [r1, #20]
 1143 0024 7047     		bx	lr
 1144              	.LVL84:
 1145              	.L82:
 1146              	.LBB375:
 1147              	.LBI375:
 239:../../libdaisy/src/dev/oled_ssd130x.h ****     {
 1148              		.loc 9 239 10 is_stmt 1 view .LVU233
 1149              	.LBB376:
 246:../../libdaisy/src/dev/oled_ssd130x.h ****     }
 1150              		.loc 9 246 28 is_stmt 0 view .LVU234
 1151 0026 D308     		lsrs	r3, r2, #3
 1152              	.LVL85:
 246:../../libdaisy/src/dev/oled_ssd130x.h ****     }
 1153              		.loc 9 246 49 view .LVU235
 1154 0028 4FF0010C 		mov	ip, #1
 246:../../libdaisy/src/dev/oled_ssd130x.h ****     }
 1155              		.loc 9 246 55 view .LVU236
 1156 002c 02F00702 		and	r2, r2, #7
 1157              	.LVL86:
 246:../../libdaisy/src/dev/oled_ssd130x.h ****     }
 1158              		.loc 9 246 42 view .LVU237
 1159 0030 01EBC313 		add	r3, r1, r3, lsl #7
 246:../../libdaisy/src/dev/oled_ssd130x.h ****     }
 1160              		.loc 9 246 49 view .LVU238
ARM GAS  C:\Users\VINCIU~1\AppData\Local\Temp\ccNNq0o9.s 			page 44


 1161 0034 0CFA02FC 		lsl	ip, ip, r2
 246:../../libdaisy/src/dev/oled_ssd130x.h ****     }
 1162              		.loc 9 246 42 view .LVU239
 1163 0038 C118     		adds	r1, r0, r3
 1164              	.LVL87:
 246:../../libdaisy/src/dev/oled_ssd130x.h ****     }
 1165              		.loc 9 246 42 view .LVU240
 1166 003a 0A7D     		ldrb	r2, [r1, #20]	@ zero_extendqisi2
 1167 003c 22EA0C02 		bic	r2, r2, ip
 1168 0040 0A75     		strb	r2, [r1, #20]
 1169              	.LVL88:
 1170              	.L80:
 246:../../libdaisy/src/dev/oled_ssd130x.h ****     }
 1171              		.loc 9 246 42 view .LVU241
 1172              	.LBE376:
 1173              	.LBE375:
 1174              	.LBE374:
 1175              	.LBE373:
  44:../../libdaisy/src/hid/disp/oled_display.h **** 
 1176              		.loc 7 44 5 view .LVU242
 1177 0042 7047     		bx	lr
 1178              		.cfi_endproc
 1179              	.LFE4627:
 1181              		.section	.text._ZN5daisy25OneBitGraphicsDisplayImplINS_11OledDisplayINS_13SSD130xDriverILj128ELj64
 1182              		.align	1
 1183              		.p2align 2,,3
 1184              		.weak	_ZN5daisy25OneBitGraphicsDisplayImplINS_11OledDisplayINS_13SSD130xDriverILj128ELj64ENS_24SSD
 1185              		.syntax unified
 1186              		.thumb
 1187              		.thumb_func
 1188              		.fpu fpv5-d16
 1190              	_ZN5daisy25OneBitGraphicsDisplayImplINS_11OledDisplayINS_13SSD130xDriverILj128ELj64ENS_24SSD130x4Wi
 1191              	.LVL89:
 1192              	.LFB4628:
 181:../../libdaisy/src/hid/disp/display.h ****                   uint_fast8_t y1,
 1193              		.loc 8 181 10 is_stmt 1 view -0
 1194              		.cfi_startproc
 1195              		@ args = 8, pretend = 0, frame = 8
 1196              		@ frame_needed = 0, uses_anonymous_args = 0
 181:../../libdaisy/src/hid/disp/display.h ****                   uint_fast8_t y1,
 1197              		.loc 8 181 10 is_stmt 0 view .LVU244
 1198 0000 2DE9F04F 		push	{r4, r5, r6, r7, r8, r9, r10, fp, lr}
 1199              		.cfi_def_cfa_offset 36
 1200              		.cfi_offset 4, -36
 1201              		.cfi_offset 5, -32
 1202              		.cfi_offset 6, -28
 1203              		.cfi_offset 7, -24
 1204              		.cfi_offset 8, -20
 1205              		.cfi_offset 9, -16
 1206              		.cfi_offset 10, -12
 1207              		.cfi_offset 11, -8
 1208              		.cfi_offset 14, -4
 1209 0004 83B0     		sub	sp, sp, #12
 1210              		.cfi_def_cfa_offset 48
 187:../../libdaisy/src/hid/disp/display.h ****         int_fast16_t deltaY = abs((int_fast16_t)y2 - (int_fast16_t)y1);
 1211              		.loc 8 187 52 view .LVU245
 1212 0006 5C1A     		subs	r4, r3, r1
ARM GAS  C:\Users\VINCIU~1\AppData\Local\Temp\ccNNq0o9.s 			page 45


 181:../../libdaisy/src/hid/disp/display.h ****                   uint_fast8_t y1,
 1213              		.loc 8 181 10 view .LVU246
 1214 0008 0C9E     		ldr	r6, [sp, #48]
 187:../../libdaisy/src/hid/disp/display.h ****         int_fast16_t deltaY = abs((int_fast16_t)y2 - (int_fast16_t)y1);
 1215              		.loc 8 187 22 view .LVU247
 1216 000a 002C     		cmp	r4, #0
 181:../../libdaisy/src/hid/disp/display.h ****                   uint_fast8_t y1,
 1217              		.loc 8 181 10 view .LVU248
 1218 000c 9DF83490 		ldrb	r9, [sp, #52]	@ zero_extendqisi2
 188:../../libdaisy/src/hid/disp/display.h ****         int_fast16_t signX  = ((x1 < x2) ? 1 : -1);
 1219              		.loc 8 188 52 view .LVU249
 1220 0010 A6EB0208 		sub	r8, r6, r2
 187:../../libdaisy/src/hid/disp/display.h ****         int_fast16_t deltaY = abs((int_fast16_t)y2 - (int_fast16_t)y1);
 1221              		.loc 8 187 22 view .LVU250
 1222 0014 B8BF     		it	lt
 1223 0016 6442     		rsblt	r4, r4, #0
 1224              	.LVL90:
 188:../../libdaisy/src/hid/disp/display.h ****         int_fast16_t signX  = ((x1 < x2) ? 1 : -1);
 1225              		.loc 8 188 22 view .LVU251
 1226 0018 B8F1000F 		cmp	r8, #0
 1227 001c B8BF     		it	lt
 1228 001e C8F10008 		rsblt	r8, r8, #0
 1229              	.LVL91:
 189:../../libdaisy/src/hid/disp/display.h ****         int_fast16_t signY  = ((y1 < y2) ? 1 : -1);
 1230              		.loc 8 189 42 view .LVU252
 1231 0022 8B42     		cmp	r3, r1
 1232 0024 8CBF     		ite	hi
 1233 0026 4FF0010A 		movhi	r10, #1
 1234 002a 4FF0FF3A 		movls	r10, #-1
 1235              	.LVL92:
 190:../../libdaisy/src/hid/disp/display.h ****         int_fast16_t error  = deltaX - deltaY;
 1236              		.loc 8 190 42 view .LVU253
 1237 002e 9642     		cmp	r6, r2
 191:../../libdaisy/src/hid/disp/display.h ****         int_fast16_t error2;
 1238              		.loc 8 191 22 view .LVU254
 1239 0030 A4EB080C 		sub	ip, r4, r8
 190:../../libdaisy/src/hid/disp/display.h ****         int_fast16_t error  = deltaX - deltaY;
 1240              		.loc 8 190 42 view .LVU255
 1241 0034 51D8     		bhi	.L85
 1242              	.LVL93:
 1243              	.LBB393:
 1244              	.LBI393:
  41:../../libdaisy/src/hid/disp/oled_display.h ****     {
 1245              		.loc 7 41 10 is_stmt 1 discriminator 4 view .LVU256
 1246              	.LBB394:
 1247              	.LBI394:
 239:../../libdaisy/src/dev/oled_ssd130x.h ****     {
 1248              		.loc 9 239 10 discriminator 4 view .LVU257
 1249              	.LBE394:
 1250              	.LBE393:
 190:../../libdaisy/src/hid/disp/display.h ****         int_fast16_t error  = deltaX - deltaY;
 1251              		.loc 8 190 42 is_stmt 0 discriminator 4 view .LVU258
 1252 0036 4FF0FF35 		mov	r5, #-1
 1253              	.LBB410:
 1254              	.LBB404:
 1255              	.LBB395:
 241:../../libdaisy/src/dev/oled_ssd130x.h ****             return;
ARM GAS  C:\Users\VINCIU~1\AppData\Local\Temp\ccNNq0o9.s 			page 46


 1256              		.loc 9 241 9 discriminator 4 view .LVU259
 1257 003a 7F2B     		cmp	r3, #127
 1258              	.LBE395:
 1259              	.LBE404:
 1260              	.LBE410:
 190:../../libdaisy/src/hid/disp/display.h ****         int_fast16_t error  = deltaX - deltaY;
 1261              		.loc 8 190 42 discriminator 4 view .LVU260
 1262 003c 0195     		str	r5, [sp, #4]
 1263              	.LBB411:
 1264              	.LBB405:
 1265              	.LBB400:
 241:../../libdaisy/src/dev/oled_ssd130x.h ****             return;
 1266              		.loc 9 241 9 discriminator 4 view .LVU261
 1267 003e 12D8     		bhi	.L86
 1268 0040 3F2E     		cmp	r6, #63
 1269 0042 10D8     		bhi	.L86
 1270              	.LVL94:
 1271              	.L97:
 244:../../libdaisy/src/dev/oled_ssd130x.h ****         else
 1272              		.loc 9 244 28 view .LVU262
 1273 0044 F508     		lsrs	r5, r6, #3
 244:../../libdaisy/src/dev/oled_ssd130x.h ****         else
 1274              		.loc 9 244 54 view .LVU263
 1275 0046 06F0070E 		and	lr, r6, #7
 244:../../libdaisy/src/dev/oled_ssd130x.h ****         else
 1276              		.loc 9 244 48 view .LVU264
 1277 004a 0127     		movs	r7, #1
 244:../../libdaisy/src/dev/oled_ssd130x.h ****         else
 1278              		.loc 9 244 42 view .LVU265
 1279 004c 03EBC515 		add	r5, r3, r5, lsl #7
 1280 0050 0544     		add	r5, r5, r0
 243:../../libdaisy/src/dev/oled_ssd130x.h ****             buffer_[x + (y / 8) * width] |= (1 << (y % 8));
 1281              		.loc 9 243 9 view .LVU266
 1282 0052 B9F1000F 		cmp	r9, #0
 1283 0056 47D0     		beq	.L87
 244:../../libdaisy/src/dev/oled_ssd130x.h ****         else
 1284              		.loc 9 244 48 view .LVU267
 1285 0058 07FA0EF7 		lsl	r7, r7, lr
 244:../../libdaisy/src/dev/oled_ssd130x.h ****         else
 1286              		.loc 9 244 42 view .LVU268
 1287 005c 95F814E0 		ldrb	lr, [r5, #20]	@ zero_extendqisi2
 1288 0060 47EA0E07 		orr	r7, r7, lr
 1289 0064 2F75     		strb	r7, [r5, #20]
 1290              	.LVL95:
 1291              	.L86:
 244:../../libdaisy/src/dev/oled_ssd130x.h ****         else
 1292              		.loc 9 244 42 view .LVU269
 1293              	.LBE400:
 1294              	.LBE405:
 1295              	.LBE411:
 199:../../libdaisy/src/hid/disp/display.h ****         {
 1296              		.loc 8 199 26 is_stmt 1 view .LVU270
 1297 0066 9642     		cmp	r6, r2
 1298 0068 01D1     		bne	.L90
 1299              	.L109:
 199:../../libdaisy/src/hid/disp/display.h ****         {
 1300              		.loc 8 199 26 is_stmt 0 view .LVU271
ARM GAS  C:\Users\VINCIU~1\AppData\Local\Temp\ccNNq0o9.s 			page 47


 1301 006a 8B42     		cmp	r3, r1
 1302 006c 29D0     		beq	.L83
 1303              	.L90:
 1304              	.LVL96:
 203:../../libdaisy/src/hid/disp/display.h ****             {
 1305              		.loc 8 203 23 view .LVU272
 1306 006e C8F10007 		rsb	r7, r8, #0
 1307              	.L92:
 1308              	.LVL97:
 1309              	.LBB412:
 1310              	.LBI412:
  41:../../libdaisy/src/hid/disp/oled_display.h ****     {
 1311              		.loc 7 41 10 is_stmt 1 view .LVU273
 1312              	.LBB413:
 1313              	.LBI413:
 239:../../libdaisy/src/dev/oled_ssd130x.h ****     {
 1314              		.loc 9 239 10 view .LVU274
 1315              	.LBB414:
 241:../../libdaisy/src/dev/oled_ssd130x.h ****             return;
 1316              		.loc 9 241 9 is_stmt 0 view .LVU275
 1317 0072 7F29     		cmp	r1, #127
 1318 0074 14D8     		bhi	.L93
 1319 0076 3F2A     		cmp	r2, #63
 1320 0078 12D8     		bhi	.L93
 244:../../libdaisy/src/dev/oled_ssd130x.h ****         else
 1321              		.loc 9 244 28 view .LVU276
 1322 007a D508     		lsrs	r5, r2, #3
 244:../../libdaisy/src/dev/oled_ssd130x.h ****         else
 1323              		.loc 9 244 54 view .LVU277
 1324 007c 02F0070B 		and	fp, r2, #7
 244:../../libdaisy/src/dev/oled_ssd130x.h ****         else
 1325              		.loc 9 244 48 view .LVU278
 1326 0080 4FF0010E 		mov	lr, #1
 244:../../libdaisy/src/dev/oled_ssd130x.h ****         else
 1327              		.loc 9 244 42 view .LVU279
 1328 0084 01EBC515 		add	r5, r1, r5, lsl #7
 1329 0088 0544     		add	r5, r5, r0
 243:../../libdaisy/src/dev/oled_ssd130x.h ****             buffer_[x + (y / 8) * width] |= (1 << (y % 8));
 1330              		.loc 9 243 9 view .LVU280
 1331 008a B9F1000F 		cmp	r9, #0
 1332 008e 1BD0     		beq	.L94
 244:../../libdaisy/src/dev/oled_ssd130x.h ****         else
 1333              		.loc 9 244 48 view .LVU281
 1334 0090 0EFA0BFE 		lsl	lr, lr, fp
 244:../../libdaisy/src/dev/oled_ssd130x.h ****         else
 1335              		.loc 9 244 42 view .LVU282
 1336 0094 95F814B0 		ldrb	fp, [r5, #20]	@ zero_extendqisi2
 1337 0098 4EEA0B0E 		orr	lr, lr, fp
 1338 009c 85F814E0 		strb	lr, [r5, #20]
 1339              	.L93:
 1340              	.LVL98:
 244:../../libdaisy/src/dev/oled_ssd130x.h ****         else
 1341              		.loc 9 244 42 view .LVU283
 1342              	.LBE414:
 1343              	.LBE413:
 1344              	.LBE412:
 203:../../libdaisy/src/hid/disp/display.h ****             {
ARM GAS  C:\Users\VINCIU~1\AppData\Local\Temp\ccNNq0o9.s 			page 48


 1345              		.loc 8 203 13 view .LVU284
 1346 00a0 B7EB4C0F 		cmp	r7, ip, lsl #1
 202:../../libdaisy/src/hid/disp/display.h ****             if(error2 > -deltaY)
 1347              		.loc 8 202 20 view .LVU285
 1348 00a4 4FEA4C05 		lsl	r5, ip, #1
 1349              	.LVL99:
 203:../../libdaisy/src/hid/disp/display.h ****             {
 1350              		.loc 8 203 13 view .LVU286
 1351 00a8 02DA     		bge	.L95
 205:../../libdaisy/src/hid/disp/display.h ****                 x1 += signX;
 1352              		.loc 8 205 23 view .LVU287
 1353 00aa ACEB080C 		sub	ip, ip, r8
 1354              	.LVL100:
 206:../../libdaisy/src/hid/disp/display.h ****             }
 1355              		.loc 8 206 20 view .LVU288
 1356 00ae 5144     		add	r1, r1, r10
 1357              	.LVL101:
 1358              	.L95:
 209:../../libdaisy/src/hid/disp/display.h ****             {
 1359              		.loc 8 209 13 view .LVU289
 1360 00b0 AC42     		cmp	r4, r5
 1361 00b2 02DD     		ble	.L96
 212:../../libdaisy/src/hid/disp/display.h ****             }
 1362              		.loc 8 212 20 view .LVU290
 1363 00b4 019D     		ldr	r5, [sp, #4]
 1364              	.LVL102:
 211:../../libdaisy/src/hid/disp/display.h ****                 y1 += signY;
 1365              		.loc 8 211 23 view .LVU291
 1366 00b6 A444     		add	ip, ip, r4
 1367              	.LVL103:
 212:../../libdaisy/src/hid/disp/display.h ****             }
 1368              		.loc 8 212 20 view .LVU292
 1369 00b8 2A44     		add	r2, r2, r5
 1370              	.LVL104:
 1371              	.L96:
 199:../../libdaisy/src/hid/disp/display.h ****         {
 1372              		.loc 8 199 26 is_stmt 1 view .LVU293
 1373 00ba 9942     		cmp	r1, r3
 1374 00bc D9D1     		bne	.L92
 199:../../libdaisy/src/hid/disp/display.h ****         {
 1375              		.loc 8 199 26 is_stmt 0 view .LVU294
 1376 00be 9642     		cmp	r6, r2
 1377 00c0 D7D1     		bne	.L92
 1378              	.L83:
 215:../../libdaisy/src/hid/disp/display.h **** 
 1379              		.loc 8 215 5 view .LVU295
 1380 00c2 03B0     		add	sp, sp, #12
 1381              		.cfi_remember_state
 1382              		.cfi_def_cfa_offset 36
 1383              		@ sp needed
 1384 00c4 BDE8F08F 		pop	{r4, r5, r6, r7, r8, r9, r10, fp, pc}
 1385              	.LVL105:
 1386              	.L94:
 1387              		.cfi_restore_state
 1388              	.LBB419:
 1389              	.LBB418:
 1390              	.LBB417:
ARM GAS  C:\Users\VINCIU~1\AppData\Local\Temp\ccNNq0o9.s 			page 49


 1391              	.LBB415:
 1392              	.LBI415:
 239:../../libdaisy/src/dev/oled_ssd130x.h ****     {
 1393              		.loc 9 239 10 is_stmt 1 view .LVU296
 1394              	.LBB416:
 246:../../libdaisy/src/dev/oled_ssd130x.h ****     }
 1395              		.loc 9 246 49 is_stmt 0 view .LVU297
 1396 00c8 0EFA0BFB 		lsl	fp, lr, fp
 246:../../libdaisy/src/dev/oled_ssd130x.h ****     }
 1397              		.loc 9 246 42 view .LVU298
 1398 00cc 95F814E0 		ldrb	lr, [r5, #20]	@ zero_extendqisi2
 1399 00d0 2EEA0B0E 		bic	lr, lr, fp
 1400 00d4 85F814E0 		strb	lr, [r5, #20]
 1401 00d8 E2E7     		b	.L93
 1402              	.LVL106:
 1403              	.L85:
 246:../../libdaisy/src/dev/oled_ssd130x.h ****     }
 1404              		.loc 9 246 42 view .LVU299
 1405              	.LBE416:
 1406              	.LBE415:
 1407              	.LBE417:
 1408              	.LBE418:
 1409              	.LBE419:
 1410              	.LBB420:
  41:../../libdaisy/src/hid/disp/oled_display.h ****     {
 1411              		.loc 7 41 10 is_stmt 1 view .LVU300
 1412              	.LBB406:
 239:../../libdaisy/src/dev/oled_ssd130x.h ****     {
 1413              		.loc 9 239 10 view .LVU301
 1414              	.LBE406:
 1415              	.LBE420:
 190:../../libdaisy/src/hid/disp/display.h ****         int_fast16_t error  = deltaX - deltaY;
 1416              		.loc 8 190 42 is_stmt 0 view .LVU302
 1417 00da 0125     		movs	r5, #1
 1418              	.LBB421:
 1419              	.LBB407:
 1420              	.LBB401:
 241:../../libdaisy/src/dev/oled_ssd130x.h ****             return;
 1421              		.loc 9 241 9 view .LVU303
 1422 00dc 7F2B     		cmp	r3, #127
 1423              	.LBE401:
 1424              	.LBE407:
 1425              	.LBE421:
 190:../../libdaisy/src/hid/disp/display.h ****         int_fast16_t error  = deltaX - deltaY;
 1426              		.loc 8 190 42 view .LVU304
 1427 00de 0195     		str	r5, [sp, #4]
 1428              	.LBB422:
 1429              	.LBB408:
 1430              	.LBB402:
 241:../../libdaisy/src/dev/oled_ssd130x.h ****             return;
 1431              		.loc 9 241 9 view .LVU305
 1432 00e0 C5D8     		bhi	.L90
 1433 00e2 3F2E     		cmp	r6, #63
 1434 00e4 AED9     		bls	.L97
 1435 00e6 C2E7     		b	.L90
 1436              	.LVL107:
 1437              	.L87:
ARM GAS  C:\Users\VINCIU~1\AppData\Local\Temp\ccNNq0o9.s 			page 50


 1438              	.LBB396:
 1439              	.LBI396:
 239:../../libdaisy/src/dev/oled_ssd130x.h ****     {
 1440              		.loc 9 239 10 is_stmt 1 view .LVU306
 1441              	.LBB397:
 246:../../libdaisy/src/dev/oled_ssd130x.h ****     }
 1442              		.loc 9 246 49 is_stmt 0 view .LVU307
 1443 00e8 07FA0EFE 		lsl	lr, r7, lr
 246:../../libdaisy/src/dev/oled_ssd130x.h ****     }
 1444              		.loc 9 246 42 view .LVU308
 1445 00ec 2F7D     		ldrb	r7, [r5, #20]	@ zero_extendqisi2
 1446              	.LBE397:
 1447              	.LBE396:
 1448              	.LBE402:
 1449              	.LBE408:
 1450              	.LBE422:
 199:../../libdaisy/src/hid/disp/display.h ****         {
 1451              		.loc 8 199 26 view .LVU309
 1452 00ee 9642     		cmp	r6, r2
 1453              	.LBB423:
 1454              	.LBB409:
 1455              	.LBB403:
 1456              	.LBB399:
 1457              	.LBB398:
 246:../../libdaisy/src/dev/oled_ssd130x.h ****     }
 1458              		.loc 9 246 42 view .LVU310
 1459 00f0 27EA0E07 		bic	r7, r7, lr
 1460 00f4 2F75     		strb	r7, [r5, #20]
 1461              	.LVL108:
 246:../../libdaisy/src/dev/oled_ssd130x.h ****     }
 1462              		.loc 9 246 42 view .LVU311
 1463              	.LBE398:
 1464              	.LBE399:
 1465              	.LBE403:
 1466              	.LBE409:
 1467              	.LBE423:
 199:../../libdaisy/src/hid/disp/display.h ****         {
 1468              		.loc 8 199 26 is_stmt 1 view .LVU312
 1469 00f6 B8D0     		beq	.L109
 1470 00f8 B9E7     		b	.L90
 1471              		.cfi_endproc
 1472              	.LFE4628:
 1474 00fa 00BF     		.section	.text._ZN5daisy25OneBitGraphicsDisplayImplINS_11OledDisplayINS_13SSD130xDriverILj128ELj64
 1475              		.align	1
 1476              		.p2align 2,,3
 1477              		.weak	_ZN5daisy25OneBitGraphicsDisplayImplINS_11OledDisplayINS_13SSD130xDriverILj128ELj64ENS_24SSD
 1478              		.syntax unified
 1479              		.thumb
 1480              		.thumb_func
 1481              		.fpu fpv5-d16
 1483              	_ZN5daisy25OneBitGraphicsDisplayImplINS_11OledDisplayINS_13SSD130xDriverILj128ELj64ENS_24SSD130x4Wi
 1484              	.LVL109:
 1485              	.LFB4630:
 243:../../libdaisy/src/hid/disp/display.h ****                  uint_fast8_t y,
 1486              		.loc 8 243 10 view -0
 1487              		.cfi_startproc
 1488              		@ args = 12, pretend = 0, frame = 8
ARM GAS  C:\Users\VINCIU~1\AppData\Local\Temp\ccNNq0o9.s 			page 51


 1489              		@ frame_needed = 0, uses_anonymous_args = 0
 243:../../libdaisy/src/hid/disp/display.h ****                  uint_fast8_t y,
 1490              		.loc 8 243 10 is_stmt 0 view .LVU314
 1491 0000 2DE9F04F 		push	{r4, r5, r6, r7, r8, r9, r10, fp, lr}
 1492              		.cfi_def_cfa_offset 36
 1493              		.cfi_offset 4, -36
 1494              		.cfi_offset 5, -32
 1495              		.cfi_offset 6, -28
 1496              		.cfi_offset 7, -24
 1497              		.cfi_offset 8, -20
 1498              		.cfi_offset 9, -16
 1499              		.cfi_offset 10, -12
 1500              		.cfi_offset 11, -8
 1501              		.cfi_offset 14, -4
 1502 0004 2DED068B 		vpush.64	{d8, d9, d10}
 1503              		.cfi_def_cfa_offset 60
 1504              		.cfi_offset 80, -60
 1505              		.cfi_offset 81, -56
 1506              		.cfi_offset 82, -52
 1507              		.cfi_offset 83, -48
 1508              		.cfi_offset 84, -44
 1509              		.cfi_offset 85, -40
 1510 0008 83B0     		sub	sp, sp, #12
 1511              		.cfi_def_cfa_offset 72
 243:../../libdaisy/src/hid/disp/display.h ****                  uint_fast8_t y,
 1512              		.loc 8 243 10 view .LVU315
 1513 000a 1F46     		mov	r7, r3
 1514 000c 8046     		mov	r8, r0
 1515 000e 0D46     		mov	r5, r1
 1516 0010 9DF85030 		ldrb	r3, [sp, #80]	@ zero_extendqisi2
 1517              	.LVL110:
 243:../../libdaisy/src/hid/disp/display.h ****                  uint_fast8_t y,
 1518              		.loc 8 243 10 view .LVU316
 1519 0014 1646     		mov	r6, r2
 1520 0016 0193     		str	r3, [sp, #4]
 266:../../libdaisy/src/hid/disp/display.h ****         {
 1521              		.loc 8 266 9 view .LVU317
 1522 0018 139B     		ldr	r3, [sp, #76]
 1523 001a 002B     		cmp	r3, #0
 1524 001c C0F22182 		blt	.L111
 273:../../libdaisy/src/hid/disp/display.h **** 
 1525              		.loc 8 273 27 view .LVU318
 1526 0020 129A     		ldr	r2, [sp, #72]
 1527              	.LVL111:
 273:../../libdaisy/src/hid/disp/display.h **** 
 1528              		.loc 8 273 27 view .LVU319
 1529 0022 1344     		add	r3, r3, r2
 1530 0024 06EE103A 		vmov	s12, r3	@ int
 1531              	.LVL112:
 1532              	.L112:
 272:../../libdaisy/src/hid/disp/display.h ****         end_angle_rad   = deg2rad(start_angle + sweep);
 1533              		.loc 8 272 27 view .LVU320
 1534 0028 DDED127A 		vldr.32	s15, [sp, #72]	@ int
 273:../../libdaisy/src/hid/disp/display.h **** 
 1535              		.loc 8 273 27 view .LVU321
 1536 002c B8EEC66B 		vcvt.f64.s32	d6, s12
 272:../../libdaisy/src/hid/disp/display.h ****         end_angle_rad   = deg2rad(start_angle + sweep);
ARM GAS  C:\Users\VINCIU~1\AppData\Local\Temp\ccNNq0o9.s 			page 52


 1537              		.loc 8 272 27 view .LVU322
 1538 0030 9FEDCD4B 		vldr.64	d4, .L187
 1539 0034 B8EEE77B 		vcvt.f64.s32	d7, s15
 1540 0038 9FEDCD5B 		vldr.64	d5, .L187+8
 1541 003c 27EE047B 		vmul.f64	d7, d7, d4
 273:../../libdaisy/src/hid/disp/display.h **** 
 1542              		.loc 8 273 27 view .LVU323
 1543 0040 26EE046B 		vmul.f64	d6, d6, d4
 272:../../libdaisy/src/hid/disp/display.h ****         end_angle_rad   = deg2rad(start_angle + sweep);
 1544              		.loc 8 272 27 view .LVU324
 1545 0044 87EE050B 		vdiv.f64	d0, d7, d5
 273:../../libdaisy/src/hid/disp/display.h **** 
 1546              		.loc 8 273 27 view .LVU325
 1547 0048 86EE05AB 		vdiv.f64	d10, d6, d5
 272:../../libdaisy/src/hid/disp/display.h ****         end_angle_rad   = deg2rad(start_angle + sweep);
 1548              		.loc 8 272 25 view .LVU326
 1549 004c F7EEC08B 		vcvt.f32.f64	s17, d0
 1550              	.LVL113:
 1551              	.LBB456:
 1552              	.LBB457:
 1553              		.file 12 "c:\\users\\vin\355cius\\documents\\daisytoolchain-0.3.1\\windows\\arm-none-eabi\\include
   1:c:\users\vincius\documents\daisytoolchain-0.3.1\windows\arm-none-eabi\include\c++\10.2.1\cmath **** // -*- C++ -*- C forwarding header.
   2:c:\users\vincius\documents\daisytoolchain-0.3.1\windows\arm-none-eabi\include\c++\10.2.1\cmath **** 
   3:c:\users\vincius\documents\daisytoolchain-0.3.1\windows\arm-none-eabi\include\c++\10.2.1\cmath **** // Copyright (C) 1997-2020 Free Software Foundation, Inc.
   4:c:\users\vincius\documents\daisytoolchain-0.3.1\windows\arm-none-eabi\include\c++\10.2.1\cmath **** //
   5:c:\users\vincius\documents\daisytoolchain-0.3.1\windows\arm-none-eabi\include\c++\10.2.1\cmath **** // This file is part of the GNU ISO C++ Library.  This library is free
   6:c:\users\vincius\documents\daisytoolchain-0.3.1\windows\arm-none-eabi\include\c++\10.2.1\cmath **** // software; you can redistribute it and/or modify it under the
   7:c:\users\vincius\documents\daisytoolchain-0.3.1\windows\arm-none-eabi\include\c++\10.2.1\cmath **** // terms of the GNU General Public License as published by the
   8:c:\users\vincius\documents\daisytoolchain-0.3.1\windows\arm-none-eabi\include\c++\10.2.1\cmath **** // Free Software Foundation; either version 3, or (at your option)
   9:c:\users\vincius\documents\daisytoolchain-0.3.1\windows\arm-none-eabi\include\c++\10.2.1\cmath **** // any later version.
  10:c:\users\vincius\documents\daisytoolchain-0.3.1\windows\arm-none-eabi\include\c++\10.2.1\cmath **** 
  11:c:\users\vincius\documents\daisytoolchain-0.3.1\windows\arm-none-eabi\include\c++\10.2.1\cmath **** // This library is distributed in the hope that it will be useful,
  12:c:\users\vincius\documents\daisytoolchain-0.3.1\windows\arm-none-eabi\include\c++\10.2.1\cmath **** // but WITHOUT ANY WARRANTY; without even the implied warranty of
  13:c:\users\vincius\documents\daisytoolchain-0.3.1\windows\arm-none-eabi\include\c++\10.2.1\cmath **** // MERCHANTABILITY or FITNESS FOR A PARTICULAR PURPOSE.  See the
  14:c:\users\vincius\documents\daisytoolchain-0.3.1\windows\arm-none-eabi\include\c++\10.2.1\cmath **** // GNU General Public License for more details.
  15:c:\users\vincius\documents\daisytoolchain-0.3.1\windows\arm-none-eabi\include\c++\10.2.1\cmath **** 
  16:c:\users\vincius\documents\daisytoolchain-0.3.1\windows\arm-none-eabi\include\c++\10.2.1\cmath **** // Under Section 7 of GPL version 3, you are granted additional
  17:c:\users\vincius\documents\daisytoolchain-0.3.1\windows\arm-none-eabi\include\c++\10.2.1\cmath **** // permissions described in the GCC Runtime Library Exception, version
  18:c:\users\vincius\documents\daisytoolchain-0.3.1\windows\arm-none-eabi\include\c++\10.2.1\cmath **** // 3.1, as published by the Free Software Foundation.
  19:c:\users\vincius\documents\daisytoolchain-0.3.1\windows\arm-none-eabi\include\c++\10.2.1\cmath **** 
  20:c:\users\vincius\documents\daisytoolchain-0.3.1\windows\arm-none-eabi\include\c++\10.2.1\cmath **** // You should have received a copy of the GNU General Public License and
  21:c:\users\vincius\documents\daisytoolchain-0.3.1\windows\arm-none-eabi\include\c++\10.2.1\cmath **** // a copy of the GCC Runtime Library Exception along with this program;
  22:c:\users\vincius\documents\daisytoolchain-0.3.1\windows\arm-none-eabi\include\c++\10.2.1\cmath **** // see the files COPYING3 and COPYING.RUNTIME respectively.  If not, see
  23:c:\users\vincius\documents\daisytoolchain-0.3.1\windows\arm-none-eabi\include\c++\10.2.1\cmath **** // <http://www.gnu.org/licenses/>.
  24:c:\users\vincius\documents\daisytoolchain-0.3.1\windows\arm-none-eabi\include\c++\10.2.1\cmath **** 
  25:c:\users\vincius\documents\daisytoolchain-0.3.1\windows\arm-none-eabi\include\c++\10.2.1\cmath **** /** @file include/cmath
  26:c:\users\vincius\documents\daisytoolchain-0.3.1\windows\arm-none-eabi\include\c++\10.2.1\cmath ****  *  This is a Standard C++ Library file.  You should @c \#include this file
  27:c:\users\vincius\documents\daisytoolchain-0.3.1\windows\arm-none-eabi\include\c++\10.2.1\cmath ****  *  in your programs, rather than any of the @a *.h implementation files.
  28:c:\users\vincius\documents\daisytoolchain-0.3.1\windows\arm-none-eabi\include\c++\10.2.1\cmath ****  *
  29:c:\users\vincius\documents\daisytoolchain-0.3.1\windows\arm-none-eabi\include\c++\10.2.1\cmath ****  *  This is the C++ version of the Standard C Library header @c math.h,
  30:c:\users\vincius\documents\daisytoolchain-0.3.1\windows\arm-none-eabi\include\c++\10.2.1\cmath ****  *  and its contents are (mostly) the same as that header, but are all
  31:c:\users\vincius\documents\daisytoolchain-0.3.1\windows\arm-none-eabi\include\c++\10.2.1\cmath ****  *  contained in the namespace @c std (except for names which are defined
  32:c:\users\vincius\documents\daisytoolchain-0.3.1\windows\arm-none-eabi\include\c++\10.2.1\cmath ****  *  as macros in C).
  33:c:\users\vincius\documents\daisytoolchain-0.3.1\windows\arm-none-eabi\include\c++\10.2.1\cmath ****  */
  34:c:\users\vincius\documents\daisytoolchain-0.3.1\windows\arm-none-eabi\include\c++\10.2.1\cmath **** 
  35:c:\users\vincius\documents\daisytoolchain-0.3.1\windows\arm-none-eabi\include\c++\10.2.1\cmath **** //
  36:c:\users\vincius\documents\daisytoolchain-0.3.1\windows\arm-none-eabi\include\c++\10.2.1\cmath **** // ISO C++ 14882: 26.5  C library
ARM GAS  C:\Users\VINCIU~1\AppData\Local\Temp\ccNNq0o9.s 			page 53


  37:c:\users\vincius\documents\daisytoolchain-0.3.1\windows\arm-none-eabi\include\c++\10.2.1\cmath **** //
  38:c:\users\vincius\documents\daisytoolchain-0.3.1\windows\arm-none-eabi\include\c++\10.2.1\cmath **** 
  39:c:\users\vincius\documents\daisytoolchain-0.3.1\windows\arm-none-eabi\include\c++\10.2.1\cmath **** #pragma GCC system_header
  40:c:\users\vincius\documents\daisytoolchain-0.3.1\windows\arm-none-eabi\include\c++\10.2.1\cmath **** 
  41:c:\users\vincius\documents\daisytoolchain-0.3.1\windows\arm-none-eabi\include\c++\10.2.1\cmath **** #include <bits/c++config.h>
  42:c:\users\vincius\documents\daisytoolchain-0.3.1\windows\arm-none-eabi\include\c++\10.2.1\cmath **** #include <bits/cpp_type_traits.h>
  43:c:\users\vincius\documents\daisytoolchain-0.3.1\windows\arm-none-eabi\include\c++\10.2.1\cmath **** #include <ext/type_traits.h>
  44:c:\users\vincius\documents\daisytoolchain-0.3.1\windows\arm-none-eabi\include\c++\10.2.1\cmath **** #define _GLIBCXX_INCLUDE_NEXT_C_HEADERS
  45:c:\users\vincius\documents\daisytoolchain-0.3.1\windows\arm-none-eabi\include\c++\10.2.1\cmath **** #include_next <math.h>
  46:c:\users\vincius\documents\daisytoolchain-0.3.1\windows\arm-none-eabi\include\c++\10.2.1\cmath **** #undef _GLIBCXX_INCLUDE_NEXT_C_HEADERS
  47:c:\users\vincius\documents\daisytoolchain-0.3.1\windows\arm-none-eabi\include\c++\10.2.1\cmath **** #include <bits/std_abs.h>
  48:c:\users\vincius\documents\daisytoolchain-0.3.1\windows\arm-none-eabi\include\c++\10.2.1\cmath **** 
  49:c:\users\vincius\documents\daisytoolchain-0.3.1\windows\arm-none-eabi\include\c++\10.2.1\cmath **** #ifndef _GLIBCXX_CMATH
  50:c:\users\vincius\documents\daisytoolchain-0.3.1\windows\arm-none-eabi\include\c++\10.2.1\cmath **** #define _GLIBCXX_CMATH 1
  51:c:\users\vincius\documents\daisytoolchain-0.3.1\windows\arm-none-eabi\include\c++\10.2.1\cmath **** 
  52:c:\users\vincius\documents\daisytoolchain-0.3.1\windows\arm-none-eabi\include\c++\10.2.1\cmath **** // Get rid of those macros defined in <math.h> in lieu of real functions.
  53:c:\users\vincius\documents\daisytoolchain-0.3.1\windows\arm-none-eabi\include\c++\10.2.1\cmath **** #undef div
  54:c:\users\vincius\documents\daisytoolchain-0.3.1\windows\arm-none-eabi\include\c++\10.2.1\cmath **** #undef acos
  55:c:\users\vincius\documents\daisytoolchain-0.3.1\windows\arm-none-eabi\include\c++\10.2.1\cmath **** #undef asin
  56:c:\users\vincius\documents\daisytoolchain-0.3.1\windows\arm-none-eabi\include\c++\10.2.1\cmath **** #undef atan
  57:c:\users\vincius\documents\daisytoolchain-0.3.1\windows\arm-none-eabi\include\c++\10.2.1\cmath **** #undef atan2
  58:c:\users\vincius\documents\daisytoolchain-0.3.1\windows\arm-none-eabi\include\c++\10.2.1\cmath **** #undef ceil
  59:c:\users\vincius\documents\daisytoolchain-0.3.1\windows\arm-none-eabi\include\c++\10.2.1\cmath **** #undef cos
  60:c:\users\vincius\documents\daisytoolchain-0.3.1\windows\arm-none-eabi\include\c++\10.2.1\cmath **** #undef cosh
  61:c:\users\vincius\documents\daisytoolchain-0.3.1\windows\arm-none-eabi\include\c++\10.2.1\cmath **** #undef exp
  62:c:\users\vincius\documents\daisytoolchain-0.3.1\windows\arm-none-eabi\include\c++\10.2.1\cmath **** #undef fabs
  63:c:\users\vincius\documents\daisytoolchain-0.3.1\windows\arm-none-eabi\include\c++\10.2.1\cmath **** #undef floor
  64:c:\users\vincius\documents\daisytoolchain-0.3.1\windows\arm-none-eabi\include\c++\10.2.1\cmath **** #undef fmod
  65:c:\users\vincius\documents\daisytoolchain-0.3.1\windows\arm-none-eabi\include\c++\10.2.1\cmath **** #undef frexp
  66:c:\users\vincius\documents\daisytoolchain-0.3.1\windows\arm-none-eabi\include\c++\10.2.1\cmath **** #undef ldexp
  67:c:\users\vincius\documents\daisytoolchain-0.3.1\windows\arm-none-eabi\include\c++\10.2.1\cmath **** #undef log
  68:c:\users\vincius\documents\daisytoolchain-0.3.1\windows\arm-none-eabi\include\c++\10.2.1\cmath **** #undef log10
  69:c:\users\vincius\documents\daisytoolchain-0.3.1\windows\arm-none-eabi\include\c++\10.2.1\cmath **** #undef modf
  70:c:\users\vincius\documents\daisytoolchain-0.3.1\windows\arm-none-eabi\include\c++\10.2.1\cmath **** #undef pow
  71:c:\users\vincius\documents\daisytoolchain-0.3.1\windows\arm-none-eabi\include\c++\10.2.1\cmath **** #undef sin
  72:c:\users\vincius\documents\daisytoolchain-0.3.1\windows\arm-none-eabi\include\c++\10.2.1\cmath **** #undef sinh
  73:c:\users\vincius\documents\daisytoolchain-0.3.1\windows\arm-none-eabi\include\c++\10.2.1\cmath **** #undef sqrt
  74:c:\users\vincius\documents\daisytoolchain-0.3.1\windows\arm-none-eabi\include\c++\10.2.1\cmath **** #undef tan
  75:c:\users\vincius\documents\daisytoolchain-0.3.1\windows\arm-none-eabi\include\c++\10.2.1\cmath **** #undef tanh
  76:c:\users\vincius\documents\daisytoolchain-0.3.1\windows\arm-none-eabi\include\c++\10.2.1\cmath **** 
  77:c:\users\vincius\documents\daisytoolchain-0.3.1\windows\arm-none-eabi\include\c++\10.2.1\cmath **** extern "C++"
  78:c:\users\vincius\documents\daisytoolchain-0.3.1\windows\arm-none-eabi\include\c++\10.2.1\cmath **** {
  79:c:\users\vincius\documents\daisytoolchain-0.3.1\windows\arm-none-eabi\include\c++\10.2.1\cmath **** namespace std _GLIBCXX_VISIBILITY(default)
  80:c:\users\vincius\documents\daisytoolchain-0.3.1\windows\arm-none-eabi\include\c++\10.2.1\cmath **** {
  81:c:\users\vincius\documents\daisytoolchain-0.3.1\windows\arm-none-eabi\include\c++\10.2.1\cmath **** _GLIBCXX_BEGIN_NAMESPACE_VERSION
  82:c:\users\vincius\documents\daisytoolchain-0.3.1\windows\arm-none-eabi\include\c++\10.2.1\cmath **** 
  83:c:\users\vincius\documents\daisytoolchain-0.3.1\windows\arm-none-eabi\include\c++\10.2.1\cmath ****   using ::acos;
  84:c:\users\vincius\documents\daisytoolchain-0.3.1\windows\arm-none-eabi\include\c++\10.2.1\cmath **** 
  85:c:\users\vincius\documents\daisytoolchain-0.3.1\windows\arm-none-eabi\include\c++\10.2.1\cmath **** #ifndef __CORRECT_ISO_CPP_MATH_H_PROTO
  86:c:\users\vincius\documents\daisytoolchain-0.3.1\windows\arm-none-eabi\include\c++\10.2.1\cmath ****   inline _GLIBCXX_CONSTEXPR float
  87:c:\users\vincius\documents\daisytoolchain-0.3.1\windows\arm-none-eabi\include\c++\10.2.1\cmath ****   acos(float __x)
  88:c:\users\vincius\documents\daisytoolchain-0.3.1\windows\arm-none-eabi\include\c++\10.2.1\cmath ****   { return __builtin_acosf(__x); }
  89:c:\users\vincius\documents\daisytoolchain-0.3.1\windows\arm-none-eabi\include\c++\10.2.1\cmath **** 
  90:c:\users\vincius\documents\daisytoolchain-0.3.1\windows\arm-none-eabi\include\c++\10.2.1\cmath ****   inline _GLIBCXX_CONSTEXPR long double
  91:c:\users\vincius\documents\daisytoolchain-0.3.1\windows\arm-none-eabi\include\c++\10.2.1\cmath ****   acos(long double __x)
  92:c:\users\vincius\documents\daisytoolchain-0.3.1\windows\arm-none-eabi\include\c++\10.2.1\cmath ****   { return __builtin_acosl(__x); }
  93:c:\users\vincius\documents\daisytoolchain-0.3.1\windows\arm-none-eabi\include\c++\10.2.1\cmath **** #endif
ARM GAS  C:\Users\VINCIU~1\AppData\Local\Temp\ccNNq0o9.s 			page 54


  94:c:\users\vincius\documents\daisytoolchain-0.3.1\windows\arm-none-eabi\include\c++\10.2.1\cmath **** 
  95:c:\users\vincius\documents\daisytoolchain-0.3.1\windows\arm-none-eabi\include\c++\10.2.1\cmath ****   template<typename _Tp>
  96:c:\users\vincius\documents\daisytoolchain-0.3.1\windows\arm-none-eabi\include\c++\10.2.1\cmath ****     inline _GLIBCXX_CONSTEXPR
  97:c:\users\vincius\documents\daisytoolchain-0.3.1\windows\arm-none-eabi\include\c++\10.2.1\cmath ****     typename __gnu_cxx::__enable_if<__is_integer<_Tp>::__value, 
  98:c:\users\vincius\documents\daisytoolchain-0.3.1\windows\arm-none-eabi\include\c++\10.2.1\cmath ****                                     double>::__type
  99:c:\users\vincius\documents\daisytoolchain-0.3.1\windows\arm-none-eabi\include\c++\10.2.1\cmath ****     acos(_Tp __x)
 100:c:\users\vincius\documents\daisytoolchain-0.3.1\windows\arm-none-eabi\include\c++\10.2.1\cmath ****     { return __builtin_acos(__x); }
 101:c:\users\vincius\documents\daisytoolchain-0.3.1\windows\arm-none-eabi\include\c++\10.2.1\cmath **** 
 102:c:\users\vincius\documents\daisytoolchain-0.3.1\windows\arm-none-eabi\include\c++\10.2.1\cmath ****   using ::asin;
 103:c:\users\vincius\documents\daisytoolchain-0.3.1\windows\arm-none-eabi\include\c++\10.2.1\cmath **** 
 104:c:\users\vincius\documents\daisytoolchain-0.3.1\windows\arm-none-eabi\include\c++\10.2.1\cmath **** #ifndef __CORRECT_ISO_CPP_MATH_H_PROTO
 105:c:\users\vincius\documents\daisytoolchain-0.3.1\windows\arm-none-eabi\include\c++\10.2.1\cmath ****   inline _GLIBCXX_CONSTEXPR float
 106:c:\users\vincius\documents\daisytoolchain-0.3.1\windows\arm-none-eabi\include\c++\10.2.1\cmath ****   asin(float __x)
 107:c:\users\vincius\documents\daisytoolchain-0.3.1\windows\arm-none-eabi\include\c++\10.2.1\cmath ****   { return __builtin_asinf(__x); }
 108:c:\users\vincius\documents\daisytoolchain-0.3.1\windows\arm-none-eabi\include\c++\10.2.1\cmath **** 
 109:c:\users\vincius\documents\daisytoolchain-0.3.1\windows\arm-none-eabi\include\c++\10.2.1\cmath ****   inline _GLIBCXX_CONSTEXPR long double
 110:c:\users\vincius\documents\daisytoolchain-0.3.1\windows\arm-none-eabi\include\c++\10.2.1\cmath ****   asin(long double __x)
 111:c:\users\vincius\documents\daisytoolchain-0.3.1\windows\arm-none-eabi\include\c++\10.2.1\cmath ****   { return __builtin_asinl(__x); }
 112:c:\users\vincius\documents\daisytoolchain-0.3.1\windows\arm-none-eabi\include\c++\10.2.1\cmath **** #endif
 113:c:\users\vincius\documents\daisytoolchain-0.3.1\windows\arm-none-eabi\include\c++\10.2.1\cmath **** 
 114:c:\users\vincius\documents\daisytoolchain-0.3.1\windows\arm-none-eabi\include\c++\10.2.1\cmath ****   template<typename _Tp>
 115:c:\users\vincius\documents\daisytoolchain-0.3.1\windows\arm-none-eabi\include\c++\10.2.1\cmath ****     inline _GLIBCXX_CONSTEXPR
 116:c:\users\vincius\documents\daisytoolchain-0.3.1\windows\arm-none-eabi\include\c++\10.2.1\cmath ****     typename __gnu_cxx::__enable_if<__is_integer<_Tp>::__value,
 117:c:\users\vincius\documents\daisytoolchain-0.3.1\windows\arm-none-eabi\include\c++\10.2.1\cmath ****                                     double>::__type
 118:c:\users\vincius\documents\daisytoolchain-0.3.1\windows\arm-none-eabi\include\c++\10.2.1\cmath ****     asin(_Tp __x)
 119:c:\users\vincius\documents\daisytoolchain-0.3.1\windows\arm-none-eabi\include\c++\10.2.1\cmath ****     { return __builtin_asin(__x); }
 120:c:\users\vincius\documents\daisytoolchain-0.3.1\windows\arm-none-eabi\include\c++\10.2.1\cmath **** 
 121:c:\users\vincius\documents\daisytoolchain-0.3.1\windows\arm-none-eabi\include\c++\10.2.1\cmath ****   using ::atan;
 122:c:\users\vincius\documents\daisytoolchain-0.3.1\windows\arm-none-eabi\include\c++\10.2.1\cmath **** 
 123:c:\users\vincius\documents\daisytoolchain-0.3.1\windows\arm-none-eabi\include\c++\10.2.1\cmath **** #ifndef __CORRECT_ISO_CPP_MATH_H_PROTO
 124:c:\users\vincius\documents\daisytoolchain-0.3.1\windows\arm-none-eabi\include\c++\10.2.1\cmath ****   inline _GLIBCXX_CONSTEXPR float
 125:c:\users\vincius\documents\daisytoolchain-0.3.1\windows\arm-none-eabi\include\c++\10.2.1\cmath ****   atan(float __x)
 126:c:\users\vincius\documents\daisytoolchain-0.3.1\windows\arm-none-eabi\include\c++\10.2.1\cmath ****   { return __builtin_atanf(__x); }
 127:c:\users\vincius\documents\daisytoolchain-0.3.1\windows\arm-none-eabi\include\c++\10.2.1\cmath **** 
 128:c:\users\vincius\documents\daisytoolchain-0.3.1\windows\arm-none-eabi\include\c++\10.2.1\cmath ****   inline _GLIBCXX_CONSTEXPR long double
 129:c:\users\vincius\documents\daisytoolchain-0.3.1\windows\arm-none-eabi\include\c++\10.2.1\cmath ****   atan(long double __x)
 130:c:\users\vincius\documents\daisytoolchain-0.3.1\windows\arm-none-eabi\include\c++\10.2.1\cmath ****   { return __builtin_atanl(__x); }
 131:c:\users\vincius\documents\daisytoolchain-0.3.1\windows\arm-none-eabi\include\c++\10.2.1\cmath **** #endif
 132:c:\users\vincius\documents\daisytoolchain-0.3.1\windows\arm-none-eabi\include\c++\10.2.1\cmath **** 
 133:c:\users\vincius\documents\daisytoolchain-0.3.1\windows\arm-none-eabi\include\c++\10.2.1\cmath ****   template<typename _Tp>
 134:c:\users\vincius\documents\daisytoolchain-0.3.1\windows\arm-none-eabi\include\c++\10.2.1\cmath ****     inline _GLIBCXX_CONSTEXPR
 135:c:\users\vincius\documents\daisytoolchain-0.3.1\windows\arm-none-eabi\include\c++\10.2.1\cmath ****     typename __gnu_cxx::__enable_if<__is_integer<_Tp>::__value,
 136:c:\users\vincius\documents\daisytoolchain-0.3.1\windows\arm-none-eabi\include\c++\10.2.1\cmath ****                                     double>::__type
 137:c:\users\vincius\documents\daisytoolchain-0.3.1\windows\arm-none-eabi\include\c++\10.2.1\cmath ****     atan(_Tp __x)
 138:c:\users\vincius\documents\daisytoolchain-0.3.1\windows\arm-none-eabi\include\c++\10.2.1\cmath ****     { return __builtin_atan(__x); }
 139:c:\users\vincius\documents\daisytoolchain-0.3.1\windows\arm-none-eabi\include\c++\10.2.1\cmath **** 
 140:c:\users\vincius\documents\daisytoolchain-0.3.1\windows\arm-none-eabi\include\c++\10.2.1\cmath ****   using ::atan2;
 141:c:\users\vincius\documents\daisytoolchain-0.3.1\windows\arm-none-eabi\include\c++\10.2.1\cmath **** 
 142:c:\users\vincius\documents\daisytoolchain-0.3.1\windows\arm-none-eabi\include\c++\10.2.1\cmath **** #ifndef __CORRECT_ISO_CPP_MATH_H_PROTO
 143:c:\users\vincius\documents\daisytoolchain-0.3.1\windows\arm-none-eabi\include\c++\10.2.1\cmath ****   inline _GLIBCXX_CONSTEXPR float
 144:c:\users\vincius\documents\daisytoolchain-0.3.1\windows\arm-none-eabi\include\c++\10.2.1\cmath ****   atan2(float __y, float __x)
 145:c:\users\vincius\documents\daisytoolchain-0.3.1\windows\arm-none-eabi\include\c++\10.2.1\cmath ****   { return __builtin_atan2f(__y, __x); }
 146:c:\users\vincius\documents\daisytoolchain-0.3.1\windows\arm-none-eabi\include\c++\10.2.1\cmath **** 
 147:c:\users\vincius\documents\daisytoolchain-0.3.1\windows\arm-none-eabi\include\c++\10.2.1\cmath ****   inline _GLIBCXX_CONSTEXPR long double
 148:c:\users\vincius\documents\daisytoolchain-0.3.1\windows\arm-none-eabi\include\c++\10.2.1\cmath ****   atan2(long double __y, long double __x)
 149:c:\users\vincius\documents\daisytoolchain-0.3.1\windows\arm-none-eabi\include\c++\10.2.1\cmath ****   { return __builtin_atan2l(__y, __x); }
 150:c:\users\vincius\documents\daisytoolchain-0.3.1\windows\arm-none-eabi\include\c++\10.2.1\cmath **** #endif
ARM GAS  C:\Users\VINCIU~1\AppData\Local\Temp\ccNNq0o9.s 			page 55


 151:c:\users\vincius\documents\daisytoolchain-0.3.1\windows\arm-none-eabi\include\c++\10.2.1\cmath **** 
 152:c:\users\vincius\documents\daisytoolchain-0.3.1\windows\arm-none-eabi\include\c++\10.2.1\cmath ****   template<typename _Tp, typename _Up>
 153:c:\users\vincius\documents\daisytoolchain-0.3.1\windows\arm-none-eabi\include\c++\10.2.1\cmath ****     inline _GLIBCXX_CONSTEXPR
 154:c:\users\vincius\documents\daisytoolchain-0.3.1\windows\arm-none-eabi\include\c++\10.2.1\cmath ****     typename __gnu_cxx::__promote_2<_Tp, _Up>::__type
 155:c:\users\vincius\documents\daisytoolchain-0.3.1\windows\arm-none-eabi\include\c++\10.2.1\cmath ****     atan2(_Tp __y, _Up __x)
 156:c:\users\vincius\documents\daisytoolchain-0.3.1\windows\arm-none-eabi\include\c++\10.2.1\cmath ****     {
 157:c:\users\vincius\documents\daisytoolchain-0.3.1\windows\arm-none-eabi\include\c++\10.2.1\cmath ****       typedef typename __gnu_cxx::__promote_2<_Tp, _Up>::__type __type;
 158:c:\users\vincius\documents\daisytoolchain-0.3.1\windows\arm-none-eabi\include\c++\10.2.1\cmath ****       return atan2(__type(__y), __type(__x));
 159:c:\users\vincius\documents\daisytoolchain-0.3.1\windows\arm-none-eabi\include\c++\10.2.1\cmath ****     }
 160:c:\users\vincius\documents\daisytoolchain-0.3.1\windows\arm-none-eabi\include\c++\10.2.1\cmath **** 
 161:c:\users\vincius\documents\daisytoolchain-0.3.1\windows\arm-none-eabi\include\c++\10.2.1\cmath ****   using ::ceil;
 162:c:\users\vincius\documents\daisytoolchain-0.3.1\windows\arm-none-eabi\include\c++\10.2.1\cmath **** 
 163:c:\users\vincius\documents\daisytoolchain-0.3.1\windows\arm-none-eabi\include\c++\10.2.1\cmath **** #ifndef __CORRECT_ISO_CPP_MATH_H_PROTO
 164:c:\users\vincius\documents\daisytoolchain-0.3.1\windows\arm-none-eabi\include\c++\10.2.1\cmath ****   inline _GLIBCXX_CONSTEXPR float
 165:c:\users\vincius\documents\daisytoolchain-0.3.1\windows\arm-none-eabi\include\c++\10.2.1\cmath ****   ceil(float __x)
 166:c:\users\vincius\documents\daisytoolchain-0.3.1\windows\arm-none-eabi\include\c++\10.2.1\cmath ****   { return __builtin_ceilf(__x); }
 167:c:\users\vincius\documents\daisytoolchain-0.3.1\windows\arm-none-eabi\include\c++\10.2.1\cmath **** 
 168:c:\users\vincius\documents\daisytoolchain-0.3.1\windows\arm-none-eabi\include\c++\10.2.1\cmath ****   inline _GLIBCXX_CONSTEXPR long double
 169:c:\users\vincius\documents\daisytoolchain-0.3.1\windows\arm-none-eabi\include\c++\10.2.1\cmath ****   ceil(long double __x)
 170:c:\users\vincius\documents\daisytoolchain-0.3.1\windows\arm-none-eabi\include\c++\10.2.1\cmath ****   { return __builtin_ceill(__x); }
 171:c:\users\vincius\documents\daisytoolchain-0.3.1\windows\arm-none-eabi\include\c++\10.2.1\cmath **** #endif
 172:c:\users\vincius\documents\daisytoolchain-0.3.1\windows\arm-none-eabi\include\c++\10.2.1\cmath **** 
 173:c:\users\vincius\documents\daisytoolchain-0.3.1\windows\arm-none-eabi\include\c++\10.2.1\cmath ****   template<typename _Tp>
 174:c:\users\vincius\documents\daisytoolchain-0.3.1\windows\arm-none-eabi\include\c++\10.2.1\cmath ****     inline _GLIBCXX_CONSTEXPR
 175:c:\users\vincius\documents\daisytoolchain-0.3.1\windows\arm-none-eabi\include\c++\10.2.1\cmath ****     typename __gnu_cxx::__enable_if<__is_integer<_Tp>::__value, 
 176:c:\users\vincius\documents\daisytoolchain-0.3.1\windows\arm-none-eabi\include\c++\10.2.1\cmath ****                                     double>::__type
 177:c:\users\vincius\documents\daisytoolchain-0.3.1\windows\arm-none-eabi\include\c++\10.2.1\cmath ****     ceil(_Tp __x)
 178:c:\users\vincius\documents\daisytoolchain-0.3.1\windows\arm-none-eabi\include\c++\10.2.1\cmath ****     { return __builtin_ceil(__x); }
 179:c:\users\vincius\documents\daisytoolchain-0.3.1\windows\arm-none-eabi\include\c++\10.2.1\cmath **** 
 180:c:\users\vincius\documents\daisytoolchain-0.3.1\windows\arm-none-eabi\include\c++\10.2.1\cmath ****   using ::cos;
 181:c:\users\vincius\documents\daisytoolchain-0.3.1\windows\arm-none-eabi\include\c++\10.2.1\cmath **** 
 182:c:\users\vincius\documents\daisytoolchain-0.3.1\windows\arm-none-eabi\include\c++\10.2.1\cmath **** #ifndef __CORRECT_ISO_CPP_MATH_H_PROTO
 183:c:\users\vincius\documents\daisytoolchain-0.3.1\windows\arm-none-eabi\include\c++\10.2.1\cmath ****   inline _GLIBCXX_CONSTEXPR float
 184:c:\users\vincius\documents\daisytoolchain-0.3.1\windows\arm-none-eabi\include\c++\10.2.1\cmath ****   cos(float __x)
 185:c:\users\vincius\documents\daisytoolchain-0.3.1\windows\arm-none-eabi\include\c++\10.2.1\cmath ****   { return __builtin_cosf(__x); }
 1554              		.loc 12 185 26 view .LVU327
 1555 0050 B0EE680A 		vmov.f32	s0, s17
 1556 0054 FFF7FEFF 		bl	cosf
 1557              	.LVL114:
 1558              		.loc 12 185 26 view .LVU328
 1559              	.LBE457:
 1560              	.LBE456:
 275:../../libdaisy/src/hid/disp/display.h ****         start_y = -sin(start_angle_rad) * radius;
 1561              		.loc 8 275 17 view .LVU329
 1562 0058 07EE907A 		vmov	s15, r7	@ int
 273:../../libdaisy/src/hid/disp/display.h **** 
 1563              		.loc 8 273 25 view .LVU330
 1564 005c B7EECAAB 		vcvt.f32.f64	s20, d10
 1565              	.LVL115:
 1566              	.LBB460:
 1567              	.LBI456:
 184:c:\users\vincius\documents\daisytoolchain-0.3.1\windows\arm-none-eabi\include\c++\10.2.1\cmath ****   { return __builtin_cosf(__x); }
 1568              		.loc 12 184 3 is_stmt 1 view .LVU331
 1569              	.LBB458:
 1570              		.loc 12 185 5 view .LVU332
 1571              		.loc 12 185 5 is_stmt 0 view .LVU333
 1572              	.LBE458:
ARM GAS  C:\Users\VINCIU~1\AppData\Local\Temp\ccNNq0o9.s 			page 56


 1573              	.LBE460:
 275:../../libdaisy/src/hid/disp/display.h ****         start_y = -sin(start_angle_rad) * radius;
 1574              		.loc 8 275 17 view .LVU334
 1575 0060 F8EE679A 		vcvt.f32.u32	s19, s15
 1576              	.LBB461:
 1577              	.LBB459:
 1578              		.loc 12 185 26 view .LVU335
 1579 0064 B0EE408A 		vmov.f32	s16, s0
 1580              	.LBE459:
 1581              	.LBE461:
 1582              	.LBB462:
 1583              	.LBB463:
 186:c:\users\vincius\documents\daisytoolchain-0.3.1\windows\arm-none-eabi\include\c++\10.2.1\cmath **** 
 187:c:\users\vincius\documents\daisytoolchain-0.3.1\windows\arm-none-eabi\include\c++\10.2.1\cmath ****   inline _GLIBCXX_CONSTEXPR long double
 188:c:\users\vincius\documents\daisytoolchain-0.3.1\windows\arm-none-eabi\include\c++\10.2.1\cmath ****   cos(long double __x)
 189:c:\users\vincius\documents\daisytoolchain-0.3.1\windows\arm-none-eabi\include\c++\10.2.1\cmath ****   { return __builtin_cosl(__x); }
 190:c:\users\vincius\documents\daisytoolchain-0.3.1\windows\arm-none-eabi\include\c++\10.2.1\cmath **** #endif
 191:c:\users\vincius\documents\daisytoolchain-0.3.1\windows\arm-none-eabi\include\c++\10.2.1\cmath **** 
 192:c:\users\vincius\documents\daisytoolchain-0.3.1\windows\arm-none-eabi\include\c++\10.2.1\cmath ****   template<typename _Tp>
 193:c:\users\vincius\documents\daisytoolchain-0.3.1\windows\arm-none-eabi\include\c++\10.2.1\cmath ****     inline _GLIBCXX_CONSTEXPR
 194:c:\users\vincius\documents\daisytoolchain-0.3.1\windows\arm-none-eabi\include\c++\10.2.1\cmath ****     typename __gnu_cxx::__enable_if<__is_integer<_Tp>::__value,
 195:c:\users\vincius\documents\daisytoolchain-0.3.1\windows\arm-none-eabi\include\c++\10.2.1\cmath ****                                     double>::__type
 196:c:\users\vincius\documents\daisytoolchain-0.3.1\windows\arm-none-eabi\include\c++\10.2.1\cmath ****     cos(_Tp __x)
 197:c:\users\vincius\documents\daisytoolchain-0.3.1\windows\arm-none-eabi\include\c++\10.2.1\cmath ****     { return __builtin_cos(__x); }
 198:c:\users\vincius\documents\daisytoolchain-0.3.1\windows\arm-none-eabi\include\c++\10.2.1\cmath **** 
 199:c:\users\vincius\documents\daisytoolchain-0.3.1\windows\arm-none-eabi\include\c++\10.2.1\cmath ****   using ::cosh;
 200:c:\users\vincius\documents\daisytoolchain-0.3.1\windows\arm-none-eabi\include\c++\10.2.1\cmath **** 
 201:c:\users\vincius\documents\daisytoolchain-0.3.1\windows\arm-none-eabi\include\c++\10.2.1\cmath **** #ifndef __CORRECT_ISO_CPP_MATH_H_PROTO
 202:c:\users\vincius\documents\daisytoolchain-0.3.1\windows\arm-none-eabi\include\c++\10.2.1\cmath ****   inline _GLIBCXX_CONSTEXPR float
 203:c:\users\vincius\documents\daisytoolchain-0.3.1\windows\arm-none-eabi\include\c++\10.2.1\cmath ****   cosh(float __x)
 204:c:\users\vincius\documents\daisytoolchain-0.3.1\windows\arm-none-eabi\include\c++\10.2.1\cmath ****   { return __builtin_coshf(__x); }
 205:c:\users\vincius\documents\daisytoolchain-0.3.1\windows\arm-none-eabi\include\c++\10.2.1\cmath **** 
 206:c:\users\vincius\documents\daisytoolchain-0.3.1\windows\arm-none-eabi\include\c++\10.2.1\cmath ****   inline _GLIBCXX_CONSTEXPR long double
 207:c:\users\vincius\documents\daisytoolchain-0.3.1\windows\arm-none-eabi\include\c++\10.2.1\cmath ****   cosh(long double __x)
 208:c:\users\vincius\documents\daisytoolchain-0.3.1\windows\arm-none-eabi\include\c++\10.2.1\cmath ****   { return __builtin_coshl(__x); }
 209:c:\users\vincius\documents\daisytoolchain-0.3.1\windows\arm-none-eabi\include\c++\10.2.1\cmath **** #endif
 210:c:\users\vincius\documents\daisytoolchain-0.3.1\windows\arm-none-eabi\include\c++\10.2.1\cmath **** 
 211:c:\users\vincius\documents\daisytoolchain-0.3.1\windows\arm-none-eabi\include\c++\10.2.1\cmath ****   template<typename _Tp>
 212:c:\users\vincius\documents\daisytoolchain-0.3.1\windows\arm-none-eabi\include\c++\10.2.1\cmath ****     inline _GLIBCXX_CONSTEXPR
 213:c:\users\vincius\documents\daisytoolchain-0.3.1\windows\arm-none-eabi\include\c++\10.2.1\cmath ****     typename __gnu_cxx::__enable_if<__is_integer<_Tp>::__value,
 214:c:\users\vincius\documents\daisytoolchain-0.3.1\windows\arm-none-eabi\include\c++\10.2.1\cmath ****                                     double>::__type
 215:c:\users\vincius\documents\daisytoolchain-0.3.1\windows\arm-none-eabi\include\c++\10.2.1\cmath ****     cosh(_Tp __x)
 216:c:\users\vincius\documents\daisytoolchain-0.3.1\windows\arm-none-eabi\include\c++\10.2.1\cmath ****     { return __builtin_cosh(__x); }
 217:c:\users\vincius\documents\daisytoolchain-0.3.1\windows\arm-none-eabi\include\c++\10.2.1\cmath **** 
 218:c:\users\vincius\documents\daisytoolchain-0.3.1\windows\arm-none-eabi\include\c++\10.2.1\cmath ****   using ::exp;
 219:c:\users\vincius\documents\daisytoolchain-0.3.1\windows\arm-none-eabi\include\c++\10.2.1\cmath **** 
 220:c:\users\vincius\documents\daisytoolchain-0.3.1\windows\arm-none-eabi\include\c++\10.2.1\cmath **** #ifndef __CORRECT_ISO_CPP_MATH_H_PROTO
 221:c:\users\vincius\documents\daisytoolchain-0.3.1\windows\arm-none-eabi\include\c++\10.2.1\cmath ****   inline _GLIBCXX_CONSTEXPR float
 222:c:\users\vincius\documents\daisytoolchain-0.3.1\windows\arm-none-eabi\include\c++\10.2.1\cmath ****   exp(float __x)
 223:c:\users\vincius\documents\daisytoolchain-0.3.1\windows\arm-none-eabi\include\c++\10.2.1\cmath ****   { return __builtin_expf(__x); }
 224:c:\users\vincius\documents\daisytoolchain-0.3.1\windows\arm-none-eabi\include\c++\10.2.1\cmath **** 
 225:c:\users\vincius\documents\daisytoolchain-0.3.1\windows\arm-none-eabi\include\c++\10.2.1\cmath ****   inline _GLIBCXX_CONSTEXPR long double
 226:c:\users\vincius\documents\daisytoolchain-0.3.1\windows\arm-none-eabi\include\c++\10.2.1\cmath ****   exp(long double __x)
 227:c:\users\vincius\documents\daisytoolchain-0.3.1\windows\arm-none-eabi\include\c++\10.2.1\cmath ****   { return __builtin_expl(__x); }
 228:c:\users\vincius\documents\daisytoolchain-0.3.1\windows\arm-none-eabi\include\c++\10.2.1\cmath **** #endif
 229:c:\users\vincius\documents\daisytoolchain-0.3.1\windows\arm-none-eabi\include\c++\10.2.1\cmath **** 
 230:c:\users\vincius\documents\daisytoolchain-0.3.1\windows\arm-none-eabi\include\c++\10.2.1\cmath ****   template<typename _Tp>
ARM GAS  C:\Users\VINCIU~1\AppData\Local\Temp\ccNNq0o9.s 			page 57


 231:c:\users\vincius\documents\daisytoolchain-0.3.1\windows\arm-none-eabi\include\c++\10.2.1\cmath ****     inline _GLIBCXX_CONSTEXPR
 232:c:\users\vincius\documents\daisytoolchain-0.3.1\windows\arm-none-eabi\include\c++\10.2.1\cmath ****     typename __gnu_cxx::__enable_if<__is_integer<_Tp>::__value,
 233:c:\users\vincius\documents\daisytoolchain-0.3.1\windows\arm-none-eabi\include\c++\10.2.1\cmath ****                                     double>::__type
 234:c:\users\vincius\documents\daisytoolchain-0.3.1\windows\arm-none-eabi\include\c++\10.2.1\cmath ****     exp(_Tp __x)
 235:c:\users\vincius\documents\daisytoolchain-0.3.1\windows\arm-none-eabi\include\c++\10.2.1\cmath ****     { return __builtin_exp(__x); }
 236:c:\users\vincius\documents\daisytoolchain-0.3.1\windows\arm-none-eabi\include\c++\10.2.1\cmath **** 
 237:c:\users\vincius\documents\daisytoolchain-0.3.1\windows\arm-none-eabi\include\c++\10.2.1\cmath ****   using ::fabs;
 238:c:\users\vincius\documents\daisytoolchain-0.3.1\windows\arm-none-eabi\include\c++\10.2.1\cmath **** 
 239:c:\users\vincius\documents\daisytoolchain-0.3.1\windows\arm-none-eabi\include\c++\10.2.1\cmath **** #ifndef __CORRECT_ISO_CPP_MATH_H_PROTO
 240:c:\users\vincius\documents\daisytoolchain-0.3.1\windows\arm-none-eabi\include\c++\10.2.1\cmath ****   inline _GLIBCXX_CONSTEXPR float
 241:c:\users\vincius\documents\daisytoolchain-0.3.1\windows\arm-none-eabi\include\c++\10.2.1\cmath ****   fabs(float __x)
 242:c:\users\vincius\documents\daisytoolchain-0.3.1\windows\arm-none-eabi\include\c++\10.2.1\cmath ****   { return __builtin_fabsf(__x); }
 243:c:\users\vincius\documents\daisytoolchain-0.3.1\windows\arm-none-eabi\include\c++\10.2.1\cmath **** 
 244:c:\users\vincius\documents\daisytoolchain-0.3.1\windows\arm-none-eabi\include\c++\10.2.1\cmath ****   inline _GLIBCXX_CONSTEXPR long double
 245:c:\users\vincius\documents\daisytoolchain-0.3.1\windows\arm-none-eabi\include\c++\10.2.1\cmath ****   fabs(long double __x)
 246:c:\users\vincius\documents\daisytoolchain-0.3.1\windows\arm-none-eabi\include\c++\10.2.1\cmath ****   { return __builtin_fabsl(__x); }
 247:c:\users\vincius\documents\daisytoolchain-0.3.1\windows\arm-none-eabi\include\c++\10.2.1\cmath **** #endif
 248:c:\users\vincius\documents\daisytoolchain-0.3.1\windows\arm-none-eabi\include\c++\10.2.1\cmath **** 
 249:c:\users\vincius\documents\daisytoolchain-0.3.1\windows\arm-none-eabi\include\c++\10.2.1\cmath ****   template<typename _Tp>
 250:c:\users\vincius\documents\daisytoolchain-0.3.1\windows\arm-none-eabi\include\c++\10.2.1\cmath ****     inline _GLIBCXX_CONSTEXPR
 251:c:\users\vincius\documents\daisytoolchain-0.3.1\windows\arm-none-eabi\include\c++\10.2.1\cmath ****     typename __gnu_cxx::__enable_if<__is_integer<_Tp>::__value,
 252:c:\users\vincius\documents\daisytoolchain-0.3.1\windows\arm-none-eabi\include\c++\10.2.1\cmath ****                                     double>::__type
 253:c:\users\vincius\documents\daisytoolchain-0.3.1\windows\arm-none-eabi\include\c++\10.2.1\cmath ****     fabs(_Tp __x)
 254:c:\users\vincius\documents\daisytoolchain-0.3.1\windows\arm-none-eabi\include\c++\10.2.1\cmath ****     { return __builtin_fabs(__x); }
 255:c:\users\vincius\documents\daisytoolchain-0.3.1\windows\arm-none-eabi\include\c++\10.2.1\cmath **** 
 256:c:\users\vincius\documents\daisytoolchain-0.3.1\windows\arm-none-eabi\include\c++\10.2.1\cmath ****   using ::floor;
 257:c:\users\vincius\documents\daisytoolchain-0.3.1\windows\arm-none-eabi\include\c++\10.2.1\cmath **** 
 258:c:\users\vincius\documents\daisytoolchain-0.3.1\windows\arm-none-eabi\include\c++\10.2.1\cmath **** #ifndef __CORRECT_ISO_CPP_MATH_H_PROTO
 259:c:\users\vincius\documents\daisytoolchain-0.3.1\windows\arm-none-eabi\include\c++\10.2.1\cmath ****   inline _GLIBCXX_CONSTEXPR float
 260:c:\users\vincius\documents\daisytoolchain-0.3.1\windows\arm-none-eabi\include\c++\10.2.1\cmath ****   floor(float __x)
 261:c:\users\vincius\documents\daisytoolchain-0.3.1\windows\arm-none-eabi\include\c++\10.2.1\cmath ****   { return __builtin_floorf(__x); }
 262:c:\users\vincius\documents\daisytoolchain-0.3.1\windows\arm-none-eabi\include\c++\10.2.1\cmath **** 
 263:c:\users\vincius\documents\daisytoolchain-0.3.1\windows\arm-none-eabi\include\c++\10.2.1\cmath ****   inline _GLIBCXX_CONSTEXPR long double
 264:c:\users\vincius\documents\daisytoolchain-0.3.1\windows\arm-none-eabi\include\c++\10.2.1\cmath ****   floor(long double __x)
 265:c:\users\vincius\documents\daisytoolchain-0.3.1\windows\arm-none-eabi\include\c++\10.2.1\cmath ****   { return __builtin_floorl(__x); }
 266:c:\users\vincius\documents\daisytoolchain-0.3.1\windows\arm-none-eabi\include\c++\10.2.1\cmath **** #endif
 267:c:\users\vincius\documents\daisytoolchain-0.3.1\windows\arm-none-eabi\include\c++\10.2.1\cmath **** 
 268:c:\users\vincius\documents\daisytoolchain-0.3.1\windows\arm-none-eabi\include\c++\10.2.1\cmath ****   template<typename _Tp>
 269:c:\users\vincius\documents\daisytoolchain-0.3.1\windows\arm-none-eabi\include\c++\10.2.1\cmath ****     inline _GLIBCXX_CONSTEXPR
 270:c:\users\vincius\documents\daisytoolchain-0.3.1\windows\arm-none-eabi\include\c++\10.2.1\cmath ****     typename __gnu_cxx::__enable_if<__is_integer<_Tp>::__value,
 271:c:\users\vincius\documents\daisytoolchain-0.3.1\windows\arm-none-eabi\include\c++\10.2.1\cmath ****                                     double>::__type
 272:c:\users\vincius\documents\daisytoolchain-0.3.1\windows\arm-none-eabi\include\c++\10.2.1\cmath ****     floor(_Tp __x)
 273:c:\users\vincius\documents\daisytoolchain-0.3.1\windows\arm-none-eabi\include\c++\10.2.1\cmath ****     { return __builtin_floor(__x); }
 274:c:\users\vincius\documents\daisytoolchain-0.3.1\windows\arm-none-eabi\include\c++\10.2.1\cmath **** 
 275:c:\users\vincius\documents\daisytoolchain-0.3.1\windows\arm-none-eabi\include\c++\10.2.1\cmath ****   using ::fmod;
 276:c:\users\vincius\documents\daisytoolchain-0.3.1\windows\arm-none-eabi\include\c++\10.2.1\cmath **** 
 277:c:\users\vincius\documents\daisytoolchain-0.3.1\windows\arm-none-eabi\include\c++\10.2.1\cmath **** #ifndef __CORRECT_ISO_CPP_MATH_H_PROTO
 278:c:\users\vincius\documents\daisytoolchain-0.3.1\windows\arm-none-eabi\include\c++\10.2.1\cmath ****   inline _GLIBCXX_CONSTEXPR float
 279:c:\users\vincius\documents\daisytoolchain-0.3.1\windows\arm-none-eabi\include\c++\10.2.1\cmath ****   fmod(float __x, float __y)
 280:c:\users\vincius\documents\daisytoolchain-0.3.1\windows\arm-none-eabi\include\c++\10.2.1\cmath ****   { return __builtin_fmodf(__x, __y); }
 281:c:\users\vincius\documents\daisytoolchain-0.3.1\windows\arm-none-eabi\include\c++\10.2.1\cmath **** 
 282:c:\users\vincius\documents\daisytoolchain-0.3.1\windows\arm-none-eabi\include\c++\10.2.1\cmath ****   inline _GLIBCXX_CONSTEXPR long double
 283:c:\users\vincius\documents\daisytoolchain-0.3.1\windows\arm-none-eabi\include\c++\10.2.1\cmath ****   fmod(long double __x, long double __y)
 284:c:\users\vincius\documents\daisytoolchain-0.3.1\windows\arm-none-eabi\include\c++\10.2.1\cmath ****   { return __builtin_fmodl(__x, __y); }
 285:c:\users\vincius\documents\daisytoolchain-0.3.1\windows\arm-none-eabi\include\c++\10.2.1\cmath **** #endif
 286:c:\users\vincius\documents\daisytoolchain-0.3.1\windows\arm-none-eabi\include\c++\10.2.1\cmath **** 
 287:c:\users\vincius\documents\daisytoolchain-0.3.1\windows\arm-none-eabi\include\c++\10.2.1\cmath ****   template<typename _Tp, typename _Up>
ARM GAS  C:\Users\VINCIU~1\AppData\Local\Temp\ccNNq0o9.s 			page 58


 288:c:\users\vincius\documents\daisytoolchain-0.3.1\windows\arm-none-eabi\include\c++\10.2.1\cmath ****     inline _GLIBCXX_CONSTEXPR
 289:c:\users\vincius\documents\daisytoolchain-0.3.1\windows\arm-none-eabi\include\c++\10.2.1\cmath ****     typename __gnu_cxx::__promote_2<_Tp, _Up>::__type
 290:c:\users\vincius\documents\daisytoolchain-0.3.1\windows\arm-none-eabi\include\c++\10.2.1\cmath ****     fmod(_Tp __x, _Up __y)
 291:c:\users\vincius\documents\daisytoolchain-0.3.1\windows\arm-none-eabi\include\c++\10.2.1\cmath ****     {
 292:c:\users\vincius\documents\daisytoolchain-0.3.1\windows\arm-none-eabi\include\c++\10.2.1\cmath ****       typedef typename __gnu_cxx::__promote_2<_Tp, _Up>::__type __type;
 293:c:\users\vincius\documents\daisytoolchain-0.3.1\windows\arm-none-eabi\include\c++\10.2.1\cmath ****       return fmod(__type(__x), __type(__y));
 294:c:\users\vincius\documents\daisytoolchain-0.3.1\windows\arm-none-eabi\include\c++\10.2.1\cmath ****     }
 295:c:\users\vincius\documents\daisytoolchain-0.3.1\windows\arm-none-eabi\include\c++\10.2.1\cmath **** 
 296:c:\users\vincius\documents\daisytoolchain-0.3.1\windows\arm-none-eabi\include\c++\10.2.1\cmath ****   using ::frexp;
 297:c:\users\vincius\documents\daisytoolchain-0.3.1\windows\arm-none-eabi\include\c++\10.2.1\cmath **** 
 298:c:\users\vincius\documents\daisytoolchain-0.3.1\windows\arm-none-eabi\include\c++\10.2.1\cmath **** #ifndef __CORRECT_ISO_CPP_MATH_H_PROTO
 299:c:\users\vincius\documents\daisytoolchain-0.3.1\windows\arm-none-eabi\include\c++\10.2.1\cmath ****   inline float
 300:c:\users\vincius\documents\daisytoolchain-0.3.1\windows\arm-none-eabi\include\c++\10.2.1\cmath ****   frexp(float __x, int* __exp)
 301:c:\users\vincius\documents\daisytoolchain-0.3.1\windows\arm-none-eabi\include\c++\10.2.1\cmath ****   { return __builtin_frexpf(__x, __exp); }
 302:c:\users\vincius\documents\daisytoolchain-0.3.1\windows\arm-none-eabi\include\c++\10.2.1\cmath **** 
 303:c:\users\vincius\documents\daisytoolchain-0.3.1\windows\arm-none-eabi\include\c++\10.2.1\cmath ****   inline long double
 304:c:\users\vincius\documents\daisytoolchain-0.3.1\windows\arm-none-eabi\include\c++\10.2.1\cmath ****   frexp(long double __x, int* __exp)
 305:c:\users\vincius\documents\daisytoolchain-0.3.1\windows\arm-none-eabi\include\c++\10.2.1\cmath ****   { return __builtin_frexpl(__x, __exp); }
 306:c:\users\vincius\documents\daisytoolchain-0.3.1\windows\arm-none-eabi\include\c++\10.2.1\cmath **** #endif
 307:c:\users\vincius\documents\daisytoolchain-0.3.1\windows\arm-none-eabi\include\c++\10.2.1\cmath **** 
 308:c:\users\vincius\documents\daisytoolchain-0.3.1\windows\arm-none-eabi\include\c++\10.2.1\cmath ****   template<typename _Tp>
 309:c:\users\vincius\documents\daisytoolchain-0.3.1\windows\arm-none-eabi\include\c++\10.2.1\cmath ****     inline _GLIBCXX_CONSTEXPR
 310:c:\users\vincius\documents\daisytoolchain-0.3.1\windows\arm-none-eabi\include\c++\10.2.1\cmath ****     typename __gnu_cxx::__enable_if<__is_integer<_Tp>::__value, 
 311:c:\users\vincius\documents\daisytoolchain-0.3.1\windows\arm-none-eabi\include\c++\10.2.1\cmath ****                                     double>::__type
 312:c:\users\vincius\documents\daisytoolchain-0.3.1\windows\arm-none-eabi\include\c++\10.2.1\cmath ****     frexp(_Tp __x, int* __exp)
 313:c:\users\vincius\documents\daisytoolchain-0.3.1\windows\arm-none-eabi\include\c++\10.2.1\cmath ****     { return __builtin_frexp(__x, __exp); }
 314:c:\users\vincius\documents\daisytoolchain-0.3.1\windows\arm-none-eabi\include\c++\10.2.1\cmath **** 
 315:c:\users\vincius\documents\daisytoolchain-0.3.1\windows\arm-none-eabi\include\c++\10.2.1\cmath ****   using ::ldexp;
 316:c:\users\vincius\documents\daisytoolchain-0.3.1\windows\arm-none-eabi\include\c++\10.2.1\cmath **** 
 317:c:\users\vincius\documents\daisytoolchain-0.3.1\windows\arm-none-eabi\include\c++\10.2.1\cmath **** #ifndef __CORRECT_ISO_CPP_MATH_H_PROTO
 318:c:\users\vincius\documents\daisytoolchain-0.3.1\windows\arm-none-eabi\include\c++\10.2.1\cmath ****   inline _GLIBCXX_CONSTEXPR float
 319:c:\users\vincius\documents\daisytoolchain-0.3.1\windows\arm-none-eabi\include\c++\10.2.1\cmath ****   ldexp(float __x, int __exp)
 320:c:\users\vincius\documents\daisytoolchain-0.3.1\windows\arm-none-eabi\include\c++\10.2.1\cmath ****   { return __builtin_ldexpf(__x, __exp); }
 321:c:\users\vincius\documents\daisytoolchain-0.3.1\windows\arm-none-eabi\include\c++\10.2.1\cmath **** 
 322:c:\users\vincius\documents\daisytoolchain-0.3.1\windows\arm-none-eabi\include\c++\10.2.1\cmath ****   inline _GLIBCXX_CONSTEXPR long double
 323:c:\users\vincius\documents\daisytoolchain-0.3.1\windows\arm-none-eabi\include\c++\10.2.1\cmath ****   ldexp(long double __x, int __exp)
 324:c:\users\vincius\documents\daisytoolchain-0.3.1\windows\arm-none-eabi\include\c++\10.2.1\cmath ****   { return __builtin_ldexpl(__x, __exp); }
 325:c:\users\vincius\documents\daisytoolchain-0.3.1\windows\arm-none-eabi\include\c++\10.2.1\cmath **** #endif
 326:c:\users\vincius\documents\daisytoolchain-0.3.1\windows\arm-none-eabi\include\c++\10.2.1\cmath **** 
 327:c:\users\vincius\documents\daisytoolchain-0.3.1\windows\arm-none-eabi\include\c++\10.2.1\cmath ****   template<typename _Tp>
 328:c:\users\vincius\documents\daisytoolchain-0.3.1\windows\arm-none-eabi\include\c++\10.2.1\cmath ****     inline _GLIBCXX_CONSTEXPR
 329:c:\users\vincius\documents\daisytoolchain-0.3.1\windows\arm-none-eabi\include\c++\10.2.1\cmath ****     typename __gnu_cxx::__enable_if<__is_integer<_Tp>::__value, 
 330:c:\users\vincius\documents\daisytoolchain-0.3.1\windows\arm-none-eabi\include\c++\10.2.1\cmath ****                                     double>::__type
 331:c:\users\vincius\documents\daisytoolchain-0.3.1\windows\arm-none-eabi\include\c++\10.2.1\cmath ****     ldexp(_Tp __x, int __exp)
 332:c:\users\vincius\documents\daisytoolchain-0.3.1\windows\arm-none-eabi\include\c++\10.2.1\cmath ****     { return __builtin_ldexp(__x, __exp); }
 333:c:\users\vincius\documents\daisytoolchain-0.3.1\windows\arm-none-eabi\include\c++\10.2.1\cmath **** 
 334:c:\users\vincius\documents\daisytoolchain-0.3.1\windows\arm-none-eabi\include\c++\10.2.1\cmath ****   using ::log;
 335:c:\users\vincius\documents\daisytoolchain-0.3.1\windows\arm-none-eabi\include\c++\10.2.1\cmath **** 
 336:c:\users\vincius\documents\daisytoolchain-0.3.1\windows\arm-none-eabi\include\c++\10.2.1\cmath **** #ifndef __CORRECT_ISO_CPP_MATH_H_PROTO
 337:c:\users\vincius\documents\daisytoolchain-0.3.1\windows\arm-none-eabi\include\c++\10.2.1\cmath ****   inline _GLIBCXX_CONSTEXPR float
 338:c:\users\vincius\documents\daisytoolchain-0.3.1\windows\arm-none-eabi\include\c++\10.2.1\cmath ****   log(float __x)
 339:c:\users\vincius\documents\daisytoolchain-0.3.1\windows\arm-none-eabi\include\c++\10.2.1\cmath ****   { return __builtin_logf(__x); }
 340:c:\users\vincius\documents\daisytoolchain-0.3.1\windows\arm-none-eabi\include\c++\10.2.1\cmath **** 
 341:c:\users\vincius\documents\daisytoolchain-0.3.1\windows\arm-none-eabi\include\c++\10.2.1\cmath ****   inline _GLIBCXX_CONSTEXPR long double
 342:c:\users\vincius\documents\daisytoolchain-0.3.1\windows\arm-none-eabi\include\c++\10.2.1\cmath ****   log(long double __x)
 343:c:\users\vincius\documents\daisytoolchain-0.3.1\windows\arm-none-eabi\include\c++\10.2.1\cmath ****   { return __builtin_logl(__x); }
 344:c:\users\vincius\documents\daisytoolchain-0.3.1\windows\arm-none-eabi\include\c++\10.2.1\cmath **** #endif
ARM GAS  C:\Users\VINCIU~1\AppData\Local\Temp\ccNNq0o9.s 			page 59


 345:c:\users\vincius\documents\daisytoolchain-0.3.1\windows\arm-none-eabi\include\c++\10.2.1\cmath **** 
 346:c:\users\vincius\documents\daisytoolchain-0.3.1\windows\arm-none-eabi\include\c++\10.2.1\cmath ****   template<typename _Tp>
 347:c:\users\vincius\documents\daisytoolchain-0.3.1\windows\arm-none-eabi\include\c++\10.2.1\cmath ****     inline _GLIBCXX_CONSTEXPR
 348:c:\users\vincius\documents\daisytoolchain-0.3.1\windows\arm-none-eabi\include\c++\10.2.1\cmath ****     typename __gnu_cxx::__enable_if<__is_integer<_Tp>::__value, 
 349:c:\users\vincius\documents\daisytoolchain-0.3.1\windows\arm-none-eabi\include\c++\10.2.1\cmath ****                                     double>::__type
 350:c:\users\vincius\documents\daisytoolchain-0.3.1\windows\arm-none-eabi\include\c++\10.2.1\cmath ****     log(_Tp __x)
 351:c:\users\vincius\documents\daisytoolchain-0.3.1\windows\arm-none-eabi\include\c++\10.2.1\cmath ****     { return __builtin_log(__x); }
 352:c:\users\vincius\documents\daisytoolchain-0.3.1\windows\arm-none-eabi\include\c++\10.2.1\cmath **** 
 353:c:\users\vincius\documents\daisytoolchain-0.3.1\windows\arm-none-eabi\include\c++\10.2.1\cmath ****   using ::log10;
 354:c:\users\vincius\documents\daisytoolchain-0.3.1\windows\arm-none-eabi\include\c++\10.2.1\cmath **** 
 355:c:\users\vincius\documents\daisytoolchain-0.3.1\windows\arm-none-eabi\include\c++\10.2.1\cmath **** #ifndef __CORRECT_ISO_CPP_MATH_H_PROTO
 356:c:\users\vincius\documents\daisytoolchain-0.3.1\windows\arm-none-eabi\include\c++\10.2.1\cmath ****   inline _GLIBCXX_CONSTEXPR float
 357:c:\users\vincius\documents\daisytoolchain-0.3.1\windows\arm-none-eabi\include\c++\10.2.1\cmath ****   log10(float __x)
 358:c:\users\vincius\documents\daisytoolchain-0.3.1\windows\arm-none-eabi\include\c++\10.2.1\cmath ****   { return __builtin_log10f(__x); }
 359:c:\users\vincius\documents\daisytoolchain-0.3.1\windows\arm-none-eabi\include\c++\10.2.1\cmath **** 
 360:c:\users\vincius\documents\daisytoolchain-0.3.1\windows\arm-none-eabi\include\c++\10.2.1\cmath ****   inline _GLIBCXX_CONSTEXPR long double
 361:c:\users\vincius\documents\daisytoolchain-0.3.1\windows\arm-none-eabi\include\c++\10.2.1\cmath ****   log10(long double __x)
 362:c:\users\vincius\documents\daisytoolchain-0.3.1\windows\arm-none-eabi\include\c++\10.2.1\cmath ****   { return __builtin_log10l(__x); }
 363:c:\users\vincius\documents\daisytoolchain-0.3.1\windows\arm-none-eabi\include\c++\10.2.1\cmath **** #endif
 364:c:\users\vincius\documents\daisytoolchain-0.3.1\windows\arm-none-eabi\include\c++\10.2.1\cmath **** 
 365:c:\users\vincius\documents\daisytoolchain-0.3.1\windows\arm-none-eabi\include\c++\10.2.1\cmath ****   template<typename _Tp>
 366:c:\users\vincius\documents\daisytoolchain-0.3.1\windows\arm-none-eabi\include\c++\10.2.1\cmath ****     inline _GLIBCXX_CONSTEXPR
 367:c:\users\vincius\documents\daisytoolchain-0.3.1\windows\arm-none-eabi\include\c++\10.2.1\cmath ****     typename __gnu_cxx::__enable_if<__is_integer<_Tp>::__value,
 368:c:\users\vincius\documents\daisytoolchain-0.3.1\windows\arm-none-eabi\include\c++\10.2.1\cmath ****                                     double>::__type
 369:c:\users\vincius\documents\daisytoolchain-0.3.1\windows\arm-none-eabi\include\c++\10.2.1\cmath ****     log10(_Tp __x)
 370:c:\users\vincius\documents\daisytoolchain-0.3.1\windows\arm-none-eabi\include\c++\10.2.1\cmath ****     { return __builtin_log10(__x); }
 371:c:\users\vincius\documents\daisytoolchain-0.3.1\windows\arm-none-eabi\include\c++\10.2.1\cmath **** 
 372:c:\users\vincius\documents\daisytoolchain-0.3.1\windows\arm-none-eabi\include\c++\10.2.1\cmath ****   using ::modf;
 373:c:\users\vincius\documents\daisytoolchain-0.3.1\windows\arm-none-eabi\include\c++\10.2.1\cmath **** 
 374:c:\users\vincius\documents\daisytoolchain-0.3.1\windows\arm-none-eabi\include\c++\10.2.1\cmath **** #ifndef __CORRECT_ISO_CPP_MATH_H_PROTO
 375:c:\users\vincius\documents\daisytoolchain-0.3.1\windows\arm-none-eabi\include\c++\10.2.1\cmath ****   inline float
 376:c:\users\vincius\documents\daisytoolchain-0.3.1\windows\arm-none-eabi\include\c++\10.2.1\cmath ****   modf(float __x, float* __iptr)
 377:c:\users\vincius\documents\daisytoolchain-0.3.1\windows\arm-none-eabi\include\c++\10.2.1\cmath ****   { return __builtin_modff(__x, __iptr); }
 378:c:\users\vincius\documents\daisytoolchain-0.3.1\windows\arm-none-eabi\include\c++\10.2.1\cmath **** 
 379:c:\users\vincius\documents\daisytoolchain-0.3.1\windows\arm-none-eabi\include\c++\10.2.1\cmath ****   inline long double
 380:c:\users\vincius\documents\daisytoolchain-0.3.1\windows\arm-none-eabi\include\c++\10.2.1\cmath ****   modf(long double __x, long double* __iptr)
 381:c:\users\vincius\documents\daisytoolchain-0.3.1\windows\arm-none-eabi\include\c++\10.2.1\cmath ****   { return __builtin_modfl(__x, __iptr); }
 382:c:\users\vincius\documents\daisytoolchain-0.3.1\windows\arm-none-eabi\include\c++\10.2.1\cmath **** #endif
 383:c:\users\vincius\documents\daisytoolchain-0.3.1\windows\arm-none-eabi\include\c++\10.2.1\cmath **** 
 384:c:\users\vincius\documents\daisytoolchain-0.3.1\windows\arm-none-eabi\include\c++\10.2.1\cmath ****   using ::pow;
 385:c:\users\vincius\documents\daisytoolchain-0.3.1\windows\arm-none-eabi\include\c++\10.2.1\cmath **** 
 386:c:\users\vincius\documents\daisytoolchain-0.3.1\windows\arm-none-eabi\include\c++\10.2.1\cmath **** #ifndef __CORRECT_ISO_CPP_MATH_H_PROTO
 387:c:\users\vincius\documents\daisytoolchain-0.3.1\windows\arm-none-eabi\include\c++\10.2.1\cmath ****   inline _GLIBCXX_CONSTEXPR float
 388:c:\users\vincius\documents\daisytoolchain-0.3.1\windows\arm-none-eabi\include\c++\10.2.1\cmath ****   pow(float __x, float __y)
 389:c:\users\vincius\documents\daisytoolchain-0.3.1\windows\arm-none-eabi\include\c++\10.2.1\cmath ****   { return __builtin_powf(__x, __y); }
 390:c:\users\vincius\documents\daisytoolchain-0.3.1\windows\arm-none-eabi\include\c++\10.2.1\cmath **** 
 391:c:\users\vincius\documents\daisytoolchain-0.3.1\windows\arm-none-eabi\include\c++\10.2.1\cmath ****   inline _GLIBCXX_CONSTEXPR long double
 392:c:\users\vincius\documents\daisytoolchain-0.3.1\windows\arm-none-eabi\include\c++\10.2.1\cmath ****   pow(long double __x, long double __y)
 393:c:\users\vincius\documents\daisytoolchain-0.3.1\windows\arm-none-eabi\include\c++\10.2.1\cmath ****   { return __builtin_powl(__x, __y); }
 394:c:\users\vincius\documents\daisytoolchain-0.3.1\windows\arm-none-eabi\include\c++\10.2.1\cmath **** 
 395:c:\users\vincius\documents\daisytoolchain-0.3.1\windows\arm-none-eabi\include\c++\10.2.1\cmath **** #if __cplusplus < 201103L
 396:c:\users\vincius\documents\daisytoolchain-0.3.1\windows\arm-none-eabi\include\c++\10.2.1\cmath ****   // _GLIBCXX_RESOLVE_LIB_DEFECTS
 397:c:\users\vincius\documents\daisytoolchain-0.3.1\windows\arm-none-eabi\include\c++\10.2.1\cmath ****   // DR 550. What should the return type of pow(float,int) be?
 398:c:\users\vincius\documents\daisytoolchain-0.3.1\windows\arm-none-eabi\include\c++\10.2.1\cmath ****   inline double
 399:c:\users\vincius\documents\daisytoolchain-0.3.1\windows\arm-none-eabi\include\c++\10.2.1\cmath ****   pow(double __x, int __i)
 400:c:\users\vincius\documents\daisytoolchain-0.3.1\windows\arm-none-eabi\include\c++\10.2.1\cmath ****   { return __builtin_powi(__x, __i); }
 401:c:\users\vincius\documents\daisytoolchain-0.3.1\windows\arm-none-eabi\include\c++\10.2.1\cmath **** 
ARM GAS  C:\Users\VINCIU~1\AppData\Local\Temp\ccNNq0o9.s 			page 60


 402:c:\users\vincius\documents\daisytoolchain-0.3.1\windows\arm-none-eabi\include\c++\10.2.1\cmath ****   inline float
 403:c:\users\vincius\documents\daisytoolchain-0.3.1\windows\arm-none-eabi\include\c++\10.2.1\cmath ****   pow(float __x, int __n)
 404:c:\users\vincius\documents\daisytoolchain-0.3.1\windows\arm-none-eabi\include\c++\10.2.1\cmath ****   { return __builtin_powif(__x, __n); }
 405:c:\users\vincius\documents\daisytoolchain-0.3.1\windows\arm-none-eabi\include\c++\10.2.1\cmath **** 
 406:c:\users\vincius\documents\daisytoolchain-0.3.1\windows\arm-none-eabi\include\c++\10.2.1\cmath ****   inline long double
 407:c:\users\vincius\documents\daisytoolchain-0.3.1\windows\arm-none-eabi\include\c++\10.2.1\cmath ****   pow(long double __x, int __n)
 408:c:\users\vincius\documents\daisytoolchain-0.3.1\windows\arm-none-eabi\include\c++\10.2.1\cmath ****   { return __builtin_powil(__x, __n); }
 409:c:\users\vincius\documents\daisytoolchain-0.3.1\windows\arm-none-eabi\include\c++\10.2.1\cmath **** #endif
 410:c:\users\vincius\documents\daisytoolchain-0.3.1\windows\arm-none-eabi\include\c++\10.2.1\cmath **** #endif
 411:c:\users\vincius\documents\daisytoolchain-0.3.1\windows\arm-none-eabi\include\c++\10.2.1\cmath **** 
 412:c:\users\vincius\documents\daisytoolchain-0.3.1\windows\arm-none-eabi\include\c++\10.2.1\cmath ****   template<typename _Tp, typename _Up>
 413:c:\users\vincius\documents\daisytoolchain-0.3.1\windows\arm-none-eabi\include\c++\10.2.1\cmath ****     inline _GLIBCXX_CONSTEXPR
 414:c:\users\vincius\documents\daisytoolchain-0.3.1\windows\arm-none-eabi\include\c++\10.2.1\cmath ****     typename __gnu_cxx::__promote_2<_Tp, _Up>::__type
 415:c:\users\vincius\documents\daisytoolchain-0.3.1\windows\arm-none-eabi\include\c++\10.2.1\cmath ****     pow(_Tp __x, _Up __y)
 416:c:\users\vincius\documents\daisytoolchain-0.3.1\windows\arm-none-eabi\include\c++\10.2.1\cmath ****     {
 417:c:\users\vincius\documents\daisytoolchain-0.3.1\windows\arm-none-eabi\include\c++\10.2.1\cmath ****       typedef typename __gnu_cxx::__promote_2<_Tp, _Up>::__type __type;
 418:c:\users\vincius\documents\daisytoolchain-0.3.1\windows\arm-none-eabi\include\c++\10.2.1\cmath ****       return pow(__type(__x), __type(__y));
 419:c:\users\vincius\documents\daisytoolchain-0.3.1\windows\arm-none-eabi\include\c++\10.2.1\cmath ****     }
 420:c:\users\vincius\documents\daisytoolchain-0.3.1\windows\arm-none-eabi\include\c++\10.2.1\cmath **** 
 421:c:\users\vincius\documents\daisytoolchain-0.3.1\windows\arm-none-eabi\include\c++\10.2.1\cmath ****   using ::sin;
 422:c:\users\vincius\documents\daisytoolchain-0.3.1\windows\arm-none-eabi\include\c++\10.2.1\cmath **** 
 423:c:\users\vincius\documents\daisytoolchain-0.3.1\windows\arm-none-eabi\include\c++\10.2.1\cmath **** #ifndef __CORRECT_ISO_CPP_MATH_H_PROTO
 424:c:\users\vincius\documents\daisytoolchain-0.3.1\windows\arm-none-eabi\include\c++\10.2.1\cmath ****   inline _GLIBCXX_CONSTEXPR float
 425:c:\users\vincius\documents\daisytoolchain-0.3.1\windows\arm-none-eabi\include\c++\10.2.1\cmath ****   sin(float __x)
 426:c:\users\vincius\documents\daisytoolchain-0.3.1\windows\arm-none-eabi\include\c++\10.2.1\cmath ****   { return __builtin_sinf(__x); }
 1584              		.loc 12 426 26 view .LVU336
 1585 0068 B0EE680A 		vmov.f32	s0, s17
 1586 006c FFF7FEFF 		bl	sinf
 1587              	.LVL116:
 1588              	.LBE463:
 1589              	.LBE462:
 276:../../libdaisy/src/hid/disp/display.h ****         end_x   = cos(end_angle_rad) * radius;
 1590              		.loc 8 276 17 view .LVU337
 1591 0070 60EE698A 		vnmul.f32	s17, s0, s19
 1592              	.LVL117:
 1593              	.LBB465:
 1594              	.LBB466:
 185:c:\users\vincius\documents\daisytoolchain-0.3.1\windows\arm-none-eabi\include\c++\10.2.1\cmath **** 
 1595              		.loc 12 185 26 view .LVU338
 1596 0074 B0EE4A0A 		vmov.f32	s0, s20
 1597 0078 FFF7FEFF 		bl	cosf
 1598              	.LVL118:
 1599 007c B0EE409A 		vmov.f32	s18, s0
 1600              	.LBE466:
 1601              	.LBE465:
 1602              	.LBB468:
 1603              	.LBB469:
 1604              		.loc 12 426 26 view .LVU339
 1605 0080 B0EE4A0A 		vmov.f32	s0, s20
 1606 0084 FFF7FEFF 		bl	sinf
 1607              	.LVL119:
 1608              	.LBE469:
 1609              	.LBE468:
 278:../../libdaisy/src/hid/disp/display.h **** 
 1610              		.loc 8 278 17 view .LVU340
 1611 0088 20EE690A 		vnmul.f32	s0, s0, s19
 275:../../libdaisy/src/hid/disp/display.h ****         start_y = -sin(start_angle_rad) * radius;
ARM GAS  C:\Users\VINCIU~1\AppData\Local\Temp\ccNNq0o9.s 			page 61


 1612              		.loc 8 275 17 view .LVU341
 1613 008c 29EE888A 		vmul.f32	s16, s19, s16
 1614              	.LVL120:
 1615              	.LBB471:
 1616              	.LBI462:
 425:c:\users\vincius\documents\daisytoolchain-0.3.1\windows\arm-none-eabi\include\c++\10.2.1\cmath ****   { return __builtin_sinf(__x); }
 1617              		.loc 12 425 3 is_stmt 1 view .LVU342
 1618              	.LBB464:
 1619              		.loc 12 426 5 view .LVU343
 1620              		.loc 12 426 5 is_stmt 0 view .LVU344
 1621              	.LBE464:
 1622              	.LBE471:
 1623              	.LBB472:
 1624              	.LBI465:
 184:c:\users\vincius\documents\daisytoolchain-0.3.1\windows\arm-none-eabi\include\c++\10.2.1\cmath ****   { return __builtin_cosf(__x); }
 1625              		.loc 12 184 3 is_stmt 1 view .LVU345
 1626              	.LBB467:
 185:c:\users\vincius\documents\daisytoolchain-0.3.1\windows\arm-none-eabi\include\c++\10.2.1\cmath **** 
 1627              		.loc 12 185 5 view .LVU346
 185:c:\users\vincius\documents\daisytoolchain-0.3.1\windows\arm-none-eabi\include\c++\10.2.1\cmath **** 
 1628              		.loc 12 185 5 is_stmt 0 view .LVU347
 1629              	.LBE467:
 1630              	.LBE472:
 277:../../libdaisy/src/hid/disp/display.h ****         end_y   = -sin(end_angle_rad) * radius;
 1631              		.loc 8 277 17 view .LVU348
 1632 0090 29EE899A 		vmul.f32	s18, s19, s18
 1633              	.LVL121:
 1634              	.LBB473:
 1635              	.LBI468:
 425:c:\users\vincius\documents\daisytoolchain-0.3.1\windows\arm-none-eabi\include\c++\10.2.1\cmath ****   { return __builtin_sinf(__x); }
 1636              		.loc 12 425 3 is_stmt 1 view .LVU349
 1637              	.LBB470:
 1638              		.loc 12 426 5 view .LVU350
 1639              		.loc 12 426 5 is_stmt 0 view .LVU351
 1640              	.LBE470:
 1641              	.LBE473:
 282:../../libdaisy/src/hid/disp/display.h ****            < 2.0f)
 1642              		.loc 8 282 25 view .LVU352
 1643 0094 70EE687A 		vsub.f32	s15, s0, s17
 281:../../libdaisy/src/hid/disp/display.h ****                + (end_y - start_y) * (end_y - start_y)
 1644              		.loc 8 281 9 view .LVU353
 1645 0098 F0EE006A 		vmov.f32	s13, #2.0e+0
 281:../../libdaisy/src/hid/disp/display.h ****                + (end_y - start_y) * (end_y - start_y)
 1646              		.loc 8 281 19 view .LVU354
 1647 009c 39EE487A 		vsub.f32	s14, s18, s16
 282:../../libdaisy/src/hid/disp/display.h ****            < 2.0f)
 1648              		.loc 8 282 36 view .LVU355
 1649 00a0 67EEA77A 		vmul.f32	s15, s15, s15
 282:../../libdaisy/src/hid/disp/display.h ****            < 2.0f)
 1650              		.loc 8 282 16 view .LVU356
 1651 00a4 E7EE077A 		vfma.f32	s15, s14, s14
 281:../../libdaisy/src/hid/disp/display.h ****                + (end_y - start_y) * (end_y - start_y)
 1652              		.loc 8 281 9 view .LVU357
 1653 00a8 F4EEE67A 		vcmpe.f32	s15, s13
 1654 00ac F1EE10FA 		vmrs	APSR_nzcv, FPSCR
 1655 00b0 06D5     		bpl	.L169
 285:../../libdaisy/src/hid/disp/display.h ****                 circle = true;
ARM GAS  C:\Users\VINCIU~1\AppData\Local\Temp\ccNNq0o9.s 			page 62


 1656              		.loc 8 285 13 view .LVU358
 1657 00b2 139B     		ldr	r3, [sp, #76]
 1658 00b4 B42B     		cmp	r3, #180
 1659 00b6 40F39680 		ble	.L110
 286:../../libdaisy/src/hid/disp/display.h ****             else
 1660              		.loc 8 286 24 view .LVU359
 1661 00ba 4FF00109 		mov	r9, #1
 1662 00be 01E0     		b	.L113
 1663              	.L169:
 264:../../libdaisy/src/hid/disp/display.h **** 
 1664              		.loc 8 264 14 view .LVU360
 1665 00c0 4FF00009 		mov	r9, #0
 1666              	.L113:
 1667              	.LVL122:
 262:../../libdaisy/src/hid/disp/display.h **** 
 1668              		.loc 8 262 27 view .LVU361
 1669 00c4 0124     		movs	r4, #1
 292:../../libdaisy/src/hid/disp/display.h ****         t_y = 0;
 1670              		.loc 8 292 13 view .LVU362
 1671 00c6 7842     		rsbs	r0, r7, #0
 1672              	.LVL123:
 293:../../libdaisy/src/hid/disp/display.h ****         err = 2 - 2 * radius;
 1673              		.loc 8 293 13 view .LVU363
 1674 00c8 4FF0000C 		mov	ip, #0
 1675 00cc 0095     		str	r5, [sp]
 294:../../libdaisy/src/hid/disp/display.h **** 
 1676              		.loc 8 294 17 view .LVU364
 1677 00ce E31B     		subs	r3, r4, r7
 262:../../libdaisy/src/hid/disp/display.h **** 
 1678              		.loc 8 262 17 view .LVU365
 1679 00d0 2146     		mov	r1, r4
 262:../../libdaisy/src/hid/disp/display.h **** 
 1680              		.loc 8 262 22 view .LVU366
 1681 00d2 2746     		mov	r7, r4
 1682              	.LVL124:
 262:../../libdaisy/src/hid/disp/display.h **** 
 1683              		.loc 8 262 12 view .LVU367
 1684 00d4 2246     		mov	r2, r4
 294:../../libdaisy/src/hid/disp/display.h **** 
 1685              		.loc 8 294 17 view .LVU368
 1686 00d6 A340     		lsls	r3, r3, r4
 1687              	.LVL125:
 1688              	.L139:
 298:../../libdaisy/src/hid/disp/display.h ****             {
 1689              		.loc 8 298 13 view .LVU369
 1690 00d8 B9F1000F 		cmp	r9, #0
 1691 00dc 6AD1     		bne	.L115
 303:../../libdaisy/src/hid/disp/display.h ****                 t_exy  = end_x * t_y;
 1692              		.loc 8 303 34 view .LVU370
 1693 00de 4242     		rsbs	r2, r0, #0
 1694              	.LVL126:
 300:../../libdaisy/src/hid/disp/display.h ****                 t_syx  = start_y * t_x;
 1695              		.loc 8 300 24 view .LVU371
 1696 00e0 06EE90CA 		vmov	s13, ip	@ int
 302:../../libdaisy/src/hid/disp/display.h ****                 t_synx = start_y * -t_x;
 1697              		.loc 8 302 34 view .LVU372
 1698 00e4 CCF10001 		rsb	r1, ip, #0
ARM GAS  C:\Users\VINCIU~1\AppData\Local\Temp\ccNNq0o9.s 			page 63


 1699              	.LVL127:
 303:../../libdaisy/src/hid/disp/display.h ****                 t_exy  = end_x * t_y;
 1700              		.loc 8 303 34 view .LVU373
 1701 00e8 07EE102A 		vmov	s14, r2	@ int
 300:../../libdaisy/src/hid/disp/display.h ****                 t_syx  = start_y * t_x;
 1702              		.loc 8 300 24 view .LVU374
 1703 00ec B8EEE66A 		vcvt.f32.s32	s12, s13
 302:../../libdaisy/src/hid/disp/display.h ****                 t_synx = start_y * -t_x;
 1704              		.loc 8 302 34 view .LVU375
 1705 00f0 07EE901A 		vmov	s15, r1	@ int
 301:../../libdaisy/src/hid/disp/display.h ****                 t_sxny = start_x * -t_y;
 1706              		.loc 8 301 24 view .LVU376
 1707 00f4 06EE900A 		vmov	s13, r0	@ int
 303:../../libdaisy/src/hid/disp/display.h ****                 t_exy  = end_x * t_y;
 1708              		.loc 8 303 34 view .LVU377
 1709 00f8 B8EEC77A 		vcvt.f32.s32	s14, s14
 309:../../libdaisy/src/hid/disp/display.h ****                 {
 1710              		.loc 8 309 17 view .LVU378
 1711 00fc 139A     		ldr	r2, [sp, #76]
 300:../../libdaisy/src/hid/disp/display.h ****                 t_syx  = start_y * t_x;
 1712              		.loc 8 300 24 view .LVU379
 1713 00fe 66EE084A 		vmul.f32	s9, s12, s16
 1714              	.LVL128:
 302:../../libdaisy/src/hid/disp/display.h ****                 t_synx = start_y * -t_x;
 1715              		.loc 8 302 34 view .LVU380
 1716 0102 F8EEE77A 		vcvt.f32.s32	s15, s15
 309:../../libdaisy/src/hid/disp/display.h ****                 {
 1717              		.loc 8 309 17 view .LVU381
 1718 0106 B42A     		cmp	r2, #180
 303:../../libdaisy/src/hid/disp/display.h ****                 t_exy  = end_x * t_y;
 1719              		.loc 8 303 24 view .LVU382
 1720 0108 27EE284A 		vmul.f32	s8, s14, s17
 301:../../libdaisy/src/hid/disp/display.h ****                 t_sxny = start_x * -t_y;
 1721              		.loc 8 301 24 view .LVU383
 1722 010c F8EEE66A 		vcvt.f32.s32	s13, s13
 302:../../libdaisy/src/hid/disp/display.h ****                 t_synx = start_y * -t_x;
 1723              		.loc 8 302 24 view .LVU384
 1724 0110 67EE885A 		vmul.f32	s11, s15, s16
 311:../../libdaisy/src/hid/disp/display.h ****                     d2 = (t_sxy - t_syx < 0 || t_exy - t_eyx > 0);
 1725              		.loc 8 311 33 view .LVU385
 1726 0114 74EEC43A 		vsub.f32	s7, s9, s8
 301:../../libdaisy/src/hid/disp/display.h ****                 t_sxny = start_x * -t_y;
 1727              		.loc 8 301 24 view .LVU386
 1728 0118 26EEA85A 		vmul.f32	s10, s13, s17
 1729              	.LVL129:
 304:../../libdaisy/src/hid/disp/display.h ****                 t_eyx  = end_y * t_x;
 1730              		.loc 8 304 24 view .LVU387
 1731 011c 26EE096A 		vmul.f32	s12, s12, s18
 1732              	.LVL130:
 305:../../libdaisy/src/hid/disp/display.h ****                 t_exny = end_x * -t_y;
 1733              		.loc 8 305 24 view .LVU388
 1734 0120 66EE806A 		vmul.f32	s13, s13, s0
 1735              	.LVL131:
 306:../../libdaisy/src/hid/disp/display.h ****                 t_eynx = end_y * -t_x;
 1736              		.loc 8 306 24 view .LVU389
 1737 0124 67EE897A 		vmul.f32	s15, s15, s18
 1738              	.LVL132:
ARM GAS  C:\Users\VINCIU~1\AppData\Local\Temp\ccNNq0o9.s 			page 64


 307:../../libdaisy/src/hid/disp/display.h **** 
 1739              		.loc 8 307 24 view .LVU390
 1740 0128 27EE007A 		vmul.f32	s14, s14, s0
 1741              	.LVL133:
 311:../../libdaisy/src/hid/disp/display.h ****                     d2 = (t_sxy - t_syx < 0 || t_exy - t_eyx > 0);
 1742              		.loc 8 311 46 view .LVU391
 1743 012c F5EEC03A 		vcmpe.f32	s7, #0
 309:../../libdaisy/src/hid/disp/display.h ****                 {
 1744              		.loc 8 309 17 view .LVU392
 1745 0130 40F3F280 		ble	.L116
 311:../../libdaisy/src/hid/disp/display.h ****                     d2 = (t_sxy - t_syx < 0 || t_exy - t_eyx > 0);
 1746              		.loc 8 311 46 view .LVU393
 1747 0134 F1EE10FA 		vmrs	APSR_nzcv, FPSCR
 1748 0138 00F17F81 		bmi	.L142
 311:../../libdaisy/src/hid/disp/display.h ****                     d2 = (t_sxy - t_syx < 0 || t_exy - t_eyx > 0);
 1749              		.loc 8 311 55 discriminator 2 view .LVU394
 1750 013c 76EE473A 		vsub.f32	s7, s12, s14
 312:../../libdaisy/src/hid/disp/display.h ****                     d3 = (t_sxny - t_syx < 0 || t_exny - t_eyx > 0);
 1751              		.loc 8 312 33 discriminator 2 view .LVU395
 1752 0140 74EEC54A 		vsub.f32	s9, s9, s10
 1753              	.LVL134:
 311:../../libdaisy/src/hid/disp/display.h ****                     d2 = (t_sxy - t_syx < 0 || t_exy - t_eyx > 0);
 1754              		.loc 8 311 46 discriminator 2 view .LVU396
 1755 0144 F5EEC03A 		vcmpe.f32	s7, #0
 1756 0148 F1EE10FA 		vmrs	APSR_nzcv, FPSCR
 312:../../libdaisy/src/hid/disp/display.h ****                     d3 = (t_sxny - t_syx < 0 || t_exny - t_eyx > 0);
 1757              		.loc 8 312 45 discriminator 2 view .LVU397
 1758 014c F5EEC04A 		vcmpe.f32	s9, #0
 311:../../libdaisy/src/hid/disp/display.h ****                     d2 = (t_sxy - t_syx < 0 || t_exy - t_eyx > 0);
 1759              		.loc 8 311 46 discriminator 2 view .LVU398
 1760 0150 CCBF     		ite	gt
 1761 0152 0122     		movgt	r2, #1
 1762 0154 0022     		movle	r2, #0
 1763              	.LVL135:
 312:../../libdaisy/src/hid/disp/display.h ****                     d3 = (t_sxny - t_syx < 0 || t_exny - t_eyx > 0);
 1764              		.loc 8 312 45 discriminator 2 view .LVU399
 1765 0156 F1EE10FA 		vmrs	APSR_nzcv, FPSCR
 1766 015a 00F17781 		bmi	.L143
 1767              	.L185:
 312:../../libdaisy/src/hid/disp/display.h ****                     d3 = (t_sxny - t_syx < 0 || t_exny - t_eyx > 0);
 1768              		.loc 8 312 54 discriminator 2 view .LVU400
 1769 015e 36EE666A 		vsub.f32	s12, s12, s13
 1770              	.LVL136:
 313:../../libdaisy/src/hid/disp/display.h ****                     d4 = (t_sxny - t_synx < 0 || t_exny - t_eynx > 0);
 1771              		.loc 8 313 34 discriminator 2 view .LVU401
 1772 0162 35EEC55A 		vsub.f32	s10, s11, s10
 1773              	.LVL137:
 312:../../libdaisy/src/hid/disp/display.h ****                     d3 = (t_sxny - t_syx < 0 || t_exny - t_eyx > 0);
 1774              		.loc 8 312 45 discriminator 2 view .LVU402
 1775 0166 B5EEC06A 		vcmpe.f32	s12, #0
 1776 016a F1EE10FA 		vmrs	APSR_nzcv, FPSCR
 313:../../libdaisy/src/hid/disp/display.h ****                     d4 = (t_sxny - t_synx < 0 || t_exny - t_eynx > 0);
 1777              		.loc 8 313 46 discriminator 2 view .LVU403
 1778 016e B5EEC05A 		vcmpe.f32	s10, #0
 312:../../libdaisy/src/hid/disp/display.h ****                     d3 = (t_sxny - t_syx < 0 || t_exny - t_eyx > 0);
 1779              		.loc 8 312 45 discriminator 2 view .LVU404
 1780 0172 CCBF     		ite	gt
ARM GAS  C:\Users\VINCIU~1\AppData\Local\Temp\ccNNq0o9.s 			page 65


 1781 0174 0121     		movgt	r1, #1
 1782 0176 0021     		movle	r1, #0
 1783              	.LVL138:
 313:../../libdaisy/src/hid/disp/display.h ****                     d4 = (t_sxny - t_synx < 0 || t_exny - t_eynx > 0);
 1784              		.loc 8 313 46 discriminator 2 view .LVU405
 1785 0178 F1EE10FA 		vmrs	APSR_nzcv, FPSCR
 1786 017c 00F16F81 		bmi	.L144
 1787              	.L186:
 313:../../libdaisy/src/hid/disp/display.h ****                     d4 = (t_sxny - t_synx < 0 || t_exny - t_eynx > 0);
 1788              		.loc 8 313 56 discriminator 2 view .LVU406
 1789 0180 77EEE66A 		vsub.f32	s13, s15, s13
 1790              	.LVL139:
 313:../../libdaisy/src/hid/disp/display.h ****                     d4 = (t_sxny - t_synx < 0 || t_exny - t_eynx > 0);
 1791              		.loc 8 313 46 discriminator 2 view .LVU407
 1792 0184 F5EEC06A 		vcmpe.f32	s13, #0
 1793 0188 F1EE10FA 		vmrs	APSR_nzcv, FPSCR
 1794 018c CCBF     		ite	gt
 1795 018e 0127     		movgt	r7, #1
 1796              	.LVL140:
 313:../../libdaisy/src/hid/disp/display.h ****                     d4 = (t_sxny - t_synx < 0 || t_exny - t_eynx > 0);
 1797              		.loc 8 313 46 discriminator 2 view .LVU408
 1798 0190 0027     		movle	r7, #0
 1799              	.L119:
 1800              	.LVL141:
 314:../../libdaisy/src/hid/disp/display.h ****                 }
 1801              		.loc 8 314 34 discriminator 6 view .LVU409
 1802 0192 75EEC45A 		vsub.f32	s11, s11, s8
 1803              	.LVL142:
 314:../../libdaisy/src/hid/disp/display.h ****                 }
 1804              		.loc 8 314 47 discriminator 6 view .LVU410
 1805 0196 F5EEC05A 		vcmpe.f32	s11, #0
 1806 019a F1EE10FA 		vmrs	APSR_nzcv, FPSCR
 1807 019e 00F14781 		bmi	.L145
 1808              	.L175:
 321:../../libdaisy/src/hid/disp/display.h ****                 }
 1809              		.loc 8 321 57 discriminator 1 view .LVU411
 1810 01a2 77EEC77A 		vsub.f32	s15, s15, s14
 1811              	.LVL143:
 321:../../libdaisy/src/hid/disp/display.h ****                 }
 1812              		.loc 8 321 47 discriminator 1 view .LVU412
 1813 01a6 F5EEC07A 		vcmpe.f32	s15, #0
 1814 01aa F1EE10FA 		vmrs	APSR_nzcv, FPSCR
 1815 01ae CCBF     		ite	gt
 1816 01b0 0124     		movgt	r4, #1
 1817              	.LVL144:
 321:../../libdaisy/src/hid/disp/display.h ****                 }
 1818              		.loc 8 321 47 discriminator 1 view .LVU413
 1819 01b2 0024     		movle	r4, #0
 1820              	.LVL145:
 1821              	.L115:
 325:../../libdaisy/src/hid/disp/display.h ****                 ((ChildType*)(this))
 1822              		.loc 8 325 13 view .LVU414
 1823 01b4 002A     		cmp	r2, #0
 1824 01b6 40F08A80 		bne	.L176
 1825              	.L127:
 328:../../libdaisy/src/hid/disp/display.h ****                 ((ChildType*)(this))
 1826              		.loc 8 328 13 view .LVU415
ARM GAS  C:\Users\VINCIU~1\AppData\Local\Temp\ccNNq0o9.s 			page 66


 1827 01ba 0029     		cmp	r1, #0
 1828 01bc 64D1     		bne	.L177
 1829              	.L129:
 331:../../libdaisy/src/hid/disp/display.h ****                 ((ChildType*)(this))
 1830              		.loc 8 331 13 view .LVU416
 1831 01be BFB9     		cbnz	r7, .L178
 1832              	.L131:
 334:../../libdaisy/src/hid/disp/display.h ****                 ((ChildType*)(this))
 1833              		.loc 8 334 13 view .LVU417
 1834 01c0 C4BB     		cbnz	r4, .L179
 1835              	.L133:
 1836              	.LVL146:
 339:../../libdaisy/src/hid/disp/display.h ****             {
 1837              		.loc 8 339 13 view .LVU418
 1838 01c2 9C45     		cmp	ip, r3
 1839 01c4 58DB     		blt	.L150
 1840              	.L181:
 341:../../libdaisy/src/hid/disp/display.h ****                 err = err + (t_y * 2 + 1);
 1841              		.loc 8 341 17 view .LVU419
 1842 01c6 0CF1010C 		add	ip, ip, #1
 1843              	.LVL147:
 342:../../libdaisy/src/hid/disp/display.h ****                 if(-t_x == t_y && e2 <= t_x)
 1844              		.loc 8 342 38 view .LVU420
 1845 01ca 03EB4C0E 		add	lr, r3, ip, lsl #1
 343:../../libdaisy/src/hid/disp/display.h ****                 {
 1846              		.loc 8 343 17 view .LVU421
 1847 01ce 1CEB000F 		cmn	ip, r0
 342:../../libdaisy/src/hid/disp/display.h ****                 if(-t_x == t_y && e2 <= t_x)
 1848              		.loc 8 342 21 view .LVU422
 1849 01d2 0EF1010E 		add	lr, lr, #1
 1850              	.LVL148:
 343:../../libdaisy/src/hid/disp/display.h ****                 {
 1851              		.loc 8 343 17 view .LVU423
 1852 01d6 00F0C080 		beq	.L180
 1853              	.LVL149:
 1854              	.L135:
 348:../../libdaisy/src/hid/disp/display.h ****             {
 1855              		.loc 8 348 13 view .LVU424
 1856 01da 9842     		cmp	r0, r3
 1857 01dc 4FDB     		blt	.L136
 1858              	.L151:
 348:../../libdaisy/src/hid/disp/display.h ****             {
 1859              		.loc 8 348 13 view .LVU425
 1860 01de 7346     		mov	r3, lr
 1861              	.LVL150:
 1862              	.L137:
 353:../../libdaisy/src/hid/disp/display.h ****     }
 1863              		.loc 8 353 21 is_stmt 1 view .LVU426
 1864 01e0 0028     		cmp	r0, #0
 1865 01e2 7FF779AF 		ble	.L139
 1866              	.LVL151:
 1867              	.L110:
 354:../../libdaisy/src/hid/disp/display.h **** 
 1868              		.loc 8 354 5 is_stmt 0 view .LVU427
 1869 01e6 03B0     		add	sp, sp, #12
 1870              		.cfi_remember_state
 1871              		.cfi_def_cfa_offset 60
ARM GAS  C:\Users\VINCIU~1\AppData\Local\Temp\ccNNq0o9.s 			page 67


 1872              		@ sp needed
 1873 01e8 BDEC068B 		vldm	sp!, {d8-d10}
 1874              		.cfi_restore 84
 1875              		.cfi_restore 85
 1876              		.cfi_restore 82
 1877              		.cfi_restore 83
 1878              		.cfi_restore 80
 1879              		.cfi_restore 81
 1880              		.cfi_def_cfa_offset 36
 1881              	.LVL152:
 354:../../libdaisy/src/hid/disp/display.h **** 
 1882              		.loc 8 354 5 view .LVU428
 1883 01ec BDE8F08F 		pop	{r4, r5, r6, r7, r8, r9, r10, fp, pc}
 1884              	.LVL153:
 1885              	.L178:
 1886              		.cfi_restore_state
 333:../../libdaisy/src/hid/disp/display.h ****             if(d4)
 1887              		.loc 8 333 43 view .LVU429
 1888 01f0 009D     		ldr	r5, [sp]
 1889 01f2 A6EB0C0E 		sub	lr, r6, ip
 1890 01f6 00EB050A 		add	r10, r0, r5
 1891              	.LVL154:
 1892              	.LBB474:
 1893              	.LBI474:
  41:../../libdaisy/src/hid/disp/oled_display.h ****     {
 1894              		.loc 7 41 10 is_stmt 1 view .LVU430
 1895              	.LBB475:
 1896              	.LBI475:
 239:../../libdaisy/src/dev/oled_ssd130x.h ****     {
 1897              		.loc 9 239 10 view .LVU431
 1898              	.LBB476:
 241:../../libdaisy/src/dev/oled_ssd130x.h ****             return;
 1899              		.loc 9 241 9 is_stmt 0 view .LVU432
 1900 01fa BAF17F0F 		cmp	r10, #127
 1901 01fe DFD8     		bhi	.L131
 1902 0200 BEF13F0F 		cmp	lr, #63
 1903 0204 DCD8     		bhi	.L131
 244:../../libdaisy/src/dev/oled_ssd130x.h ****         else
 1904              		.loc 9 244 28 view .LVU433
 1905 0206 4FEADE0B 		lsr	fp, lr, #3
 243:../../libdaisy/src/dev/oled_ssd130x.h ****             buffer_[x + (y / 8) * width] |= (1 << (y % 8));
 1906              		.loc 9 243 9 view .LVU434
 1907 020a 019D     		ldr	r5, [sp, #4]
 244:../../libdaisy/src/dev/oled_ssd130x.h ****         else
 1908              		.loc 9 244 42 view .LVU435
 1909 020c 0AEBCB1A 		add	r10, r10, fp, lsl #7
 1910              	.LVL155:
 243:../../libdaisy/src/dev/oled_ssd130x.h ****             buffer_[x + (y / 8) * width] |= (1 << (y % 8));
 1911              		.loc 9 243 9 view .LVU436
 1912 0210 002D     		cmp	r5, #0
 1913 0212 00F0B180 		beq	.L132
 244:../../libdaisy/src/dev/oled_ssd130x.h ****         else
 1914              		.loc 9 244 54 view .LVU437
 1915 0216 0EF0070B 		and	fp, lr, #7
 244:../../libdaisy/src/dev/oled_ssd130x.h ****         else
 1916              		.loc 9 244 42 view .LVU438
 1917 021a C244     		add	r10, r10, r8
ARM GAS  C:\Users\VINCIU~1\AppData\Local\Temp\ccNNq0o9.s 			page 68


 244:../../libdaisy/src/dev/oled_ssd130x.h ****         else
 1918              		.loc 9 244 48 view .LVU439
 1919 021c 4FF0010E 		mov	lr, #1
 1920              	.LVL156:
 244:../../libdaisy/src/dev/oled_ssd130x.h ****         else
 1921              		.loc 9 244 48 view .LVU440
 1922 0220 0EFA0BFE 		lsl	lr, lr, fp
 244:../../libdaisy/src/dev/oled_ssd130x.h ****         else
 1923              		.loc 9 244 42 view .LVU441
 1924 0224 9AF814B0 		ldrb	fp, [r10, #20]	@ zero_extendqisi2
 1925 0228 4EEA0B0E 		orr	lr, lr, fp
 1926 022c 8AF814E0 		strb	lr, [r10, #20]
 1927              	.LVL157:
 244:../../libdaisy/src/dev/oled_ssd130x.h ****         else
 1928              		.loc 9 244 42 view .LVU442
 1929              	.LBE476:
 1930              	.LBE475:
 1931              	.LBE474:
 334:../../libdaisy/src/hid/disp/display.h ****                 ((ChildType*)(this))
 1932              		.loc 8 334 13 view .LVU443
 1933 0230 002C     		cmp	r4, #0
 1934 0232 C6D0     		beq	.L133
 1935              	.L179:
 336:../../libdaisy/src/hid/disp/display.h **** 
 1936              		.loc 8 336 43 view .LVU444
 1937 0234 009D     		ldr	r5, [sp]
 1938 0236 A6EB0C0E 		sub	lr, r6, ip
 1939 023a A5EB000A 		sub	r10, r5, r0
 1940              	.LVL158:
 1941              	.LBB481:
 1942              	.LBI481:
  41:../../libdaisy/src/hid/disp/oled_display.h ****     {
 1943              		.loc 7 41 10 is_stmt 1 view .LVU445
 1944              	.LBB482:
 1945              	.LBI482:
 239:../../libdaisy/src/dev/oled_ssd130x.h ****     {
 1946              		.loc 9 239 10 view .LVU446
 1947              	.LBB483:
 241:../../libdaisy/src/dev/oled_ssd130x.h ****             return;
 1948              		.loc 9 241 9 is_stmt 0 view .LVU447
 1949 023e BAF17F0F 		cmp	r10, #127
 1950 0242 BED8     		bhi	.L133
 1951 0244 BEF13F0F 		cmp	lr, #63
 1952 0248 BBD8     		bhi	.L133
 244:../../libdaisy/src/dev/oled_ssd130x.h ****         else
 1953              		.loc 9 244 28 view .LVU448
 1954 024a 4FEADE0B 		lsr	fp, lr, #3
 243:../../libdaisy/src/dev/oled_ssd130x.h ****             buffer_[x + (y / 8) * width] |= (1 << (y % 8));
 1955              		.loc 9 243 9 view .LVU449
 1956 024e 019D     		ldr	r5, [sp, #4]
 244:../../libdaisy/src/dev/oled_ssd130x.h ****         else
 1957              		.loc 9 244 42 view .LVU450
 1958 0250 0AEBCB1A 		add	r10, r10, fp, lsl #7
 1959              	.LVL159:
 243:../../libdaisy/src/dev/oled_ssd130x.h ****             buffer_[x + (y / 8) * width] |= (1 << (y % 8));
 1960              		.loc 9 243 9 view .LVU451
 1961 0254 002D     		cmp	r5, #0
ARM GAS  C:\Users\VINCIU~1\AppData\Local\Temp\ccNNq0o9.s 			page 69


 1962 0256 00F0AE80 		beq	.L134
 244:../../libdaisy/src/dev/oled_ssd130x.h ****         else
 1963              		.loc 9 244 54 view .LVU452
 1964 025a 0EF0070B 		and	fp, lr, #7
 244:../../libdaisy/src/dev/oled_ssd130x.h ****         else
 1965              		.loc 9 244 42 view .LVU453
 1966 025e C244     		add	r10, r10, r8
 244:../../libdaisy/src/dev/oled_ssd130x.h ****         else
 1967              		.loc 9 244 48 view .LVU454
 1968 0260 4FF0010E 		mov	lr, #1
 1969              	.LVL160:
 244:../../libdaisy/src/dev/oled_ssd130x.h ****         else
 1970              		.loc 9 244 48 view .LVU455
 1971              	.LBE483:
 1972              	.LBE482:
 1973              	.LBE481:
 339:../../libdaisy/src/hid/disp/display.h ****             {
 1974              		.loc 8 339 13 view .LVU456
 1975 0264 9C45     		cmp	ip, r3
 1976              	.LBB490:
 1977              	.LBB488:
 1978              	.LBB486:
 244:../../libdaisy/src/dev/oled_ssd130x.h ****         else
 1979              		.loc 9 244 48 view .LVU457
 1980 0266 0EFA0BFE 		lsl	lr, lr, fp
 244:../../libdaisy/src/dev/oled_ssd130x.h ****         else
 1981              		.loc 9 244 42 view .LVU458
 1982 026a 9AF814B0 		ldrb	fp, [r10, #20]	@ zero_extendqisi2
 1983 026e 4EEA0B0E 		orr	lr, lr, fp
 1984 0272 8AF814E0 		strb	lr, [r10, #20]
 1985              	.LVL161:
 244:../../libdaisy/src/dev/oled_ssd130x.h ****         else
 1986              		.loc 9 244 42 view .LVU459
 1987              	.LBE486:
 1988              	.LBE488:
 1989              	.LBE490:
 339:../../libdaisy/src/hid/disp/display.h ****             {
 1990              		.loc 8 339 13 view .LVU460
 1991 0276 A6DA     		bge	.L181
 1992              	.L150:
 348:../../libdaisy/src/hid/disp/display.h ****             {
 1993              		.loc 8 348 13 view .LVU461
 1994 0278 9842     		cmp	r0, r3
 1995 027a 9E46     		mov	lr, r3
 1996              	.LVL162:
 348:../../libdaisy/src/hid/disp/display.h ****             {
 1997              		.loc 8 348 13 view .LVU462
 1998 027c AFDA     		bge	.L151
 1999              	.LVL163:
 2000              	.L136:
 350:../../libdaisy/src/hid/disp/display.h ****                 err = err + (t_x * 2 + 1);
 2001              		.loc 8 350 17 view .LVU463
 2002 027e 0130     		adds	r0, r0, #1
 2003              	.LVL164:
 351:../../libdaisy/src/hid/disp/display.h ****             }
 2004              		.loc 8 351 38 view .LVU464
 2005 0280 0EEB4003 		add	r3, lr, r0, lsl #1
ARM GAS  C:\Users\VINCIU~1\AppData\Local\Temp\ccNNq0o9.s 			page 70


 351:../../libdaisy/src/hid/disp/display.h ****             }
 2006              		.loc 8 351 21 view .LVU465
 2007 0284 0133     		adds	r3, r3, #1
 2008              	.LVL165:
 351:../../libdaisy/src/hid/disp/display.h ****             }
 2009              		.loc 8 351 21 view .LVU466
 2010 0286 ABE7     		b	.L137
 2011              	.L177:
 330:../../libdaisy/src/hid/disp/display.h ****             if(d3)
 2012              		.loc 8 330 43 view .LVU467
 2013 0288 009D     		ldr	r5, [sp]
 2014 028a 0CEB060E 		add	lr, ip, r6
 2015 028e 00EB050A 		add	r10, r0, r5
 2016              	.LVL166:
 2017              	.LBB491:
 2018              	.LBI491:
  41:../../libdaisy/src/hid/disp/oled_display.h ****     {
 2019              		.loc 7 41 10 is_stmt 1 view .LVU468
 2020              	.LBB492:
 2021              	.LBI492:
 239:../../libdaisy/src/dev/oled_ssd130x.h ****     {
 2022              		.loc 9 239 10 view .LVU469
 2023              	.LBB493:
 241:../../libdaisy/src/dev/oled_ssd130x.h ****             return;
 2024              		.loc 9 241 9 is_stmt 0 view .LVU470
 2025 0292 BAF17F0F 		cmp	r10, #127
 2026 0296 92D8     		bhi	.L129
 2027 0298 BEF13F0F 		cmp	lr, #63
 2028 029c 8FD8     		bhi	.L129
 244:../../libdaisy/src/dev/oled_ssd130x.h ****         else
 2029              		.loc 9 244 28 view .LVU471
 2030 029e 4FEADE0B 		lsr	fp, lr, #3
 243:../../libdaisy/src/dev/oled_ssd130x.h ****             buffer_[x + (y / 8) * width] |= (1 << (y % 8));
 2031              		.loc 9 243 9 view .LVU472
 2032 02a2 019D     		ldr	r5, [sp, #4]
 244:../../libdaisy/src/dev/oled_ssd130x.h ****         else
 2033              		.loc 9 244 42 view .LVU473
 2034 02a4 0AEBCB1A 		add	r10, r10, fp, lsl #7
 2035              	.LVL167:
 243:../../libdaisy/src/dev/oled_ssd130x.h ****             buffer_[x + (y / 8) * width] |= (1 << (y % 8));
 2036              		.loc 9 243 9 view .LVU474
 2037 02a8 002D     		cmp	r5, #0
 2038 02aa 73D0     		beq	.L130
 244:../../libdaisy/src/dev/oled_ssd130x.h ****         else
 2039              		.loc 9 244 54 view .LVU475
 2040 02ac 0EF0070B 		and	fp, lr, #7
 244:../../libdaisy/src/dev/oled_ssd130x.h ****         else
 2041              		.loc 9 244 42 view .LVU476
 2042 02b0 C244     		add	r10, r10, r8
 244:../../libdaisy/src/dev/oled_ssd130x.h ****         else
 2043              		.loc 9 244 48 view .LVU477
 2044 02b2 4FF0010E 		mov	lr, #1
 2045              	.LVL168:
 244:../../libdaisy/src/dev/oled_ssd130x.h ****         else
 2046              		.loc 9 244 48 view .LVU478
 2047 02b6 0EFA0BFE 		lsl	lr, lr, fp
 244:../../libdaisy/src/dev/oled_ssd130x.h ****         else
ARM GAS  C:\Users\VINCIU~1\AppData\Local\Temp\ccNNq0o9.s 			page 71


 2048              		.loc 9 244 42 view .LVU479
 2049 02ba 9AF814B0 		ldrb	fp, [r10, #20]	@ zero_extendqisi2
 2050 02be 4EEA0B0E 		orr	lr, lr, fp
 2051 02c2 8AF814E0 		strb	lr, [r10, #20]
 2052              	.LVL169:
 244:../../libdaisy/src/dev/oled_ssd130x.h ****         else
 2053              		.loc 9 244 42 view .LVU480
 2054              	.LBE493:
 2055              	.LBE492:
 2056              	.LBE491:
 331:../../libdaisy/src/hid/disp/display.h ****                 ((ChildType*)(this))
 2057              		.loc 8 331 13 view .LVU481
 2058 02c6 002F     		cmp	r7, #0
 2059 02c8 3FF47AAF 		beq	.L131
 2060 02cc 90E7     		b	.L178
 2061              	.L176:
 327:../../libdaisy/src/hid/disp/display.h ****             if(d2)
 2062              		.loc 8 327 43 view .LVU482
 2063 02ce 009D     		ldr	r5, [sp]
 2064 02d0 0CEB060E 		add	lr, ip, r6
 2065 02d4 A5EB000A 		sub	r10, r5, r0
 2066              	.LVL170:
 2067              	.LBB498:
 2068              	.LBI498:
  41:../../libdaisy/src/hid/disp/oled_display.h ****     {
 2069              		.loc 7 41 10 is_stmt 1 view .LVU483
 2070              	.LBB499:
 2071              	.LBI499:
 239:../../libdaisy/src/dev/oled_ssd130x.h ****     {
 2072              		.loc 9 239 10 view .LVU484
 2073              	.LBB500:
 241:../../libdaisy/src/dev/oled_ssd130x.h ****             return;
 2074              		.loc 9 241 9 is_stmt 0 view .LVU485
 2075 02d8 BAF17F0F 		cmp	r10, #127
 2076 02dc 3FF66DAF 		bhi	.L127
 2077 02e0 BEF13F0F 		cmp	lr, #63
 2078 02e4 3FF669AF 		bhi	.L127
 244:../../libdaisy/src/dev/oled_ssd130x.h ****         else
 2079              		.loc 9 244 28 view .LVU486
 2080 02e8 4FEADE0B 		lsr	fp, lr, #3
 243:../../libdaisy/src/dev/oled_ssd130x.h ****             buffer_[x + (y / 8) * width] |= (1 << (y % 8));
 2081              		.loc 9 243 9 view .LVU487
 2082 02ec 019D     		ldr	r5, [sp, #4]
 244:../../libdaisy/src/dev/oled_ssd130x.h ****         else
 2083              		.loc 9 244 42 view .LVU488
 2084 02ee 0AEBCB1A 		add	r10, r10, fp, lsl #7
 2085              	.LVL171:
 243:../../libdaisy/src/dev/oled_ssd130x.h ****             buffer_[x + (y / 8) * width] |= (1 << (y % 8));
 2086              		.loc 9 243 9 view .LVU489
 2087 02f2 002D     		cmp	r5, #0
 2088 02f4 6DD0     		beq	.L128
 244:../../libdaisy/src/dev/oled_ssd130x.h ****         else
 2089              		.loc 9 244 54 view .LVU490
 2090 02f6 0EF0070B 		and	fp, lr, #7
 244:../../libdaisy/src/dev/oled_ssd130x.h ****         else
 2091              		.loc 9 244 42 view .LVU491
 2092 02fa C244     		add	r10, r10, r8
ARM GAS  C:\Users\VINCIU~1\AppData\Local\Temp\ccNNq0o9.s 			page 72


 244:../../libdaisy/src/dev/oled_ssd130x.h ****         else
 2093              		.loc 9 244 48 view .LVU492
 2094 02fc 4FF0010E 		mov	lr, #1
 2095              	.LVL172:
 244:../../libdaisy/src/dev/oled_ssd130x.h ****         else
 2096              		.loc 9 244 48 view .LVU493
 2097 0300 0EFA0BFE 		lsl	lr, lr, fp
 244:../../libdaisy/src/dev/oled_ssd130x.h ****         else
 2098              		.loc 9 244 42 view .LVU494
 2099 0304 9AF814B0 		ldrb	fp, [r10, #20]	@ zero_extendqisi2
 2100 0308 4EEA0B0E 		orr	lr, lr, fp
 2101 030c 8AF814E0 		strb	lr, [r10, #20]
 2102              	.LVL173:
 244:../../libdaisy/src/dev/oled_ssd130x.h ****         else
 2103              		.loc 9 244 42 view .LVU495
 2104              	.LBE500:
 2105              	.LBE499:
 2106              	.LBE498:
 328:../../libdaisy/src/hid/disp/display.h ****                 ((ChildType*)(this))
 2107              		.loc 8 328 13 view .LVU496
 2108 0310 0029     		cmp	r1, #0
 2109 0312 3FF454AF 		beq	.L129
 2110 0316 B7E7     		b	.L177
 2111              	.LVL174:
 2112              	.L116:
 318:../../libdaisy/src/hid/disp/display.h ****                     d2 = (t_sxy - t_syx < 0 && t_exy - t_eyx > 0);
 2113              		.loc 8 318 46 view .LVU497
 2114 0318 F1EE10FA 		vmrs	APSR_nzcv, FPSCR
 2115 031c 7ED4     		bmi	.L182
 2116 031e 4A46     		mov	r2, r9
 2117              	.L120:
 2118              	.LVL175:
 319:../../libdaisy/src/hid/disp/display.h ****                     d3 = (t_sxny - t_syx < 0 && t_exny - t_eyx > 0);
 2119              		.loc 8 319 33 discriminator 6 view .LVU498
 2120 0320 74EEC54A 		vsub.f32	s9, s9, s10
 2121              	.LVL176:
 319:../../libdaisy/src/hid/disp/display.h ****                     d3 = (t_sxny - t_syx < 0 && t_exny - t_eyx > 0);
 2122              		.loc 8 319 45 discriminator 6 view .LVU499
 2123 0324 F5EEC04A 		vcmpe.f32	s9, #0
 2124 0328 F1EE10FA 		vmrs	APSR_nzcv, FPSCR
 2125 032c 6CD4     		bmi	.L183
 319:../../libdaisy/src/hid/disp/display.h ****                     d3 = (t_sxny - t_syx < 0 && t_exny - t_eyx > 0);
 2126              		.loc 8 319 45 view .LVU500
 2127 032e 0021     		movs	r1, #0
 2128              	.LVL177:
 2129              	.L122:
 320:../../libdaisy/src/hid/disp/display.h ****                     d4 = (t_sxny - t_synx < 0 && t_exny - t_eynx > 0);
 2130              		.loc 8 320 34 discriminator 6 view .LVU501
 2131 0330 35EEC55A 		vsub.f32	s10, s11, s10
 2132              	.LVL178:
 320:../../libdaisy/src/hid/disp/display.h ****                     d4 = (t_sxny - t_synx < 0 && t_exny - t_eynx > 0);
 2133              		.loc 8 320 46 discriminator 6 view .LVU502
 2134 0334 B5EEC05A 		vcmpe.f32	s10, #0
 2135 0338 F1EE10FA 		vmrs	APSR_nzcv, FPSCR
 2136 033c 5AD4     		bmi	.L184
 320:../../libdaisy/src/hid/disp/display.h ****                     d4 = (t_sxny - t_synx < 0 && t_exny - t_eynx > 0);
 2137              		.loc 8 320 46 view .LVU503
ARM GAS  C:\Users\VINCIU~1\AppData\Local\Temp\ccNNq0o9.s 			page 73


 2138 033e 0027     		movs	r7, #0
 2139              	.LVL179:
 2140              	.L124:
 321:../../libdaisy/src/hid/disp/display.h ****                 }
 2141              		.loc 8 321 34 discriminator 6 view .LVU504
 2142 0340 75EEC45A 		vsub.f32	s11, s11, s8
 2143              	.LVL180:
 321:../../libdaisy/src/hid/disp/display.h ****                 }
 2144              		.loc 8 321 47 discriminator 6 view .LVU505
 2145 0344 F5EEC05A 		vcmpe.f32	s11, #0
 2146 0348 F1EE10FA 		vmrs	APSR_nzcv, FPSCR
 2147 034c 3FF529AF 		bmi	.L175
 321:../../libdaisy/src/hid/disp/display.h ****                 }
 2148              		.loc 8 321 47 view .LVU506
 2149 0350 0024     		movs	r4, #0
 2150              	.LVL181:
 325:../../libdaisy/src/hid/disp/display.h ****                 ((ChildType*)(this))
 2151              		.loc 8 325 13 view .LVU507
 2152 0352 002A     		cmp	r2, #0
 2153 0354 3FF431AF 		beq	.L127
 2154 0358 B9E7     		b	.L176
 2155              	.LVL182:
 2156              	.L180:
 343:../../libdaisy/src/hid/disp/display.h ****                 {
 2157              		.loc 8 343 32 discriminator 1 view .LVU508
 2158 035a 9842     		cmp	r0, r3
 2159 035c 8FDB     		blt	.L136
 345:../../libdaisy/src/hid/disp/display.h ****                 }
 2160              		.loc 8 345 24 view .LVU509
 2161 035e 0023     		movs	r3, #0
 2162              	.LVL183:
 345:../../libdaisy/src/hid/disp/display.h ****                 }
 2163              		.loc 8 345 24 view .LVU510
 2164 0360 3BE7     		b	.L135
 2165              	.L188:
 2166 0362 00BFAFF3 		.align	3
 2166      0080
 2167              	.L187:
 2168 0368 7A008BFC 		.word	-57999238
 2169 036c FA210940 		.word	1074340346
 2170 0370 00000000 		.word	0
 2171 0374 00806640 		.word	1080459264
 2172              	.LVL184:
 2173              	.L132:
 2174              	.LBB505:
 2175              	.LBB480:
 2176              	.LBB479:
 2177              	.LBB477:
 2178              	.LBI477:
 239:../../libdaisy/src/dev/oled_ssd130x.h ****     {
 2179              		.loc 9 239 10 is_stmt 1 view .LVU511
 2180              	.LBB478:
 246:../../libdaisy/src/dev/oled_ssd130x.h ****     }
 2181              		.loc 9 246 42 is_stmt 0 view .LVU512
 2182 0378 C244     		add	r10, r10, r8
 2183              	.LVL185:
 246:../../libdaisy/src/dev/oled_ssd130x.h ****     }
ARM GAS  C:\Users\VINCIU~1\AppData\Local\Temp\ccNNq0o9.s 			page 74


 2184              		.loc 9 246 49 view .LVU513
 2185 037a 4FF0010B 		mov	fp, #1
 2186              	.LVL186:
 246:../../libdaisy/src/dev/oled_ssd130x.h ****     }
 2187              		.loc 9 246 55 view .LVU514
 2188 037e 0EF0070E 		and	lr, lr, #7
 2189              	.LVL187:
 246:../../libdaisy/src/dev/oled_ssd130x.h ****     }
 2190              		.loc 9 246 49 view .LVU515
 2191 0382 0BFA0EFE 		lsl	lr, fp, lr
 246:../../libdaisy/src/dev/oled_ssd130x.h ****     }
 2192              		.loc 9 246 42 view .LVU516
 2193 0386 9AF814B0 		ldrb	fp, [r10, #20]	@ zero_extendqisi2
 2194 038a 2BEA0E0E 		bic	lr, fp, lr
 2195 038e 8AF814E0 		strb	lr, [r10, #20]
 2196              	.LVL188:
 246:../../libdaisy/src/dev/oled_ssd130x.h ****     }
 2197              		.loc 9 246 42 view .LVU517
 2198 0392 15E7     		b	.L131
 2199              	.LVL189:
 2200              	.L130:
 246:../../libdaisy/src/dev/oled_ssd130x.h ****     }
 2201              		.loc 9 246 42 view .LVU518
 2202              	.LBE478:
 2203              	.LBE477:
 2204              	.LBE479:
 2205              	.LBE480:
 2206              	.LBE505:
 2207              	.LBB506:
 2208              	.LBB497:
 2209              	.LBB496:
 2210              	.LBB494:
 2211              	.LBI494:
 239:../../libdaisy/src/dev/oled_ssd130x.h ****     {
 2212              		.loc 9 239 10 is_stmt 1 view .LVU519
 2213              	.LBB495:
 246:../../libdaisy/src/dev/oled_ssd130x.h ****     }
 2214              		.loc 9 246 42 is_stmt 0 view .LVU520
 2215 0394 C244     		add	r10, r10, r8
 2216              	.LVL190:
 246:../../libdaisy/src/dev/oled_ssd130x.h ****     }
 2217              		.loc 9 246 49 view .LVU521
 2218 0396 4FF0010B 		mov	fp, #1
 2219              	.LVL191:
 246:../../libdaisy/src/dev/oled_ssd130x.h ****     }
 2220              		.loc 9 246 55 view .LVU522
 2221 039a 0EF0070E 		and	lr, lr, #7
 2222              	.LVL192:
 246:../../libdaisy/src/dev/oled_ssd130x.h ****     }
 2223              		.loc 9 246 49 view .LVU523
 2224 039e 0BFA0EFE 		lsl	lr, fp, lr
 246:../../libdaisy/src/dev/oled_ssd130x.h ****     }
 2225              		.loc 9 246 42 view .LVU524
 2226 03a2 9AF814B0 		ldrb	fp, [r10, #20]	@ zero_extendqisi2
 2227 03a6 2BEA0E0E 		bic	lr, fp, lr
 2228 03aa 8AF814E0 		strb	lr, [r10, #20]
 2229              	.LVL193:
ARM GAS  C:\Users\VINCIU~1\AppData\Local\Temp\ccNNq0o9.s 			page 75


 246:../../libdaisy/src/dev/oled_ssd130x.h ****     }
 2230              		.loc 9 246 42 view .LVU525
 2231              	.LBE495:
 2232              	.LBE494:
 2233              	.LBE496:
 2234              	.LBE497:
 2235              	.LBE506:
 331:../../libdaisy/src/hid/disp/display.h ****                 ((ChildType*)(this))
 2236              		.loc 8 331 13 view .LVU526
 2237 03ae 002F     		cmp	r7, #0
 2238 03b0 3FF406AF 		beq	.L131
 2239 03b4 1CE7     		b	.L178
 2240              	.LVL194:
 2241              	.L134:
 2242              	.LBB507:
 2243              	.LBB489:
 2244              	.LBB487:
 2245              	.LBB484:
 2246              	.LBI484:
 239:../../libdaisy/src/dev/oled_ssd130x.h ****     {
 2247              		.loc 9 239 10 is_stmt 1 view .LVU527
 2248              	.LBB485:
 246:../../libdaisy/src/dev/oled_ssd130x.h ****     }
 2249              		.loc 9 246 42 is_stmt 0 view .LVU528
 2250 03b6 C244     		add	r10, r10, r8
 2251              	.LVL195:
 246:../../libdaisy/src/dev/oled_ssd130x.h ****     }
 2252              		.loc 9 246 49 view .LVU529
 2253 03b8 4FF0010B 		mov	fp, #1
 2254              	.LVL196:
 246:../../libdaisy/src/dev/oled_ssd130x.h ****     }
 2255              		.loc 9 246 55 view .LVU530
 2256 03bc 0EF0070E 		and	lr, lr, #7
 2257              	.LVL197:
 246:../../libdaisy/src/dev/oled_ssd130x.h ****     }
 2258              		.loc 9 246 49 view .LVU531
 2259 03c0 0BFA0EFE 		lsl	lr, fp, lr
 246:../../libdaisy/src/dev/oled_ssd130x.h ****     }
 2260              		.loc 9 246 42 view .LVU532
 2261 03c4 9AF814B0 		ldrb	fp, [r10, #20]	@ zero_extendqisi2
 2262 03c8 2BEA0E0E 		bic	lr, fp, lr
 2263 03cc 8AF814E0 		strb	lr, [r10, #20]
 2264              	.LVL198:
 246:../../libdaisy/src/dev/oled_ssd130x.h ****     }
 2265              		.loc 9 246 42 view .LVU533
 2266 03d0 F7E6     		b	.L133
 2267              	.LVL199:
 2268              	.L128:
 246:../../libdaisy/src/dev/oled_ssd130x.h ****     }
 2269              		.loc 9 246 42 view .LVU534
 2270              	.LBE485:
 2271              	.LBE484:
 2272              	.LBE487:
 2273              	.LBE489:
 2274              	.LBE507:
 2275              	.LBB508:
 2276              	.LBB504:
ARM GAS  C:\Users\VINCIU~1\AppData\Local\Temp\ccNNq0o9.s 			page 76


 2277              	.LBB503:
 2278              	.LBB501:
 2279              	.LBI501:
 239:../../libdaisy/src/dev/oled_ssd130x.h ****     {
 2280              		.loc 9 239 10 is_stmt 1 view .LVU535
 2281              	.LBB502:
 246:../../libdaisy/src/dev/oled_ssd130x.h ****     }
 2282              		.loc 9 246 42 is_stmt 0 view .LVU536
 2283 03d2 C244     		add	r10, r10, r8
 2284              	.LVL200:
 246:../../libdaisy/src/dev/oled_ssd130x.h ****     }
 2285              		.loc 9 246 49 view .LVU537
 2286 03d4 4FF0010B 		mov	fp, #1
 2287              	.LVL201:
 246:../../libdaisy/src/dev/oled_ssd130x.h ****     }
 2288              		.loc 9 246 55 view .LVU538
 2289 03d8 0EF0070E 		and	lr, lr, #7
 2290              	.LVL202:
 246:../../libdaisy/src/dev/oled_ssd130x.h ****     }
 2291              		.loc 9 246 49 view .LVU539
 2292 03dc 0BFA0EFE 		lsl	lr, fp, lr
 246:../../libdaisy/src/dev/oled_ssd130x.h ****     }
 2293              		.loc 9 246 42 view .LVU540
 2294 03e0 9AF814B0 		ldrb	fp, [r10, #20]	@ zero_extendqisi2
 2295 03e4 2BEA0E0E 		bic	lr, fp, lr
 2296 03e8 8AF814E0 		strb	lr, [r10, #20]
 2297              	.LVL203:
 246:../../libdaisy/src/dev/oled_ssd130x.h ****     }
 2298              		.loc 9 246 42 view .LVU541
 2299              	.LBE502:
 2300              	.LBE501:
 2301              	.LBE503:
 2302              	.LBE504:
 2303              	.LBE508:
 328:../../libdaisy/src/hid/disp/display.h ****                 ((ChildType*)(this))
 2304              		.loc 8 328 13 view .LVU542
 2305 03ec 0029     		cmp	r1, #0
 2306 03ee 3FF4E6AE 		beq	.L129
 2307 03f2 49E7     		b	.L177
 2308              	.LVL204:
 2309              	.L184:
 320:../../libdaisy/src/hid/disp/display.h ****                     d4 = (t_sxny - t_synx < 0 && t_exny - t_eynx > 0);
 2310              		.loc 8 320 56 discriminator 1 view .LVU543
 2311 03f4 77EEE66A 		vsub.f32	s13, s15, s13
 2312              	.LVL205:
 320:../../libdaisy/src/hid/disp/display.h ****                     d4 = (t_sxny - t_synx < 0 && t_exny - t_eynx > 0);
 2313              		.loc 8 320 46 discriminator 1 view .LVU544
 2314 03f8 F5EEC06A 		vcmpe.f32	s13, #0
 2315 03fc F1EE10FA 		vmrs	APSR_nzcv, FPSCR
 2316 0400 CCBF     		ite	gt
 2317 0402 0127     		movgt	r7, #1
 2318              	.LVL206:
 320:../../libdaisy/src/hid/disp/display.h ****                     d4 = (t_sxny - t_synx < 0 && t_exny - t_eynx > 0);
 2319              		.loc 8 320 46 discriminator 1 view .LVU545
 2320 0404 0027     		movle	r7, #0
 2321 0406 9BE7     		b	.L124
 2322              	.LVL207:
ARM GAS  C:\Users\VINCIU~1\AppData\Local\Temp\ccNNq0o9.s 			page 77


 2323              	.L183:
 319:../../libdaisy/src/hid/disp/display.h ****                     d3 = (t_sxny - t_syx < 0 && t_exny - t_eyx > 0);
 2324              		.loc 8 319 54 discriminator 1 view .LVU546
 2325 0408 36EE666A 		vsub.f32	s12, s12, s13
 2326              	.LVL208:
 319:../../libdaisy/src/hid/disp/display.h ****                     d3 = (t_sxny - t_syx < 0 && t_exny - t_eyx > 0);
 2327              		.loc 8 319 45 discriminator 1 view .LVU547
 2328 040c B5EEC06A 		vcmpe.f32	s12, #0
 2329 0410 F1EE10FA 		vmrs	APSR_nzcv, FPSCR
 2330 0414 CCBF     		ite	gt
 2331 0416 0121     		movgt	r1, #1
 2332 0418 0021     		movle	r1, #0
 2333 041a 89E7     		b	.L122
 2334              	.LVL209:
 2335              	.L182:
 318:../../libdaisy/src/hid/disp/display.h ****                     d2 = (t_sxy - t_syx < 0 && t_exy - t_eyx > 0);
 2336              		.loc 8 318 55 discriminator 1 view .LVU548
 2337 041c 76EE473A 		vsub.f32	s7, s12, s14
 318:../../libdaisy/src/hid/disp/display.h ****                     d2 = (t_sxy - t_syx < 0 && t_exy - t_eyx > 0);
 2338              		.loc 8 318 46 discriminator 1 view .LVU549
 2339 0420 F5EEC03A 		vcmpe.f32	s7, #0
 2340 0424 F1EE10FA 		vmrs	APSR_nzcv, FPSCR
 2341 0428 CCBF     		ite	gt
 2342 042a 0122     		movgt	r2, #1
 2343 042c 0022     		movle	r2, #0
 2344 042e 77E7     		b	.L120
 2345              	.LVL210:
 2346              	.L145:
 314:../../libdaisy/src/hid/disp/display.h ****                 }
 2347              		.loc 8 314 47 view .LVU550
 2348 0430 0124     		movs	r4, #1
 2349              	.LVL211:
 325:../../libdaisy/src/hid/disp/display.h ****                 ((ChildType*)(this))
 2350              		.loc 8 325 13 view .LVU551
 2351 0432 002A     		cmp	r2, #0
 2352 0434 3FF4C1AE 		beq	.L127
 325:../../libdaisy/src/hid/disp/display.h ****                 ((ChildType*)(this))
 2353              		.loc 8 325 13 view .LVU552
 2354 0438 49E7     		b	.L176
 2355              	.LVL212:
 2356              	.L142:
 312:../../libdaisy/src/hid/disp/display.h ****                     d3 = (t_sxny - t_syx < 0 || t_exny - t_eyx > 0);
 2357              		.loc 8 312 33 view .LVU553
 2358 043a 74EEC54A 		vsub.f32	s9, s9, s10
 2359              	.LVL213:
 311:../../libdaisy/src/hid/disp/display.h ****                     d2 = (t_sxy - t_syx < 0 || t_exy - t_eyx > 0);
 2360              		.loc 8 311 46 view .LVU554
 2361 043e 0122     		movs	r2, #1
 2362              	.LVL214:
 312:../../libdaisy/src/hid/disp/display.h ****                     d3 = (t_sxny - t_syx < 0 || t_exny - t_eyx > 0);
 2363              		.loc 8 312 45 view .LVU555
 2364 0440 F5EEC04A 		vcmpe.f32	s9, #0
 2365 0444 F1EE10FA 		vmrs	APSR_nzcv, FPSCR
 2366 0448 7FF589AE 		bpl	.L185
 2367              	.L143:
 313:../../libdaisy/src/hid/disp/display.h ****                     d4 = (t_sxny - t_synx < 0 || t_exny - t_eynx > 0);
 2368              		.loc 8 313 34 view .LVU556
ARM GAS  C:\Users\VINCIU~1\AppData\Local\Temp\ccNNq0o9.s 			page 78


 2369 044c 35EEC55A 		vsub.f32	s10, s11, s10
 2370              	.LVL215:
 312:../../libdaisy/src/hid/disp/display.h ****                     d3 = (t_sxny - t_syx < 0 || t_exny - t_eyx > 0);
 2371              		.loc 8 312 45 view .LVU557
 2372 0450 0121     		movs	r1, #1
 2373              	.LVL216:
 313:../../libdaisy/src/hid/disp/display.h ****                     d4 = (t_sxny - t_synx < 0 || t_exny - t_eynx > 0);
 2374              		.loc 8 313 46 view .LVU558
 2375 0452 B5EEC05A 		vcmpe.f32	s10, #0
 2376 0456 F1EE10FA 		vmrs	APSR_nzcv, FPSCR
 2377 045a 7FF591AE 		bpl	.L186
 2378              	.LVL217:
 2379              	.L144:
 313:../../libdaisy/src/hid/disp/display.h ****                     d4 = (t_sxny - t_synx < 0 || t_exny - t_eynx > 0);
 2380              		.loc 8 313 46 view .LVU559
 2381 045e 0127     		movs	r7, #1
 2382              	.LVL218:
 313:../../libdaisy/src/hid/disp/display.h ****                     d4 = (t_sxny - t_synx < 0 || t_exny - t_eynx > 0);
 2383              		.loc 8 313 46 view .LVU560
 2384 0460 97E6     		b	.L119
 2385              	.LVL219:
 2386              	.L111:
 268:../../libdaisy/src/hid/disp/display.h ****             sweep = -sweep;
 2387              		.loc 8 268 25 view .LVU561
 2388 0462 DDE91223 		ldrd	r2, r3, [sp, #72]
 2389              	.LVL220:
 268:../../libdaisy/src/hid/disp/display.h ****             sweep = -sweep;
 2390              		.loc 8 268 25 view .LVU562
 2391 0466 1344     		add	r3, r3, r2
 2392              	.LVL221:
 268:../../libdaisy/src/hid/disp/display.h ****             sweep = -sweep;
 2393              		.loc 8 268 25 view .LVU563
 2394 0468 06EE102A 		vmov	s12, r2	@ int
 2395 046c 1293     		str	r3, [sp, #72]
 2396 046e 139B     		ldr	r3, [sp, #76]
 2397              	.LVL222:
 268:../../libdaisy/src/hid/disp/display.h ****             sweep = -sweep;
 2398              		.loc 8 268 25 view .LVU564
 2399 0470 5B42     		rsbs	r3, r3, #0
 2400 0472 1393     		str	r3, [sp, #76]
 2401              	.LVL223:
 268:../../libdaisy/src/hid/disp/display.h ****             sweep = -sweep;
 2402              		.loc 8 268 25 view .LVU565
 2403 0474 D8E5     		b	.L112
 2404              		.cfi_endproc
 2405              	.LFE4630:
 2407 0476 00BF     		.section	.text._ZN5daisy25OneBitGraphicsDisplayImplINS_11OledDisplayINS_13SSD130xDriverILj128ELj64
 2408              		.align	1
 2409              		.p2align 2,,3
 2410              		.weak	_ZN5daisy25OneBitGraphicsDisplayImplINS_11OledDisplayINS_13SSD130xDriverILj128ELj64ENS_24SSD
 2411              		.syntax unified
 2412              		.thumb
 2413              		.thumb_func
 2414              		.fpu fpv5-d16
 2416              	_ZN5daisy25OneBitGraphicsDisplayImplINS_11OledDisplayINS_13SSD130xDriverILj128ELj64ENS_24SSD130x4Wi
 2417              	.LVL224:
 2418              	.LFB4629:
ARM GAS  C:\Users\VINCIU~1\AppData\Local\Temp\ccNNq0o9.s 			page 79


 217:../../libdaisy/src/hid/disp/display.h ****                   uint_fast8_t y1,
 2419              		.loc 8 217 10 is_stmt 1 view -0
 2420              		.cfi_startproc
 2421              		@ args = 12, pretend = 0, frame = 24
 2422              		@ frame_needed = 0, uses_anonymous_args = 0
 217:../../libdaisy/src/hid/disp/display.h ****                   uint_fast8_t y1,
 2423              		.loc 8 217 10 is_stmt 0 view .LVU567
 2424 0000 2DE9F04F 		push	{r4, r5, r6, r7, r8, r9, r10, fp, lr}
 2425              		.cfi_def_cfa_offset 36
 2426              		.cfi_offset 4, -36
 2427              		.cfi_offset 5, -32
 2428              		.cfi_offset 6, -28
 2429              		.cfi_offset 7, -24
 2430              		.cfi_offset 8, -20
 2431              		.cfi_offset 9, -16
 2432              		.cfi_offset 10, -12
 2433              		.cfi_offset 11, -8
 2434              		.cfi_offset 14, -4
 2435 0004 87B0     		sub	sp, sp, #28
 2436              		.cfi_def_cfa_offset 64
 217:../../libdaisy/src/hid/disp/display.h ****                   uint_fast8_t y1,
 2437              		.loc 8 217 10 view .LVU568
 2438 0006 9DF84850 		ldrb	r5, [sp, #72]	@ zero_extendqisi2
 2439 000a 109C     		ldr	r4, [sp, #64]
 2440 000c 2E46     		mov	r6, r5
 2441 000e 0195     		str	r5, [sp, #4]
 2442 0010 9DF84450 		ldrb	r5, [sp, #68]	@ zero_extendqisi2
 2443              	.LBB578:
 224:../../libdaisy/src/hid/disp/display.h ****         {
 2444              		.loc 8 224 9 view .LVU569
 2445 0014 9EB3     		cbz	r6, .L190
 2446              	.LVL225:
 224:../../libdaisy/src/hid/disp/display.h ****         {
 2447              		.loc 8 224 9 view .LVU570
 2448              	.LBE578:
 2449              	.LBB700:
 2450              	.LBB701:
 226:../../libdaisy/src/hid/disp/display.h ****             {
 2451              		.loc 8 226 40 is_stmt 1 view .LVU571
 2452 0016 9942     		cmp	r1, r3
 2453 0018 2ED8     		bhi	.L189
 2454 001a 9946     		mov	r9, r3
 2455              	.LVL226:
 2456              	.L193:
 2457              	.LBB702:
 228:../../libdaisy/src/hid/disp/display.h ****                 {
 2458              		.loc 8 228 44 view .LVU572
 2459 001c A242     		cmp	r2, r4
 2460 001e 28D8     		bhi	.L196
 2461              	.LBB703:
 2462              	.LBB704:
 2463              	.LBB705:
 241:../../libdaisy/src/dev/oled_ssd130x.h ****             return;
 2464              		.loc 9 241 14 is_stmt 0 view .LVU573
 2465 0020 7F29     		cmp	r1, #127
 2466 0022 1646     		mov	r6, r2
 2467 0024 94BF     		ite	ls
ARM GAS  C:\Users\VINCIU~1\AppData\Local\Temp\ccNNq0o9.s 			page 80


 2468 0026 0023     		movls	r3, #0
 2469 0028 0123     		movhi	r3, #1
 2470 002a 08E0     		b	.L197
 2471              	.LVL227:
 2472              	.L280:
 244:../../libdaisy/src/dev/oled_ssd130x.h ****         else
 2473              		.loc 9 244 42 view .LVU574
 2474 002c 9CF81480 		ldrb	r8, [ip, #20]	@ zero_extendqisi2
 2475 0030 4EEA080E 		orr	lr, lr, r8
 2476 0034 8CF814E0 		strb	lr, [ip, #20]
 2477              	.LVL228:
 2478              	.L194:
 244:../../libdaisy/src/dev/oled_ssd130x.h ****         else
 2479              		.loc 9 244 42 view .LVU575
 2480              	.LBE705:
 2481              	.LBE704:
 2482              	.LBE703:
 228:../../libdaisy/src/hid/disp/display.h ****                 {
 2483              		.loc 8 228 17 is_stmt 1 view .LVU576
 2484 0038 0136     		adds	r6, r6, #1
 2485              	.LVL229:
 228:../../libdaisy/src/hid/disp/display.h ****                 {
 2486              		.loc 8 228 44 view .LVU577
 2487 003a B442     		cmp	r4, r6
 2488 003c 19D3     		bcc	.L196
 2489              	.L197:
 2490              	.LVL230:
 2491              	.LBB719:
 2492              	.LBI703:
  41:../../libdaisy/src/hid/disp/oled_display.h ****     {
 2493              		.loc 7 41 10 view .LVU578
 2494              	.LBB716:
 2495              	.LBI704:
 239:../../libdaisy/src/dev/oled_ssd130x.h ****     {
 2496              		.loc 9 239 10 view .LVU579
 2497              	.LBB713:
 241:../../libdaisy/src/dev/oled_ssd130x.h ****             return;
 2498              		.loc 9 241 9 is_stmt 0 view .LVU580
 2499 003e 3F2E     		cmp	r6, #63
 2500 0040 FAD8     		bhi	.L194
 241:../../libdaisy/src/dev/oled_ssd130x.h ****             return;
 2501              		.loc 9 241 9 view .LVU581
 2502 0042 002B     		cmp	r3, #0
 2503 0044 F8D1     		bne	.L194
 2504              	.LVL231:
 2505              	.LBB706:
 2506              	.LBI706:
 239:../../libdaisy/src/dev/oled_ssd130x.h ****     {
 2507              		.loc 9 239 10 is_stmt 1 view .LVU582
 239:../../libdaisy/src/dev/oled_ssd130x.h ****     {
 2508              		.loc 9 239 10 is_stmt 0 view .LVU583
 2509              	.LBE706:
 244:../../libdaisy/src/dev/oled_ssd130x.h ****         else
 2510              		.loc 9 244 28 view .LVU584
 2511 0046 4FEAD60C 		lsr	ip, r6, #3
 244:../../libdaisy/src/dev/oled_ssd130x.h ****         else
 2512              		.loc 9 244 54 view .LVU585
ARM GAS  C:\Users\VINCIU~1\AppData\Local\Temp\ccNNq0o9.s 			page 81


 2513 004a 06F0070E 		and	lr, r6, #7
 244:../../libdaisy/src/dev/oled_ssd130x.h ****         else
 2514              		.loc 9 244 48 view .LVU586
 2515 004e 4FF00108 		mov	r8, #1
 244:../../libdaisy/src/dev/oled_ssd130x.h ****         else
 2516              		.loc 9 244 42 view .LVU587
 2517 0052 01EBCC1C 		add	ip, r1, ip, lsl #7
 244:../../libdaisy/src/dev/oled_ssd130x.h ****         else
 2518              		.loc 9 244 48 view .LVU588
 2519 0056 08FA0EFE 		lsl	lr, r8, lr
 244:../../libdaisy/src/dev/oled_ssd130x.h ****         else
 2520              		.loc 9 244 42 view .LVU589
 2521 005a 8444     		add	ip, ip, r0
 243:../../libdaisy/src/dev/oled_ssd130x.h ****             buffer_[x + (y / 8) * width] |= (1 << (y % 8));
 2522              		.loc 9 243 9 view .LVU590
 2523 005c 002D     		cmp	r5, #0
 2524 005e E5D1     		bne	.L280
 2525              	.LBB710:
 2526              	.LBB707:
 246:../../libdaisy/src/dev/oled_ssd130x.h ****     }
 2527              		.loc 9 246 42 view .LVU591
 2528 0060 9CF814B0 		ldrb	fp, [ip, #20]	@ zero_extendqisi2
 2529              	.LBE707:
 2530              	.LBE710:
 2531              	.LBE713:
 2532              	.LBE716:
 2533              	.LBE719:
 228:../../libdaisy/src/hid/disp/display.h ****                 {
 2534              		.loc 8 228 17 view .LVU592
 2535 0064 0136     		adds	r6, r6, #1
 2536              	.LVL232:
 2537              	.LBB720:
 2538              	.LBB717:
 2539              	.LBB714:
 2540              	.LBB711:
 2541              	.LBB708:
 246:../../libdaisy/src/dev/oled_ssd130x.h ****     }
 2542              		.loc 9 246 42 view .LVU593
 2543 0066 2BEA0E0A 		bic	r10, fp, lr
 2544              	.LBE708:
 2545              	.LBE711:
 2546              	.LBE714:
 2547              	.LBE717:
 2548              	.LBE720:
 228:../../libdaisy/src/hid/disp/display.h ****                 {
 2549              		.loc 8 228 44 view .LVU594
 2550 006a B442     		cmp	r4, r6
 2551              	.LBB721:
 2552              	.LBB718:
 2553              	.LBB715:
 2554              	.LBB712:
 2555              	.LBB709:
 246:../../libdaisy/src/dev/oled_ssd130x.h ****     }
 2556              		.loc 9 246 42 view .LVU595
 2557 006c 8CF814A0 		strb	r10, [ip, #20]
 2558              	.LVL233:
 246:../../libdaisy/src/dev/oled_ssd130x.h ****     }
ARM GAS  C:\Users\VINCIU~1\AppData\Local\Temp\ccNNq0o9.s 			page 82


 2559              		.loc 9 246 42 view .LVU596
 2560              	.LBE709:
 2561              	.LBE712:
 2562              	.LBE715:
 2563              	.LBE718:
 2564              	.LBE721:
 228:../../libdaisy/src/hid/disp/display.h ****                 {
 2565              		.loc 8 228 17 is_stmt 1 view .LVU597
 228:../../libdaisy/src/hid/disp/display.h ****                 {
 2566              		.loc 8 228 44 view .LVU598
 2567 0070 E5D2     		bcs	.L197
 2568              	.LVL234:
 2569              	.L196:
 228:../../libdaisy/src/hid/disp/display.h ****                 {
 2570              		.loc 8 228 44 is_stmt 0 view .LVU599
 2571              	.LBE702:
 226:../../libdaisy/src/hid/disp/display.h ****             {
 2572              		.loc 8 226 13 is_stmt 1 view .LVU600
 2573 0072 0131     		adds	r1, r1, #1
 2574              	.LVL235:
 226:../../libdaisy/src/hid/disp/display.h ****             {
 2575              		.loc 8 226 40 view .LVU601
 2576 0074 8945     		cmp	r9, r1
 2577 0076 D1D2     		bcs	.L193
 2578              	.LVL236:
 2579              	.L189:
 226:../../libdaisy/src/hid/disp/display.h ****             {
 2580              		.loc 8 226 40 is_stmt 0 view .LVU602
 2581              	.LBE701:
 2582              	.LBE700:
 241:../../libdaisy/src/hid/disp/display.h **** 
 2583              		.loc 8 241 5 view .LVU603
 2584 0078 07B0     		add	sp, sp, #28
 2585              		.cfi_remember_state
 2586              		.cfi_def_cfa_offset 36
 2587              		@ sp needed
 2588 007a BDE8F08F 		pop	{r4, r5, r6, r7, r8, r9, r10, fp, pc}
 2589              	.LVL237:
 2590              	.L190:
 2591              		.cfi_restore_state
 2592              	.LBB722:
 2593              	.LBB579:
 2594              	.LBI579:
 181:../../libdaisy/src/hid/disp/display.h ****                   uint_fast8_t y1,
 2595              		.loc 8 181 10 is_stmt 1 view .LVU604
 2596              	.LBB580:
 187:../../libdaisy/src/hid/disp/display.h ****         int_fast16_t deltaY = abs((int_fast16_t)y2 - (int_fast16_t)y1);
 2597              		.loc 8 187 52 is_stmt 0 view .LVU605
 2598 007e A3EB0108 		sub	r8, r3, r1
 187:../../libdaisy/src/hid/disp/display.h ****         int_fast16_t deltaY = abs((int_fast16_t)y2 - (int_fast16_t)y1);
 2599              		.loc 8 187 22 view .LVU606
 2600 0082 B8F1000F 		cmp	r8, #0
 2601 0086 B8BF     		it	lt
 2602 0088 C8F10008 		rsblt	r8, r8, #0
 2603              	.LVL238:
 189:../../libdaisy/src/hid/disp/display.h ****         int_fast16_t signY  = ((y1 < y2) ? 1 : -1);
 2604              		.loc 8 189 42 view .LVU607
ARM GAS  C:\Users\VINCIU~1\AppData\Local\Temp\ccNNq0o9.s 			page 83


 2605 008c 9942     		cmp	r1, r3
 2606 008e C0F04E81 		bcc	.L198
 2607              	.LVL239:
 2608              	.LBB581:
 2609              	.LBI581:
  41:../../libdaisy/src/hid/disp/oled_display.h ****     {
 2610              		.loc 7 41 10 is_stmt 1 view .LVU608
 2611              	.LBB582:
 2612              	.LBI582:
 239:../../libdaisy/src/dev/oled_ssd130x.h ****     {
 2613              		.loc 9 239 10 view .LVU609
 2614              	.LBB583:
 241:../../libdaisy/src/dev/oled_ssd130x.h ****             return;
 2615              		.loc 9 241 14 is_stmt 0 view .LVU610
 2616 0092 7F2B     		cmp	r3, #127
 2617              	.LBE583:
 2618              	.LBE582:
 2619              	.LBE581:
 189:../../libdaisy/src/hid/disp/display.h ****         int_fast16_t signY  = ((y1 < y2) ? 1 : -1);
 2620              		.loc 8 189 42 view .LVU611
 2621 0094 4FF0FF3A 		mov	r10, #-1
 2622              	.LBB594:
 2623              	.LBB590:
 2624              	.LBB586:
 241:../../libdaisy/src/dev/oled_ssd130x.h ****             return;
 2625              		.loc 9 241 14 view .LVU612
 2626 0098 94BF     		ite	ls
 2627 009a 0026     		movls	r6, #0
 2628 009c 0126     		movhi	r6, #1
 241:../../libdaisy/src/dev/oled_ssd130x.h ****             return;
 2629              		.loc 9 241 28 view .LVU613
 2630 009e 3F2A     		cmp	r2, #63
 241:../../libdaisy/src/dev/oled_ssd130x.h ****             return;
 2631              		.loc 9 241 14 view .LVU614
 2632 00a0 0096     		str	r6, [sp]
 241:../../libdaisy/src/dev/oled_ssd130x.h ****             return;
 2633              		.loc 9 241 28 view .LVU615
 2634 00a2 94BF     		ite	ls
 2635 00a4 0027     		movls	r7, #0
 2636 00a6 0127     		movhi	r7, #1
 2637 00a8 0297     		str	r7, [sp, #8]
 241:../../libdaisy/src/dev/oled_ssd130x.h ****             return;
 2638              		.loc 9 241 9 view .LVU616
 2639 00aa A6B9     		cbnz	r6, .L199
 2640 00ac 9FB9     		cbnz	r7, .L199
 2641              	.LVL240:
 2642              	.L240:
 244:../../libdaisy/src/dev/oled_ssd130x.h ****         else
 2643              		.loc 9 244 28 view .LVU617
 2644 00ae D608     		lsrs	r6, r2, #3
 244:../../libdaisy/src/dev/oled_ssd130x.h ****         else
 2645              		.loc 9 244 54 view .LVU618
 2646 00b0 02F0070C 		and	ip, r2, #7
 244:../../libdaisy/src/dev/oled_ssd130x.h ****         else
 2647              		.loc 9 244 48 view .LVU619
 2648 00b4 0127     		movs	r7, #1
 244:../../libdaisy/src/dev/oled_ssd130x.h ****         else
ARM GAS  C:\Users\VINCIU~1\AppData\Local\Temp\ccNNq0o9.s 			page 84


 2649              		.loc 9 244 42 view .LVU620
 2650 00b6 03EBC616 		add	r6, r3, r6, lsl #7
 2651 00ba 0644     		add	r6, r6, r0
 243:../../libdaisy/src/dev/oled_ssd130x.h ****             buffer_[x + (y / 8) * width] |= (1 << (y % 8));
 2652              		.loc 9 243 9 view .LVU621
 2653 00bc 002D     		cmp	r5, #0
 2654 00be 00F09481 		beq	.L200
 244:../../libdaisy/src/dev/oled_ssd130x.h ****         else
 2655              		.loc 9 244 48 view .LVU622
 2656 00c2 07FA0CF7 		lsl	r7, r7, ip
 244:../../libdaisy/src/dev/oled_ssd130x.h ****         else
 2657              		.loc 9 244 42 view .LVU623
 2658 00c6 96F814C0 		ldrb	ip, [r6, #20]	@ zero_extendqisi2
 2659 00ca 47EA0C07 		orr	r7, r7, ip
 2660 00ce 3775     		strb	r7, [r6, #20]
 2661 00d0 0026     		movs	r6, #0
 2662 00d2 0296     		str	r6, [sp, #8]
 2663 00d4 0096     		str	r6, [sp]
 2664              	.L199:
 2665              	.LVL241:
 244:../../libdaisy/src/dev/oled_ssd130x.h ****         else
 2666              		.loc 9 244 42 view .LVU624
 2667              	.LBE586:
 2668              	.LBE590:
 2669              	.LBE594:
 199:../../libdaisy/src/hid/disp/display.h ****         {
 2670              		.loc 8 199 26 is_stmt 1 view .LVU625
 2671 00d6 9942     		cmp	r1, r3
 2672 00d8 00F09781 		beq	.L281
 2673              	.L202:
 2674              	.LVL242:
 187:../../libdaisy/src/hid/disp/display.h ****         int_fast16_t deltaY = abs((int_fast16_t)y2 - (int_fast16_t)y1);
 2675              		.loc 8 187 22 is_stmt 0 view .LVU626
 2676 00dc 4646     		mov	r6, r8
 2677 00de 9446     		mov	ip, r2
 2678 00e0 8E46     		mov	lr, r1
 2679              	.LVL243:
 2680              	.L204:
 2681              	.LBB595:
 2682              	.LBI595:
  41:../../libdaisy/src/hid/disp/oled_display.h ****     {
 2683              		.loc 7 41 10 is_stmt 1 view .LVU627
 2684              	.LBB596:
 2685              	.LBI596:
 239:../../libdaisy/src/dev/oled_ssd130x.h ****     {
 2686              		.loc 9 239 10 view .LVU628
 2687              	.LBB597:
 241:../../libdaisy/src/dev/oled_ssd130x.h ****             return;
 2688              		.loc 9 241 9 is_stmt 0 view .LVU629
 2689 00e2 BEF17F0F 		cmp	lr, #127
 2690 00e6 16D8     		bhi	.L205
 2691 00e8 BCF13F0F 		cmp	ip, #63
 2692 00ec 13D8     		bhi	.L205
 244:../../libdaisy/src/dev/oled_ssd130x.h ****         else
 2693              		.loc 9 244 28 view .LVU630
 2694 00ee 4FEADC07 		lsr	r7, ip, #3
 244:../../libdaisy/src/dev/oled_ssd130x.h ****         else
ARM GAS  C:\Users\VINCIU~1\AppData\Local\Temp\ccNNq0o9.s 			page 85


 2695              		.loc 9 244 54 view .LVU631
 2696 00f2 0CF0070B 		and	fp, ip, #7
 244:../../libdaisy/src/dev/oled_ssd130x.h ****         else
 2697              		.loc 9 244 48 view .LVU632
 2698 00f6 4FF00109 		mov	r9, #1
 244:../../libdaisy/src/dev/oled_ssd130x.h ****         else
 2699              		.loc 9 244 42 view .LVU633
 2700 00fa 0EEBC717 		add	r7, lr, r7, lsl #7
 2701 00fe 0744     		add	r7, r7, r0
 243:../../libdaisy/src/dev/oled_ssd130x.h ****             buffer_[x + (y / 8) * width] |= (1 << (y % 8));
 2702              		.loc 9 243 9 view .LVU634
 2703 0100 002D     		cmp	r5, #0
 2704 0102 00F03981 		beq	.L206
 244:../../libdaisy/src/dev/oled_ssd130x.h ****         else
 2705              		.loc 9 244 48 view .LVU635
 2706 0106 09FA0BF9 		lsl	r9, r9, fp
 244:../../libdaisy/src/dev/oled_ssd130x.h ****         else
 2707              		.loc 9 244 42 view .LVU636
 2708 010a 97F814B0 		ldrb	fp, [r7, #20]	@ zero_extendqisi2
 2709 010e 49EA0B09 		orr	r9, r9, fp
 2710 0112 87F81490 		strb	r9, [r7, #20]
 2711              	.L205:
 2712              	.LVL244:
 244:../../libdaisy/src/dev/oled_ssd130x.h ****         else
 2713              		.loc 9 244 42 view .LVU637
 2714              	.LBE597:
 2715              	.LBE596:
 2716              	.LBE595:
 203:../../libdaisy/src/hid/disp/display.h ****             {
 2717              		.loc 8 203 13 view .LVU638
 2718 0116 7700     		lsls	r7, r6, #1
 2719              	.LVL245:
 206:../../libdaisy/src/hid/disp/display.h ****             }
 2720              		.loc 8 206 20 view .LVU639
 2721 0118 18BF     		it	ne
 2722 011a D644     		addne	lr, lr, r10
 2723              	.LVL246:
 209:../../libdaisy/src/hid/disp/display.h ****             {
 2724              		.loc 8 209 13 view .LVU640
 2725 011c B845     		cmp	r8, r7
 2726 011e 02DD     		ble	.L208
 211:../../libdaisy/src/hid/disp/display.h ****                 y1 += signY;
 2727              		.loc 8 211 23 view .LVU641
 2728 0120 4644     		add	r6, r6, r8
 2729              	.LVL247:
 212:../../libdaisy/src/hid/disp/display.h ****             }
 2730              		.loc 8 212 20 view .LVU642
 2731 0122 0CF1FF3C 		add	ip, ip, #-1
 2732              	.LVL248:
 2733              	.L208:
 199:../../libdaisy/src/hid/disp/display.h ****         {
 2734              		.loc 8 199 26 is_stmt 1 view .LVU643
 2735 0126 7345     		cmp	r3, lr
 2736 0128 DBD1     		bne	.L204
 199:../../libdaisy/src/hid/disp/display.h ****         {
 2737              		.loc 8 199 26 is_stmt 0 view .LVU644
 2738 012a 6245     		cmp	r2, ip
ARM GAS  C:\Users\VINCIU~1\AppData\Local\Temp\ccNNq0o9.s 			page 86


 2739 012c D9D1     		bne	.L204
 2740 012e 0026     		movs	r6, #0
 2741              	.LVL249:
 199:../../libdaisy/src/hid/disp/display.h ****         {
 2742              		.loc 8 199 26 view .LVU645
 2743 0130 0496     		str	r6, [sp, #16]
 2744              	.LVL250:
 2745              	.L201:
 199:../../libdaisy/src/hid/disp/display.h ****         {
 2746              		.loc 8 199 26 view .LVU646
 2747              	.LBE580:
 2748              	.LBE579:
 2749              	.LBB610:
 2750              	.LBI610:
 181:../../libdaisy/src/hid/disp/display.h ****                   uint_fast8_t y1,
 2751              		.loc 8 181 10 is_stmt 1 view .LVU647
 2752              	.LBB611:
 188:../../libdaisy/src/hid/disp/display.h ****         int_fast16_t signX  = ((x1 < x2) ? 1 : -1);
 2753              		.loc 8 188 52 is_stmt 0 view .LVU648
 2754 0132 A4EB0209 		sub	r9, r4, r2
 2755              	.LBB612:
 2756              	.LBB613:
 2757              	.LBB614:
 241:../../libdaisy/src/dev/oled_ssd130x.h ****             return;
 2758              		.loc 9 241 9 view .LVU649
 2759 0136 009F     		ldr	r7, [sp]
 2760              	.LBE614:
 2761              	.LBE613:
 2762              	.LBE612:
 188:../../libdaisy/src/hid/disp/display.h ****         int_fast16_t signX  = ((x1 < x2) ? 1 : -1);
 2763              		.loc 8 188 22 view .LVU650
 2764 0138 B9F1000F 		cmp	r9, #0
 2765 013c B8BF     		it	lt
 2766 013e C9F10009 		rsblt	r9, r9, #0
 2767              	.LVL251:
 2768              	.LBB629:
 2769              	.LBB623:
 2770              	.LBB617:
 241:../../libdaisy/src/dev/oled_ssd130x.h ****             return;
 2771              		.loc 9 241 28 view .LVU651
 2772 0142 3F2C     		cmp	r4, #63
 2773 0144 94BF     		ite	ls
 2774 0146 0026     		movls	r6, #0
 2775 0148 0126     		movhi	r6, #1
 2776              	.LBE617:
 2777              	.LBE623:
 2778              	.LBE629:
 190:../../libdaisy/src/hid/disp/display.h ****         int_fast16_t error  = deltaX - deltaY;
 2779              		.loc 8 190 42 view .LVU652
 2780 014a A242     		cmp	r2, r4
 191:../../libdaisy/src/hid/disp/display.h ****         int_fast16_t error2;
 2781              		.loc 8 191 22 view .LVU653
 2782 014c C9F10008 		rsb	r8, r9, #0
 2783              	.LVL252:
 2784              	.LBB630:
 2785              	.LBI612:
  41:../../libdaisy/src/hid/disp/oled_display.h ****     {
ARM GAS  C:\Users\VINCIU~1\AppData\Local\Temp\ccNNq0o9.s 			page 87


 2786              		.loc 7 41 10 is_stmt 1 view .LVU654
 2787              	.LBB624:
 2788              	.LBI613:
 239:../../libdaisy/src/dev/oled_ssd130x.h ****     {
 2789              		.loc 9 239 10 view .LVU655
 2790              	.LBB618:
 241:../../libdaisy/src/dev/oled_ssd130x.h ****             return;
 2791              		.loc 9 241 28 is_stmt 0 view .LVU656
 2792 0150 0396     		str	r6, [sp, #12]
 2793              	.LBE618:
 2794              	.LBE624:
 2795              	.LBE630:
 190:../../libdaisy/src/hid/disp/display.h ****         int_fast16_t error  = deltaX - deltaY;
 2796              		.loc 8 190 42 view .LVU657
 2797 0152 C0F02381 		bcc	.L209
 2798              	.LVL253:
 2799              	.LBB631:
 2800              	.LBB625:
 2801              	.LBB619:
 241:../../libdaisy/src/dev/oled_ssd130x.h ****             return;
 2802              		.loc 9 241 9 view .LVU658
 2803 0156 002F     		cmp	r7, #0
 2804 0158 40F05081 		bne	.L244
 2805 015c 002E     		cmp	r6, #0
 2806 015e 40F04D81 		bne	.L244
 2807              	.LBE619:
 2808              	.LBE625:
 2809              	.LBE631:
 190:../../libdaisy/src/hid/disp/display.h ****         int_fast16_t error  = deltaX - deltaY;
 2810              		.loc 8 190 42 view .LVU659
 2811 0162 4FF0FF36 		mov	r6, #-1
 2812 0166 0096     		str	r6, [sp]
 2813              	.LBB632:
 2814              	.LBB626:
 2815              	.LBB620:
 244:../../libdaisy/src/dev/oled_ssd130x.h ****         else
 2816              		.loc 9 244 28 view .LVU660
 2817 0168 E608     		lsrs	r6, r4, #3
 244:../../libdaisy/src/dev/oled_ssd130x.h ****         else
 2818              		.loc 9 244 42 view .LVU661
 2819 016a 03EBC616 		add	r6, r3, r6, lsl #7
 2820 016e 0644     		add	r6, r6, r0
 243:../../libdaisy/src/dev/oled_ssd130x.h ****             buffer_[x + (y / 8) * width] |= (1 << (y % 8));
 2821              		.loc 9 243 9 view .LVU662
 2822 0170 002D     		cmp	r5, #0
 2823 0172 00F01E81 		beq	.L211
 2824              	.LVL254:
 2825              	.L283:
 244:../../libdaisy/src/dev/oled_ssd130x.h ****         else
 2826              		.loc 9 244 48 view .LVU663
 2827 0176 4FF0010C 		mov	ip, #1
 244:../../libdaisy/src/dev/oled_ssd130x.h ****         else
 2828              		.loc 9 244 54 view .LVU664
 2829 017a 04F00707 		and	r7, r4, #7
 244:../../libdaisy/src/dev/oled_ssd130x.h ****         else
 2830              		.loc 9 244 48 view .LVU665
 2831 017e 0CFA07F7 		lsl	r7, ip, r7
ARM GAS  C:\Users\VINCIU~1\AppData\Local\Temp\ccNNq0o9.s 			page 88


 244:../../libdaisy/src/dev/oled_ssd130x.h ****         else
 2832              		.loc 9 244 42 view .LVU666
 2833 0182 96F814C0 		ldrb	ip, [r6, #20]	@ zero_extendqisi2
 2834 0186 47EA0C07 		orr	r7, r7, ip
 2835 018a 3775     		strb	r7, [r6, #20]
 2836 018c 0026     		movs	r6, #0
 2837 018e 0396     		str	r6, [sp, #12]
 2838              	.L210:
 2839              	.LVL255:
 244:../../libdaisy/src/dev/oled_ssd130x.h ****         else
 2840              		.loc 9 244 42 view .LVU667
 2841              	.LBE620:
 2842              	.LBE626:
 2843              	.LBE632:
 199:../../libdaisy/src/hid/disp/display.h ****         {
 2844              		.loc 8 199 26 is_stmt 1 view .LVU668
 2845 0190 A242     		cmp	r2, r4
 2846 0192 00F03D81 		beq	.L282
 2847              	.L213:
 2848              	.LVL256:
 190:../../libdaisy/src/hid/disp/display.h ****         int_fast16_t error  = deltaX - deltaY;
 2849              		.loc 8 190 42 is_stmt 0 view .LVU669
 2850 0196 C446     		mov	ip, r8
 2851 0198 1646     		mov	r6, r2
 2852 019a 1F46     		mov	r7, r3
 2853 019c 0592     		str	r2, [sp, #20]
 2854              	.LVL257:
 2855              	.L215:
 2856              	.LBB633:
 2857              	.LBI633:
  41:../../libdaisy/src/hid/disp/oled_display.h ****     {
 2858              		.loc 7 41 10 is_stmt 1 view .LVU670
 2859              	.LBB634:
 2860              	.LBI634:
 239:../../libdaisy/src/dev/oled_ssd130x.h ****     {
 2861              		.loc 9 239 10 view .LVU671
 2862              	.LBB635:
 241:../../libdaisy/src/dev/oled_ssd130x.h ****             return;
 2863              		.loc 9 241 9 is_stmt 0 view .LVU672
 2864 019e 7F2F     		cmp	r7, #127
 2865 01a0 15D8     		bhi	.L216
 2866 01a2 3F2E     		cmp	r6, #63
 2867 01a4 13D8     		bhi	.L216
 244:../../libdaisy/src/dev/oled_ssd130x.h ****         else
 2868              		.loc 9 244 28 view .LVU673
 2869 01a6 4FEAD60E 		lsr	lr, r6, #3
 244:../../libdaisy/src/dev/oled_ssd130x.h ****         else
 2870              		.loc 9 244 54 view .LVU674
 2871 01aa 06F0070B 		and	fp, r6, #7
 244:../../libdaisy/src/dev/oled_ssd130x.h ****         else
 2872              		.loc 9 244 48 view .LVU675
 2873 01ae 4FF0010A 		mov	r10, #1
 244:../../libdaisy/src/dev/oled_ssd130x.h ****         else
 2874              		.loc 9 244 42 view .LVU676
 2875 01b2 07EBCE1E 		add	lr, r7, lr, lsl #7
 2876 01b6 8644     		add	lr, lr, r0
 243:../../libdaisy/src/dev/oled_ssd130x.h ****             buffer_[x + (y / 8) * width] |= (1 << (y % 8));
ARM GAS  C:\Users\VINCIU~1\AppData\Local\Temp\ccNNq0o9.s 			page 89


 2877              		.loc 9 243 9 view .LVU677
 2878 01b8 002D     		cmp	r5, #0
 2879 01ba 00F0E680 		beq	.L217
 244:../../libdaisy/src/dev/oled_ssd130x.h ****         else
 2880              		.loc 9 244 48 view .LVU678
 2881 01be 0AFA0BFA 		lsl	r10, r10, fp
 244:../../libdaisy/src/dev/oled_ssd130x.h ****         else
 2882              		.loc 9 244 42 view .LVU679
 2883 01c2 9EF814B0 		ldrb	fp, [lr, #20]	@ zero_extendqisi2
 2884 01c6 4AEA0B0A 		orr	r10, r10, fp
 2885 01ca 8EF814A0 		strb	r10, [lr, #20]
 2886              	.L216:
 2887              	.LVL258:
 244:../../libdaisy/src/dev/oled_ssd130x.h ****         else
 2888              		.loc 9 244 42 view .LVU680
 2889              	.LBE635:
 2890              	.LBE634:
 2891              	.LBE633:
 203:../../libdaisy/src/hid/disp/display.h ****             {
 2892              		.loc 8 203 13 view .LVU681
 2893 01ce B8EB4C0F 		cmp	r8, ip, lsl #1
 202:../../libdaisy/src/hid/disp/display.h ****             if(error2 > -deltaY)
 2894              		.loc 8 202 20 view .LVU682
 2895 01d2 4FEA4C0E 		lsl	lr, ip, #1
 2896              	.LVL259:
 203:../../libdaisy/src/hid/disp/display.h ****             {
 2897              		.loc 8 203 13 view .LVU683
 2898 01d6 02DA     		bge	.L218
 205:../../libdaisy/src/hid/disp/display.h ****                 x1 += signX;
 2899              		.loc 8 205 23 view .LVU684
 2900 01d8 ACEB090C 		sub	ip, ip, r9
 2901              	.LVL260:
 206:../../libdaisy/src/hid/disp/display.h ****             }
 2902              		.loc 8 206 20 view .LVU685
 2903 01dc 013F     		subs	r7, r7, #1
 2904              	.LVL261:
 2905              	.L218:
 209:../../libdaisy/src/hid/disp/display.h ****             {
 2906              		.loc 8 209 13 view .LVU686
 2907 01de BEF1000F 		cmp	lr, #0
 2908 01e2 01D0     		beq	.L219
 212:../../libdaisy/src/hid/disp/display.h ****             }
 2909              		.loc 8 212 20 view .LVU687
 2910 01e4 009A     		ldr	r2, [sp]
 2911 01e6 1644     		add	r6, r6, r2
 2912              	.LVL262:
 2913              	.L219:
 199:../../libdaisy/src/hid/disp/display.h ****         {
 2914              		.loc 8 199 26 is_stmt 1 view .LVU688
 2915 01e8 BB42     		cmp	r3, r7
 2916 01ea D8D1     		bne	.L215
 199:../../libdaisy/src/hid/disp/display.h ****         {
 2917              		.loc 8 199 26 is_stmt 0 view .LVU689
 2918 01ec B442     		cmp	r4, r6
 2919 01ee D6D1     		bne	.L215
 2920 01f0 059A     		ldr	r2, [sp, #20]
 2921              	.LVL263:
ARM GAS  C:\Users\VINCIU~1\AppData\Local\Temp\ccNNq0o9.s 			page 90


 2922              	.L212:
 199:../../libdaisy/src/hid/disp/display.h ****         {
 2923              		.loc 8 199 26 view .LVU690
 2924              	.LBE611:
 2925              	.LBE610:
 2926              	.LBB646:
 2927              	.LBI646:
 181:../../libdaisy/src/hid/disp/display.h ****                   uint_fast8_t y1,
 2928              		.loc 8 181 10 is_stmt 1 view .LVU691
 2929              	.LBB647:
 187:../../libdaisy/src/hid/disp/display.h ****         int_fast16_t deltaY = abs((int_fast16_t)y2 - (int_fast16_t)y1);
 2930              		.loc 8 187 52 is_stmt 0 view .LVU692
 2931 01f2 A1EB030E 		sub	lr, r1, r3
 187:../../libdaisy/src/hid/disp/display.h ****         int_fast16_t deltaY = abs((int_fast16_t)y2 - (int_fast16_t)y1);
 2932              		.loc 8 187 22 view .LVU693
 2933 01f6 BEF1000F 		cmp	lr, #0
 2934 01fa B8BF     		it	lt
 2935 01fc CEF1000E 		rsblt	lr, lr, #0
 2936              	.LVL264:
 2937              	.LBB648:
 2938              	.LBB649:
 2939              	.LBB650:
 241:../../libdaisy/src/dev/oled_ssd130x.h ****             return;
 2940              		.loc 9 241 14 view .LVU694
 2941 0200 7F29     		cmp	r1, #127
 2942 0202 94BF     		ite	ls
 2943 0204 4FF0000A 		movls	r10, #0
 2944 0208 4FF0010A 		movhi	r10, #1
 2945              	.LBE650:
 2946              	.LBE649:
 2947              	.LBE648:
 189:../../libdaisy/src/hid/disp/display.h ****         int_fast16_t signY  = ((y1 < y2) ? 1 : -1);
 2948              		.loc 8 189 42 view .LVU695
 2949 020c 9942     		cmp	r1, r3
 2950 020e 8CBF     		ite	hi
 2951 0210 4FF00109 		movhi	r9, #1
 2952 0214 4FF0FF39 		movls	r9, #-1
 2953              	.LVL265:
 2954              	.LBB657:
 2955              	.LBI648:
  41:../../libdaisy/src/hid/disp/oled_display.h ****     {
 2956              		.loc 7 41 10 is_stmt 1 view .LVU696
 2957              	.LBB655:
 2958              	.LBI649:
 239:../../libdaisy/src/dev/oled_ssd130x.h ****     {
 2959              		.loc 9 239 10 view .LVU697
 2960              	.LBB653:
 241:../../libdaisy/src/dev/oled_ssd130x.h ****             return;
 2961              		.loc 9 241 9 is_stmt 0 view .LVU698
 2962 0218 BAF1000F 		cmp	r10, #0
 2963 021c 13D1     		bne	.L221
 2964 021e 039E     		ldr	r6, [sp, #12]
 2965 0220 8EB9     		cbnz	r6, .L221
 244:../../libdaisy/src/dev/oled_ssd130x.h ****         else
 2966              		.loc 9 244 28 view .LVU699
 2967 0222 E608     		lsrs	r6, r4, #3
 244:../../libdaisy/src/dev/oled_ssd130x.h ****         else
ARM GAS  C:\Users\VINCIU~1\AppData\Local\Temp\ccNNq0o9.s 			page 91


 2968              		.loc 9 244 42 view .LVU700
 2969 0224 01EBC616 		add	r6, r1, r6, lsl #7
 2970 0228 0644     		add	r6, r6, r0
 243:../../libdaisy/src/dev/oled_ssd130x.h ****             buffer_[x + (y / 8) * width] |= (1 << (y % 8));
 2971              		.loc 9 243 9 view .LVU701
 2972 022a 002D     		cmp	r5, #0
 2973 022c 00F0D380 		beq	.L222
 244:../../libdaisy/src/dev/oled_ssd130x.h ****         else
 2974              		.loc 9 244 48 view .LVU702
 2975 0230 4FF0010C 		mov	ip, #1
 244:../../libdaisy/src/dev/oled_ssd130x.h ****         else
 2976              		.loc 9 244 54 view .LVU703
 2977 0234 04F00707 		and	r7, r4, #7
 244:../../libdaisy/src/dev/oled_ssd130x.h ****         else
 2978              		.loc 9 244 48 view .LVU704
 2979 0238 0CFA07F7 		lsl	r7, ip, r7
 244:../../libdaisy/src/dev/oled_ssd130x.h ****         else
 2980              		.loc 9 244 42 view .LVU705
 2981 023c 96F814C0 		ldrb	ip, [r6, #20]	@ zero_extendqisi2
 2982 0240 47EA0C07 		orr	r7, r7, ip
 2983 0244 3775     		strb	r7, [r6, #20]
 2984              	.L221:
 2985              	.LVL266:
 244:../../libdaisy/src/dev/oled_ssd130x.h ****         else
 2986              		.loc 9 244 42 view .LVU706
 2987              	.LBE653:
 2988              	.LBE655:
 2989              	.LBE657:
 199:../../libdaisy/src/hid/disp/display.h ****         {
 2990              		.loc 8 199 26 is_stmt 1 view .LVU707
 2991 0246 049E     		ldr	r6, [sp, #16]
 2992 0248 26BB     		cbnz	r6, .L223
 187:../../libdaisy/src/hid/disp/display.h ****         int_fast16_t deltaY = abs((int_fast16_t)y2 - (int_fast16_t)y1);
 2993              		.loc 8 187 22 is_stmt 0 view .LVU708
 2994 024a 7746     		mov	r7, lr
 199:../../libdaisy/src/hid/disp/display.h ****         {
 2995              		.loc 8 199 26 view .LVU709
 2996 024c 2646     		mov	r6, r4
 2997              	.LVL267:
 2998              	.L224:
 2999              	.LBB658:
 3000              	.LBI658:
  41:../../libdaisy/src/hid/disp/oled_display.h ****     {
 3001              		.loc 7 41 10 is_stmt 1 view .LVU710
 3002              	.LBB659:
 3003              	.LBI659:
 239:../../libdaisy/src/dev/oled_ssd130x.h ****     {
 3004              		.loc 9 239 10 view .LVU711
 3005              	.LBB660:
 241:../../libdaisy/src/dev/oled_ssd130x.h ****             return;
 3006              		.loc 9 241 9 is_stmt 0 view .LVU712
 3007 024e 7F2B     		cmp	r3, #127
 3008 0250 14D8     		bhi	.L226
 241:../../libdaisy/src/dev/oled_ssd130x.h ****             return;
 3009              		.loc 9 241 9 view .LVU713
 3010 0252 3F2E     		cmp	r6, #63
 3011 0254 12D8     		bhi	.L226
ARM GAS  C:\Users\VINCIU~1\AppData\Local\Temp\ccNNq0o9.s 			page 92


 244:../../libdaisy/src/dev/oled_ssd130x.h ****         else
 3012              		.loc 9 244 28 view .LVU714
 3013 0256 4FEAD60C 		lsr	ip, r6, #3
 244:../../libdaisy/src/dev/oled_ssd130x.h ****         else
 3014              		.loc 9 244 54 view .LVU715
 3015 025a 06F0070B 		and	fp, r6, #7
 244:../../libdaisy/src/dev/oled_ssd130x.h ****         else
 3016              		.loc 9 244 48 view .LVU716
 3017 025e 4FF00108 		mov	r8, #1
 244:../../libdaisy/src/dev/oled_ssd130x.h ****         else
 3018              		.loc 9 244 42 view .LVU717
 3019 0262 03EBCC1C 		add	ip, r3, ip, lsl #7
 3020 0266 8444     		add	ip, ip, r0
 243:../../libdaisy/src/dev/oled_ssd130x.h ****             buffer_[x + (y / 8) * width] |= (1 << (y % 8));
 3021              		.loc 9 243 9 view .LVU718
 3022 0268 002D     		cmp	r5, #0
 3023 026a 73D0     		beq	.L227
 244:../../libdaisy/src/dev/oled_ssd130x.h ****         else
 3024              		.loc 9 244 48 view .LVU719
 3025 026c 08FA0BF8 		lsl	r8, r8, fp
 244:../../libdaisy/src/dev/oled_ssd130x.h ****         else
 3026              		.loc 9 244 42 view .LVU720
 3027 0270 9CF814B0 		ldrb	fp, [ip, #20]	@ zero_extendqisi2
 3028 0274 48EA0B08 		orr	r8, r8, fp
 3029 0278 8CF81480 		strb	r8, [ip, #20]
 3030              	.L226:
 3031              	.LVL268:
 244:../../libdaisy/src/dev/oled_ssd130x.h ****         else
 3032              		.loc 9 244 42 view .LVU721
 3033              	.LBE660:
 3034              	.LBE659:
 3035              	.LBE658:
 203:../../libdaisy/src/hid/disp/display.h ****             {
 3036              		.loc 8 203 13 view .LVU722
 3037 027c 5FEA470C 		lsls	ip, r7, #1
 3038              	.LVL269:
 206:../../libdaisy/src/hid/disp/display.h ****             }
 3039              		.loc 8 206 20 view .LVU723
 3040 0280 18BF     		it	ne
 3041 0282 4B44     		addne	r3, r3, r9
 3042              	.LVL270:
 209:../../libdaisy/src/hid/disp/display.h ****             {
 3043              		.loc 8 209 13 view .LVU724
 3044 0284 E645     		cmp	lr, ip
 3045 0286 01DD     		ble	.L229
 211:../../libdaisy/src/hid/disp/display.h ****                 y1 += signY;
 3046              		.loc 8 211 23 view .LVU725
 3047 0288 7744     		add	r7, r7, lr
 3048              	.LVL271:
 212:../../libdaisy/src/hid/disp/display.h ****             }
 3049              		.loc 8 212 20 view .LVU726
 3050 028a 013E     		subs	r6, r6, #1
 3051              	.LVL272:
 3052              	.L229:
 199:../../libdaisy/src/hid/disp/display.h ****         {
 3053              		.loc 8 199 26 is_stmt 1 view .LVU727
 3054 028c 9942     		cmp	r1, r3
ARM GAS  C:\Users\VINCIU~1\AppData\Local\Temp\ccNNq0o9.s 			page 93


 3055 028e DED1     		bne	.L224
 199:../../libdaisy/src/hid/disp/display.h ****         {
 3056              		.loc 8 199 26 is_stmt 0 view .LVU728
 3057 0290 B442     		cmp	r4, r6
 3058 0292 DCD1     		bne	.L224
 3059              	.LVL273:
 3060              	.L223:
 199:../../libdaisy/src/hid/disp/display.h ****         {
 3061              		.loc 8 199 26 view .LVU729
 3062              	.LBE647:
 3063              	.LBE646:
 3064              	.LBB669:
 3065              	.LBI669:
 181:../../libdaisy/src/hid/disp/display.h ****                   uint_fast8_t y1,
 3066              		.loc 8 181 10 is_stmt 1 view .LVU730
 3067              	.LBB670:
 188:../../libdaisy/src/hid/disp/display.h ****         int_fast16_t signX  = ((x1 < x2) ? 1 : -1);
 3068              		.loc 8 188 52 is_stmt 0 view .LVU731
 3069 0294 A2EB040E 		sub	lr, r2, r4
 188:../../libdaisy/src/hid/disp/display.h ****         int_fast16_t signX  = ((x1 < x2) ? 1 : -1);
 3070              		.loc 8 188 22 view .LVU732
 3071 0298 BEF1000F 		cmp	lr, #0
 3072 029c B8BF     		it	lt
 3073 029e CEF1000E 		rsblt	lr, lr, #0
 3074              	.LVL274:
 190:../../libdaisy/src/hid/disp/display.h ****         int_fast16_t error  = deltaX - deltaY;
 3075              		.loc 8 190 42 view .LVU733
 3076 02a2 A242     		cmp	r2, r4
 3077 02a4 8CBF     		ite	hi
 3078 02a6 4FF00108 		movhi	r8, #1
 3079 02aa 4FF0FF38 		movls	r8, #-1
 3080              	.LVL275:
 191:../../libdaisy/src/hid/disp/display.h ****         int_fast16_t error2;
 3081              		.loc 8 191 22 view .LVU734
 3082 02ae CEF1000C 		rsb	ip, lr, #0
 3083              	.LVL276:
 3084              	.LBB671:
 3085              	.LBI671:
  41:../../libdaisy/src/hid/disp/oled_display.h ****     {
 3086              		.loc 7 41 10 is_stmt 1 view .LVU735
 3087              	.LBB672:
 3088              	.LBI672:
 239:../../libdaisy/src/dev/oled_ssd130x.h ****     {
 3089              		.loc 9 239 10 view .LVU736
 3090              	.LBB673:
 241:../../libdaisy/src/dev/oled_ssd130x.h ****             return;
 3091              		.loc 9 241 9 is_stmt 0 view .LVU737
 3092 02b2 BAF1000F 		cmp	r10, #0
 3093 02b6 0ED1     		bne	.L231
 3094 02b8 029B     		ldr	r3, [sp, #8]
 3095 02ba 63B9     		cbnz	r3, .L231
 244:../../libdaisy/src/dev/oled_ssd130x.h ****         else
 3096              		.loc 9 244 28 view .LVU738
 3097 02bc D308     		lsrs	r3, r2, #3
 244:../../libdaisy/src/dev/oled_ssd130x.h ****         else
 3098              		.loc 9 244 54 view .LVU739
 3099 02be 02F00707 		and	r7, r2, #7
ARM GAS  C:\Users\VINCIU~1\AppData\Local\Temp\ccNNq0o9.s 			page 94


 244:../../libdaisy/src/dev/oled_ssd130x.h ****         else
 3100              		.loc 9 244 48 view .LVU740
 3101 02c2 0126     		movs	r6, #1
 244:../../libdaisy/src/dev/oled_ssd130x.h ****         else
 3102              		.loc 9 244 42 view .LVU741
 3103 02c4 01EBC313 		add	r3, r1, r3, lsl #7
 3104 02c8 0344     		add	r3, r3, r0
 243:../../libdaisy/src/dev/oled_ssd130x.h ****             buffer_[x + (y / 8) * width] |= (1 << (y % 8));
 3105              		.loc 9 243 9 view .LVU742
 3106 02ca 002D     		cmp	r5, #0
 3107 02cc 7CD0     		beq	.L232
 244:../../libdaisy/src/dev/oled_ssd130x.h ****         else
 3108              		.loc 9 244 48 view .LVU743
 3109 02ce BE40     		lsls	r6, r6, r7
 244:../../libdaisy/src/dev/oled_ssd130x.h ****         else
 3110              		.loc 9 244 42 view .LVU744
 3111 02d0 1F7D     		ldrb	r7, [r3, #20]	@ zero_extendqisi2
 3112 02d2 3E43     		orrs	r6, r6, r7
 3113 02d4 1E75     		strb	r6, [r3, #20]
 3114              	.L231:
 3115              	.LVL277:
 244:../../libdaisy/src/dev/oled_ssd130x.h ****         else
 3116              		.loc 9 244 42 view .LVU745
 3117              	.LBE673:
 3118              	.LBE672:
 3119              	.LBE671:
 199:../../libdaisy/src/hid/disp/display.h ****         {
 3120              		.loc 8 199 26 is_stmt 1 view .LVU746
 3121 02d6 019B     		ldr	r3, [sp, #4]
 3122 02d8 002B     		cmp	r3, #0
 3123 02da 7FF4CDAE 		bne	.L189
 3124 02de 6646     		mov	r6, ip
 3125 02e0 0B46     		mov	r3, r1
 3126              	.LVL278:
 3127              	.L233:
 3128              	.LBB678:
 3129              	.LBI678:
  41:../../libdaisy/src/hid/disp/oled_display.h ****     {
 3130              		.loc 7 41 10 view .LVU747
 3131              	.LBB679:
 3132              	.LBI679:
 239:../../libdaisy/src/dev/oled_ssd130x.h ****     {
 3133              		.loc 9 239 10 view .LVU748
 3134              	.LBB680:
 241:../../libdaisy/src/dev/oled_ssd130x.h ****             return;
 3135              		.loc 9 241 9 is_stmt 0 view .LVU749
 3136 02e2 7F2B     		cmp	r3, #127
 3137 02e4 12D8     		bhi	.L235
 241:../../libdaisy/src/dev/oled_ssd130x.h ****             return;
 3138              		.loc 9 241 9 view .LVU750
 3139 02e6 3F2C     		cmp	r4, #63
 3140 02e8 10D8     		bhi	.L235
 244:../../libdaisy/src/dev/oled_ssd130x.h ****         else
 3141              		.loc 9 244 28 view .LVU751
 3142 02ea E708     		lsrs	r7, r4, #3
 244:../../libdaisy/src/dev/oled_ssd130x.h ****         else
 3143              		.loc 9 244 54 view .LVU752
ARM GAS  C:\Users\VINCIU~1\AppData\Local\Temp\ccNNq0o9.s 			page 95


 3144 02ec 04F0070A 		and	r10, r4, #7
 244:../../libdaisy/src/dev/oled_ssd130x.h ****         else
 3145              		.loc 9 244 48 view .LVU753
 3146 02f0 4FF00109 		mov	r9, #1
 244:../../libdaisy/src/dev/oled_ssd130x.h ****         else
 3147              		.loc 9 244 42 view .LVU754
 3148 02f4 03EBC717 		add	r7, r3, r7, lsl #7
 3149 02f8 0744     		add	r7, r7, r0
 243:../../libdaisy/src/dev/oled_ssd130x.h ****             buffer_[x + (y / 8) * width] |= (1 << (y % 8));
 3150              		.loc 9 243 9 view .LVU755
 3151 02fa A5B3     		cbz	r5, .L236
 244:../../libdaisy/src/dev/oled_ssd130x.h ****         else
 3152              		.loc 9 244 48 view .LVU756
 3153 02fc 09FA0AF9 		lsl	r9, r9, r10
 244:../../libdaisy/src/dev/oled_ssd130x.h ****         else
 3154              		.loc 9 244 42 view .LVU757
 3155 0300 97F814A0 		ldrb	r10, [r7, #20]	@ zero_extendqisi2
 3156 0304 49EA0A09 		orr	r9, r9, r10
 3157 0308 87F81490 		strb	r9, [r7, #20]
 3158              	.L235:
 3159              	.LVL279:
 244:../../libdaisy/src/dev/oled_ssd130x.h ****         else
 3160              		.loc 9 244 42 view .LVU758
 3161              	.LBE680:
 3162              	.LBE679:
 3163              	.LBE678:
 203:../../libdaisy/src/hid/disp/display.h ****             {
 3164              		.loc 8 203 13 view .LVU759
 3165 030c BCEB460F 		cmp	ip, r6, lsl #1
 202:../../libdaisy/src/hid/disp/display.h ****             if(error2 > -deltaY)
 3166              		.loc 8 202 20 view .LVU760
 3167 0310 4FEA4607 		lsl	r7, r6, #1
 3168              	.LVL280:
 203:../../libdaisy/src/hid/disp/display.h ****             {
 3169              		.loc 8 203 13 view .LVU761
 3170 0314 02DA     		bge	.L237
 205:../../libdaisy/src/hid/disp/display.h ****                 x1 += signX;
 3171              		.loc 8 205 23 view .LVU762
 3172 0316 A6EB0E06 		sub	r6, r6, lr
 3173              	.LVL281:
 206:../../libdaisy/src/hid/disp/display.h ****             }
 3174              		.loc 8 206 20 view .LVU763
 3175 031a 013B     		subs	r3, r3, #1
 3176              	.LVL282:
 3177              	.L237:
 209:../../libdaisy/src/hid/disp/display.h ****             {
 3178              		.loc 8 209 13 view .LVU764
 3179 031c 07B1     		cbz	r7, .L238
 212:../../libdaisy/src/hid/disp/display.h ****             }
 3180              		.loc 8 212 20 view .LVU765
 3181 031e 4444     		add	r4, r4, r8
 3182              	.LVL283:
 3183              	.L238:
 199:../../libdaisy/src/hid/disp/display.h ****         {
 3184              		.loc 8 199 26 is_stmt 1 view .LVU766
 3185 0320 9942     		cmp	r1, r3
 3186 0322 DED1     		bne	.L233
ARM GAS  C:\Users\VINCIU~1\AppData\Local\Temp\ccNNq0o9.s 			page 96


 199:../../libdaisy/src/hid/disp/display.h ****         {
 3187              		.loc 8 199 26 is_stmt 0 view .LVU767
 3188 0324 A242     		cmp	r2, r4
 3189 0326 DCD1     		bne	.L233
 3190              	.LBE670:
 3191              	.LBE669:
 3192              	.LBE722:
 241:../../libdaisy/src/hid/disp/display.h **** 
 3193              		.loc 8 241 5 view .LVU768
 3194 0328 07B0     		add	sp, sp, #28
 3195              		.cfi_remember_state
 3196              		.cfi_def_cfa_offset 36
 3197              		@ sp needed
 3198 032a BDE8F08F 		pop	{r4, r5, r6, r7, r8, r9, r10, fp, pc}
 3199              	.LVL284:
 3200              	.L198:
 3201              		.cfi_restore_state
 3202              	.LBB723:
 3203              	.LBB689:
 3204              	.LBB606:
 3205              	.LBB602:
  41:../../libdaisy/src/hid/disp/oled_display.h ****     {
 3206              		.loc 7 41 10 is_stmt 1 view .LVU769
 3207              	.LBB591:
 239:../../libdaisy/src/dev/oled_ssd130x.h ****     {
 3208              		.loc 9 239 10 view .LVU770
 3209              	.LBB587:
 241:../../libdaisy/src/dev/oled_ssd130x.h ****             return;
 3210              		.loc 9 241 28 is_stmt 0 view .LVU771
 3211 032e 3F2A     		cmp	r2, #63
 3212              	.LBE587:
 3213              	.LBE591:
 3214              	.LBE602:
 189:../../libdaisy/src/hid/disp/display.h ****         int_fast16_t signY  = ((y1 < y2) ? 1 : -1);
 3215              		.loc 8 189 42 view .LVU772
 3216 0330 4FF0010A 		mov	r10, #1
 3217              	.LBB603:
 3218              	.LBB592:
 3219              	.LBB588:
 241:../../libdaisy/src/dev/oled_ssd130x.h ****             return;
 3220              		.loc 9 241 28 view .LVU773
 3221 0334 94BF     		ite	ls
 3222 0336 0026     		movls	r6, #0
 3223 0338 0126     		movhi	r6, #1
 241:../../libdaisy/src/dev/oled_ssd130x.h ****             return;
 3224              		.loc 9 241 14 view .LVU774
 3225 033a 7F2B     		cmp	r3, #127
 241:../../libdaisy/src/dev/oled_ssd130x.h ****             return;
 3226              		.loc 9 241 28 view .LVU775
 3227 033c 0296     		str	r6, [sp, #8]
 241:../../libdaisy/src/dev/oled_ssd130x.h ****             return;
 3228              		.loc 9 241 14 view .LVU776
 3229 033e 94BF     		ite	ls
 3230 0340 0027     		movls	r7, #0
 3231 0342 0127     		movhi	r7, #1
 3232 0344 0097     		str	r7, [sp]
 241:../../libdaisy/src/dev/oled_ssd130x.h ****             return;
ARM GAS  C:\Users\VINCIU~1\AppData\Local\Temp\ccNNq0o9.s 			page 97


 3233              		.loc 9 241 9 view .LVU777
 3234 0346 002E     		cmp	r6, #0
 3235 0348 7FF4C8AE 		bne	.L202
 3236 034c 002F     		cmp	r7, #0
 3237 034e 3FF4AEAE 		beq	.L240
 3238 0352 C3E6     		b	.L202
 3239              	.LVL285:
 3240              	.L227:
 241:../../libdaisy/src/dev/oled_ssd130x.h ****             return;
 3241              		.loc 9 241 9 view .LVU778
 3242              	.LBE588:
 3243              	.LBE592:
 3244              	.LBE603:
 3245              	.LBE606:
 3246              	.LBE689:
 3247              	.LBB690:
 3248              	.LBB667:
 3249              	.LBB665:
 3250              	.LBB664:
 3251              	.LBB663:
 3252              	.LBB661:
 3253              	.LBI661:
 239:../../libdaisy/src/dev/oled_ssd130x.h ****     {
 3254              		.loc 9 239 10 is_stmt 1 view .LVU779
 3255              	.LBB662:
 246:../../libdaisy/src/dev/oled_ssd130x.h ****     }
 3256              		.loc 9 246 49 is_stmt 0 view .LVU780
 3257 0354 08FA0BFB 		lsl	fp, r8, fp
 246:../../libdaisy/src/dev/oled_ssd130x.h ****     }
 3258              		.loc 9 246 42 view .LVU781
 3259 0358 9CF81480 		ldrb	r8, [ip, #20]	@ zero_extendqisi2
 3260 035c 28EA0B08 		bic	r8, r8, fp
 3261 0360 8CF81480 		strb	r8, [ip, #20]
 3262 0364 8AE7     		b	.L226
 3263              	.LVL286:
 3264              	.L236:
 246:../../libdaisy/src/dev/oled_ssd130x.h ****     }
 3265              		.loc 9 246 42 view .LVU782
 3266              	.LBE662:
 3267              	.LBE661:
 3268              	.LBE663:
 3269              	.LBE664:
 3270              	.LBE665:
 3271              	.LBE667:
 3272              	.LBE690:
 3273              	.LBB691:
 3274              	.LBB687:
 3275              	.LBB685:
 3276              	.LBB684:
 3277              	.LBB683:
 3278              	.LBB681:
 3279              	.LBI681:
 239:../../libdaisy/src/dev/oled_ssd130x.h ****     {
 3280              		.loc 9 239 10 is_stmt 1 view .LVU783
 3281              	.LBB682:
 246:../../libdaisy/src/dev/oled_ssd130x.h ****     }
 3282              		.loc 9 246 49 is_stmt 0 view .LVU784
ARM GAS  C:\Users\VINCIU~1\AppData\Local\Temp\ccNNq0o9.s 			page 98


 3283 0366 09FA0AFA 		lsl	r10, r9, r10
 246:../../libdaisy/src/dev/oled_ssd130x.h ****     }
 3284              		.loc 9 246 42 view .LVU785
 3285 036a 97F81490 		ldrb	r9, [r7, #20]	@ zero_extendqisi2
 3286 036e 29EA0A09 		bic	r9, r9, r10
 3287 0372 87F81490 		strb	r9, [r7, #20]
 3288 0376 C9E7     		b	.L235
 3289              	.LVL287:
 3290              	.L206:
 246:../../libdaisy/src/dev/oled_ssd130x.h ****     }
 3291              		.loc 9 246 42 view .LVU786
 3292              	.LBE682:
 3293              	.LBE681:
 3294              	.LBE683:
 3295              	.LBE684:
 3296              	.LBE685:
 3297              	.LBE687:
 3298              	.LBE691:
 3299              	.LBB692:
 3300              	.LBB607:
 3301              	.LBB604:
 3302              	.LBB601:
 3303              	.LBB600:
 3304              	.LBB598:
 3305              	.LBI598:
 239:../../libdaisy/src/dev/oled_ssd130x.h ****     {
 3306              		.loc 9 239 10 is_stmt 1 view .LVU787
 3307              	.LBB599:
 246:../../libdaisy/src/dev/oled_ssd130x.h ****     }
 3308              		.loc 9 246 49 is_stmt 0 view .LVU788
 3309 0378 09FA0BFB 		lsl	fp, r9, fp
 246:../../libdaisy/src/dev/oled_ssd130x.h ****     }
 3310              		.loc 9 246 42 view .LVU789
 3311 037c 97F81490 		ldrb	r9, [r7, #20]	@ zero_extendqisi2
 3312 0380 29EA0B09 		bic	r9, r9, fp
 3313 0384 87F81490 		strb	r9, [r7, #20]
 3314 0388 C5E6     		b	.L205
 3315              	.LVL288:
 3316              	.L217:
 246:../../libdaisy/src/dev/oled_ssd130x.h ****     }
 3317              		.loc 9 246 42 view .LVU790
 3318              	.LBE599:
 3319              	.LBE598:
 3320              	.LBE600:
 3321              	.LBE601:
 3322              	.LBE604:
 3323              	.LBE607:
 3324              	.LBE692:
 3325              	.LBB693:
 3326              	.LBB643:
 3327              	.LBB640:
 3328              	.LBB639:
 3329              	.LBB638:
 3330              	.LBB636:
 3331              	.LBI636:
 239:../../libdaisy/src/dev/oled_ssd130x.h ****     {
 3332              		.loc 9 239 10 is_stmt 1 view .LVU791
ARM GAS  C:\Users\VINCIU~1\AppData\Local\Temp\ccNNq0o9.s 			page 99


 3333              	.LBB637:
 246:../../libdaisy/src/dev/oled_ssd130x.h ****     }
 3334              		.loc 9 246 49 is_stmt 0 view .LVU792
 3335 038a 0AFA0BFB 		lsl	fp, r10, fp
 246:../../libdaisy/src/dev/oled_ssd130x.h ****     }
 3336              		.loc 9 246 42 view .LVU793
 3337 038e 9EF814A0 		ldrb	r10, [lr, #20]	@ zero_extendqisi2
 3338 0392 2AEA0B0A 		bic	r10, r10, fp
 3339 0396 8EF814A0 		strb	r10, [lr, #20]
 3340 039a 18E7     		b	.L216
 3341              	.LVL289:
 3342              	.L209:
 246:../../libdaisy/src/dev/oled_ssd130x.h ****     }
 3343              		.loc 9 246 42 view .LVU794
 3344              	.LBE637:
 3345              	.LBE636:
 3346              	.LBE638:
 3347              	.LBE639:
 3348              	.LBE640:
 3349              	.LBB641:
 3350              	.LBB627:
 3351              	.LBB621:
 241:../../libdaisy/src/dev/oled_ssd130x.h ****             return;
 3352              		.loc 9 241 9 view .LVU795
 3353 039c 97BB     		cbnz	r7, .L248
 3354 039e 8EBB     		cbnz	r6, .L248
 3355              	.LBE621:
 3356              	.LBE627:
 3357              	.LBE641:
 190:../../libdaisy/src/hid/disp/display.h ****         int_fast16_t error  = deltaX - deltaY;
 3358              		.loc 8 190 42 view .LVU796
 3359 03a0 0126     		movs	r6, #1
 3360 03a2 0096     		str	r6, [sp]
 3361              	.LBB642:
 3362              	.LBB628:
 3363              	.LBB622:
 244:../../libdaisy/src/dev/oled_ssd130x.h ****         else
 3364              		.loc 9 244 28 view .LVU797
 3365 03a4 E608     		lsrs	r6, r4, #3
 244:../../libdaisy/src/dev/oled_ssd130x.h ****         else
 3366              		.loc 9 244 42 view .LVU798
 3367 03a6 03EBC616 		add	r6, r3, r6, lsl #7
 3368 03aa 0644     		add	r6, r6, r0
 243:../../libdaisy/src/dev/oled_ssd130x.h ****             buffer_[x + (y / 8) * width] |= (1 << (y % 8));
 3369              		.loc 9 243 9 view .LVU799
 3370 03ac 002D     		cmp	r5, #0
 3371 03ae 7FF4E2AE 		bne	.L283
 3372              	.LVL290:
 3373              	.L211:
 3374              	.LBB615:
 3375              	.LBI615:
 239:../../libdaisy/src/dev/oled_ssd130x.h ****     {
 3376              		.loc 9 239 10 is_stmt 1 view .LVU800
 3377              	.LBB616:
 246:../../libdaisy/src/dev/oled_ssd130x.h ****     }
 3378              		.loc 9 246 49 is_stmt 0 view .LVU801
 3379 03b2 0127     		movs	r7, #1
ARM GAS  C:\Users\VINCIU~1\AppData\Local\Temp\ccNNq0o9.s 			page 100


 246:../../libdaisy/src/dev/oled_ssd130x.h ****     }
 3380              		.loc 9 246 55 view .LVU802
 3381 03b4 04F0070C 		and	ip, r4, #7
 246:../../libdaisy/src/dev/oled_ssd130x.h ****     }
 3382              		.loc 9 246 42 view .LVU803
 3383 03b8 0395     		str	r5, [sp, #12]
 246:../../libdaisy/src/dev/oled_ssd130x.h ****     }
 3384              		.loc 9 246 49 view .LVU804
 3385 03ba 07FA0CFC 		lsl	ip, r7, ip
 246:../../libdaisy/src/dev/oled_ssd130x.h ****     }
 3386              		.loc 9 246 42 view .LVU805
 3387 03be 377D     		ldrb	r7, [r6, #20]	@ zero_extendqisi2
 3388 03c0 27EA0C07 		bic	r7, r7, ip
 3389 03c4 3775     		strb	r7, [r6, #20]
 3390 03c6 E3E6     		b	.L210
 3391              	.LVL291:
 3392              	.L232:
 246:../../libdaisy/src/dev/oled_ssd130x.h ****     }
 3393              		.loc 9 246 42 view .LVU806
 3394              	.LBE616:
 3395              	.LBE615:
 3396              	.LBE622:
 3397              	.LBE628:
 3398              	.LBE642:
 3399              	.LBE643:
 3400              	.LBE693:
 3401              	.LBB694:
 3402              	.LBB688:
 3403              	.LBB686:
 3404              	.LBB677:
 3405              	.LBB676:
 3406              	.LBB674:
 3407              	.LBI674:
 239:../../libdaisy/src/dev/oled_ssd130x.h ****     {
 3408              		.loc 9 239 10 is_stmt 1 view .LVU807
 3409              	.LBB675:
 246:../../libdaisy/src/dev/oled_ssd130x.h ****     }
 3410              		.loc 9 246 49 is_stmt 0 view .LVU808
 3411 03c8 06FA07F7 		lsl	r7, r6, r7
 246:../../libdaisy/src/dev/oled_ssd130x.h ****     }
 3412              		.loc 9 246 42 view .LVU809
 3413 03cc 1E7D     		ldrb	r6, [r3, #20]	@ zero_extendqisi2
 3414 03ce 26EA0706 		bic	r6, r6, r7
 3415 03d2 1E75     		strb	r6, [r3, #20]
 3416 03d4 7FE7     		b	.L231
 3417              	.LVL292:
 3418              	.L222:
 246:../../libdaisy/src/dev/oled_ssd130x.h ****     }
 3419              		.loc 9 246 42 view .LVU810
 3420              	.LBE675:
 3421              	.LBE674:
 3422              	.LBE676:
 3423              	.LBE677:
 3424              	.LBE686:
 3425              	.LBE688:
 3426              	.LBE694:
 3427              	.LBB695:
ARM GAS  C:\Users\VINCIU~1\AppData\Local\Temp\ccNNq0o9.s 			page 101


 3428              	.LBB668:
 3429              	.LBB666:
 3430              	.LBB656:
 3431              	.LBB654:
 3432              	.LBB651:
 3433              	.LBI651:
 239:../../libdaisy/src/dev/oled_ssd130x.h ****     {
 3434              		.loc 9 239 10 is_stmt 1 view .LVU811
 3435              	.LBB652:
 246:../../libdaisy/src/dev/oled_ssd130x.h ****     }
 3436              		.loc 9 246 49 is_stmt 0 view .LVU812
 3437 03d6 0127     		movs	r7, #1
 246:../../libdaisy/src/dev/oled_ssd130x.h ****     }
 3438              		.loc 9 246 55 view .LVU813
 3439 03d8 04F0070C 		and	ip, r4, #7
 246:../../libdaisy/src/dev/oled_ssd130x.h ****     }
 3440              		.loc 9 246 49 view .LVU814
 3441 03dc 07FA0CFC 		lsl	ip, r7, ip
 246:../../libdaisy/src/dev/oled_ssd130x.h ****     }
 3442              		.loc 9 246 42 view .LVU815
 3443 03e0 377D     		ldrb	r7, [r6, #20]	@ zero_extendqisi2
 3444 03e2 27EA0C07 		bic	r7, r7, ip
 3445 03e6 3775     		strb	r7, [r6, #20]
 3446 03e8 2DE7     		b	.L221
 3447              	.LVL293:
 3448              	.L200:
 246:../../libdaisy/src/dev/oled_ssd130x.h ****     }
 3449              		.loc 9 246 42 view .LVU816
 3450              	.LBE652:
 3451              	.LBE651:
 3452              	.LBE654:
 3453              	.LBE656:
 3454              	.LBE666:
 3455              	.LBE668:
 3456              	.LBE695:
 3457              	.LBB696:
 3458              	.LBB608:
 3459              	.LBB605:
 3460              	.LBB593:
 3461              	.LBB589:
 3462              	.LBB584:
 3463              	.LBI584:
 239:../../libdaisy/src/dev/oled_ssd130x.h ****     {
 3464              		.loc 9 239 10 is_stmt 1 view .LVU817
 3465              	.LBB585:
 246:../../libdaisy/src/dev/oled_ssd130x.h ****     }
 3466              		.loc 9 246 49 is_stmt 0 view .LVU818
 3467 03ea 07FA0CFC 		lsl	ip, r7, ip
 246:../../libdaisy/src/dev/oled_ssd130x.h ****     }
 3468              		.loc 9 246 42 view .LVU819
 3469 03ee 377D     		ldrb	r7, [r6, #20]	@ zero_extendqisi2
 3470 03f0 0295     		str	r5, [sp, #8]
 3471 03f2 27EA0C07 		bic	r7, r7, ip
 3472 03f6 0095     		str	r5, [sp]
 3473 03f8 3775     		strb	r7, [r6, #20]
 3474 03fa 6CE6     		b	.L199
 3475              	.LVL294:
ARM GAS  C:\Users\VINCIU~1\AppData\Local\Temp\ccNNq0o9.s 			page 102


 3476              	.L244:
 246:../../libdaisy/src/dev/oled_ssd130x.h ****     }
 3477              		.loc 9 246 42 view .LVU820
 3478              	.LBE585:
 3479              	.LBE584:
 3480              	.LBE589:
 3481              	.LBE593:
 3482              	.LBE605:
 3483              	.LBE608:
 3484              	.LBE696:
 3485              	.LBB697:
 3486              	.LBB644:
 190:../../libdaisy/src/hid/disp/display.h ****         int_fast16_t error  = deltaX - deltaY;
 3487              		.loc 8 190 42 view .LVU821
 3488 03fc 4FF0FF36 		mov	r6, #-1
 3489 0400 0096     		str	r6, [sp]
 3490 0402 C5E6     		b	.L210
 3491              	.LVL295:
 3492              	.L248:
 190:../../libdaisy/src/hid/disp/display.h ****         int_fast16_t error  = deltaX - deltaY;
 3493              		.loc 8 190 42 view .LVU822
 3494 0404 0126     		movs	r6, #1
 3495 0406 0096     		str	r6, [sp]
 3496 0408 C5E6     		b	.L213
 3497              	.LVL296:
 3498              	.L281:
 190:../../libdaisy/src/hid/disp/display.h ****         int_fast16_t error  = deltaX - deltaY;
 3499              		.loc 8 190 42 view .LVU823
 3500              	.LBE644:
 3501              	.LBE697:
 3502              	.LBB698:
 3503              	.LBB609:
 199:../../libdaisy/src/hid/disp/display.h ****         {
 3504              		.loc 8 199 19 view .LVU824
 3505 040a 0126     		movs	r6, #1
 3506 040c 0496     		str	r6, [sp, #16]
 3507 040e 90E6     		b	.L201
 3508              	.LVL297:
 3509              	.L282:
 199:../../libdaisy/src/hid/disp/display.h ****         {
 3510              		.loc 8 199 19 view .LVU825
 3511              	.LBE609:
 3512              	.LBE698:
 3513              	.LBB699:
 3514              	.LBB645:
 199:../../libdaisy/src/hid/disp/display.h ****         {
 3515              		.loc 8 199 33 view .LVU826
 3516 0410 0126     		movs	r6, #1
 3517 0412 0196     		str	r6, [sp, #4]
 3518 0414 EDE6     		b	.L212
 3519              	.LBE645:
 3520              	.LBE699:
 3521              	.LBE723:
 3522              		.cfi_endproc
 3523              	.LFE4629:
 3525 0416 00BF     		.section	.text._Z17HandleMidiMessage9MidiEvent,"ax",%progbits
 3526              		.align	1
ARM GAS  C:\Users\VINCIU~1\AppData\Local\Temp\ccNNq0o9.s 			page 103


 3527              		.p2align 2,,3
 3528              		.global	_Z17HandleMidiMessage9MidiEvent
 3529              		.syntax unified
 3530              		.thumb
 3531              		.thumb_func
 3532              		.fpu fpv5-d16
 3534              	_Z17HandleMidiMessage9MidiEvent:
 3535              	.LFB4040:
  22:metamorphic_project.cpp ****     switch(m.type)
 3536              		.loc 11 22 1 is_stmt 1 view -0
 3537              		.cfi_startproc
 3538              		@ args = 116, pretend = 16, frame = 0
 3539              		@ frame_needed = 0, uses_anonymous_args = 0
 3540 0000 84B0     		sub	sp, sp, #16
 3541              		.cfi_def_cfa_offset 16
 3542 0002 10B5     		push	{r4, lr}
 3543              		.cfi_def_cfa_offset 24
 3544              		.cfi_offset 4, -24
 3545              		.cfi_offset 14, -20
  22:metamorphic_project.cpp ****     switch(m.type)
 3546              		.loc 11 22 1 is_stmt 0 view .LVU828
 3547 0004 02AC     		add	r4, sp, #8
 3548 0006 84E80F00 		stm	r4, {r0, r1, r2, r3}
 3549              	.LBB737:
  23:metamorphic_project.cpp ****     {
 3550              		.loc 11 23 14 view .LVU829
 3551 000a 9DF80830 		ldrb	r3, [sp, #8]	@ zero_extendqisi2
 3552 000e 9DF81120 		ldrb	r2, [sp, #17]	@ zero_extendqisi2
 3553              	.LVL298:
  23:metamorphic_project.cpp ****     {
 3554              		.loc 11 23 14 view .LVU830
 3555              	.LBE737:
  23:metamorphic_project.cpp ****     {
 3556              		.loc 11 23 5 is_stmt 1 view .LVU831
 3557              	.LBB770:
 3558 0012 33B1     		cbz	r3, .L285
 3559 0014 012B     		cmp	r3, #1
 3560 0016 00D1     		bne	.L284
 3561              	.LBB738:
  25:metamorphic_project.cpp **** 
 3562              		.loc 11 25 9 view .LVU832
  27:metamorphic_project.cpp ****             NoteOnEvent p = m.AsNoteOn();
 3563              		.loc 11 27 9 view .LVU833
 3564              	.LBB739:
  28:metamorphic_project.cpp ****             if(m.data[1] != 0)
 3565              		.loc 11 28 13 view .LVU834
 3566              	.LVL299:
 3567              	.LBB740:
 3568              	.LBI740:
 3569              		.file 13 "../../libdaisy/src/hid/MidiEvent.h"
   1:../../libdaisy/src/hid/MidiEvent.h **** /** Parsed from the Status Byte, these are the common Midi Messages that can be handled. \n
   2:../../libdaisy/src/hid/MidiEvent.h **** At this time only 3-byte messages are correctly parsed into MidiEvents.
   3:../../libdaisy/src/hid/MidiEvent.h **** */
   4:../../libdaisy/src/hid/MidiEvent.h **** enum MidiMessageType
   5:../../libdaisy/src/hid/MidiEvent.h **** {
   6:../../libdaisy/src/hid/MidiEvent.h ****     NoteOff,               /**< & */
   7:../../libdaisy/src/hid/MidiEvent.h ****     NoteOn,                /**< & */
ARM GAS  C:\Users\VINCIU~1\AppData\Local\Temp\ccNNq0o9.s 			page 104


   8:../../libdaisy/src/hid/MidiEvent.h ****     PolyphonicKeyPressure, /**< & */
   9:../../libdaisy/src/hid/MidiEvent.h ****     ControlChange,         /**< & */
  10:../../libdaisy/src/hid/MidiEvent.h ****     ProgramChange,         /**< & */
  11:../../libdaisy/src/hid/MidiEvent.h ****     ChannelPressure,       /**< & */
  12:../../libdaisy/src/hid/MidiEvent.h ****     PitchBend,             /**< & */
  13:../../libdaisy/src/hid/MidiEvent.h ****     SystemCommon,          /**< & */
  14:../../libdaisy/src/hid/MidiEvent.h ****     SystemRealTime,        /**< & */
  15:../../libdaisy/src/hid/MidiEvent.h ****     ChannelMode,           /**< & */
  16:../../libdaisy/src/hid/MidiEvent.h ****     MessageLast,           /**< & */
  17:../../libdaisy/src/hid/MidiEvent.h **** };
  18:../../libdaisy/src/hid/MidiEvent.h **** 
  19:../../libdaisy/src/hid/MidiEvent.h **** enum SystemCommonType
  20:../../libdaisy/src/hid/MidiEvent.h **** {
  21:../../libdaisy/src/hid/MidiEvent.h ****     SystemExclusive,     /**< & */
  22:../../libdaisy/src/hid/MidiEvent.h ****     MTCQuarterFrame,     /**< & */
  23:../../libdaisy/src/hid/MidiEvent.h ****     SongPositionPointer, /**< & */
  24:../../libdaisy/src/hid/MidiEvent.h ****     SongSelect,          /**< & */
  25:../../libdaisy/src/hid/MidiEvent.h ****     SCUndefined0,        /**< & */
  26:../../libdaisy/src/hid/MidiEvent.h ****     SCUndefined1,        /**< & */
  27:../../libdaisy/src/hid/MidiEvent.h ****     TuneRequest,         /**< & */
  28:../../libdaisy/src/hid/MidiEvent.h ****     SysExEnd,            /**< & */
  29:../../libdaisy/src/hid/MidiEvent.h ****     SystemCommonLast,    /**< & */
  30:../../libdaisy/src/hid/MidiEvent.h **** };
  31:../../libdaisy/src/hid/MidiEvent.h **** 
  32:../../libdaisy/src/hid/MidiEvent.h **** enum SystemRealTimeType
  33:../../libdaisy/src/hid/MidiEvent.h **** {
  34:../../libdaisy/src/hid/MidiEvent.h ****     TimingClock,        /**< & */
  35:../../libdaisy/src/hid/MidiEvent.h ****     SRTUndefined0,      /**< & */
  36:../../libdaisy/src/hid/MidiEvent.h ****     Start,              /**< & */
  37:../../libdaisy/src/hid/MidiEvent.h ****     Continue,           /**< & */
  38:../../libdaisy/src/hid/MidiEvent.h ****     Stop,               /**< & */
  39:../../libdaisy/src/hid/MidiEvent.h ****     SRTUndefined1,      /**< & */
  40:../../libdaisy/src/hid/MidiEvent.h ****     ActiveSensing,      /**< & */
  41:../../libdaisy/src/hid/MidiEvent.h ****     Reset,              /**< & */
  42:../../libdaisy/src/hid/MidiEvent.h ****     SystemRealTimeLast, /**< & */
  43:../../libdaisy/src/hid/MidiEvent.h **** };
  44:../../libdaisy/src/hid/MidiEvent.h **** 
  45:../../libdaisy/src/hid/MidiEvent.h **** enum ChannelModeType
  46:../../libdaisy/src/hid/MidiEvent.h **** {
  47:../../libdaisy/src/hid/MidiEvent.h ****     AllSoundOff,         /**< & */
  48:../../libdaisy/src/hid/MidiEvent.h ****     ResetAllControllers, /**< & */
  49:../../libdaisy/src/hid/MidiEvent.h ****     LocalControl,        /**< & */
  50:../../libdaisy/src/hid/MidiEvent.h ****     AllNotesOff,         /**< & */
  51:../../libdaisy/src/hid/MidiEvent.h ****     OmniModeOff,         /**< & */
  52:../../libdaisy/src/hid/MidiEvent.h ****     OmniModeOn,          /**< & */
  53:../../libdaisy/src/hid/MidiEvent.h ****     MonoModeOn,          /**< & */
  54:../../libdaisy/src/hid/MidiEvent.h ****     PolyModeOn,          /**< & */
  55:../../libdaisy/src/hid/MidiEvent.h ****     ChannelModeLast,     /**< & */
  56:../../libdaisy/src/hid/MidiEvent.h **** };
  57:../../libdaisy/src/hid/MidiEvent.h **** 
  58:../../libdaisy/src/hid/MidiEvent.h **** /** Struct containing note, and velocity data for a given channel.
  59:../../libdaisy/src/hid/MidiEvent.h **** Can be made from MidiEvent
  60:../../libdaisy/src/hid/MidiEvent.h **** */
  61:../../libdaisy/src/hid/MidiEvent.h **** struct NoteOffEvent
  62:../../libdaisy/src/hid/MidiEvent.h **** {
  63:../../libdaisy/src/hid/MidiEvent.h ****     int     channel;  /**< & */
  64:../../libdaisy/src/hid/MidiEvent.h ****     uint8_t note;     /**< & */
ARM GAS  C:\Users\VINCIU~1\AppData\Local\Temp\ccNNq0o9.s 			page 105


  65:../../libdaisy/src/hid/MidiEvent.h ****     uint8_t velocity; /**< & */
  66:../../libdaisy/src/hid/MidiEvent.h **** };
  67:../../libdaisy/src/hid/MidiEvent.h **** 
  68:../../libdaisy/src/hid/MidiEvent.h **** 
  69:../../libdaisy/src/hid/MidiEvent.h **** /** Struct containing note, and velocity data for a given channel.
  70:../../libdaisy/src/hid/MidiEvent.h **** Can be made from MidiEvent
  71:../../libdaisy/src/hid/MidiEvent.h **** */
  72:../../libdaisy/src/hid/MidiEvent.h **** struct NoteOnEvent
  73:../../libdaisy/src/hid/MidiEvent.h **** {
  74:../../libdaisy/src/hid/MidiEvent.h ****     int     channel;  /**< & */
  75:../../libdaisy/src/hid/MidiEvent.h ****     uint8_t note;     /**< & */
  76:../../libdaisy/src/hid/MidiEvent.h ****     uint8_t velocity; /**< & */
  77:../../libdaisy/src/hid/MidiEvent.h **** };
  78:../../libdaisy/src/hid/MidiEvent.h **** /** Struct containing note, and pressure data for a given channel.
  79:../../libdaisy/src/hid/MidiEvent.h **** Can be made from MidiEvent
  80:../../libdaisy/src/hid/MidiEvent.h **** */
  81:../../libdaisy/src/hid/MidiEvent.h **** struct PolyphonicKeyPressureEvent
  82:../../libdaisy/src/hid/MidiEvent.h **** {
  83:../../libdaisy/src/hid/MidiEvent.h ****     int     channel;
  84:../../libdaisy/src/hid/MidiEvent.h ****     uint8_t note;
  85:../../libdaisy/src/hid/MidiEvent.h ****     uint8_t pressure;
  86:../../libdaisy/src/hid/MidiEvent.h **** };
  87:../../libdaisy/src/hid/MidiEvent.h **** /** Struct containing control number, and value for a given channel.
  88:../../libdaisy/src/hid/MidiEvent.h **** Can be made from MidiEvent
  89:../../libdaisy/src/hid/MidiEvent.h **** */
  90:../../libdaisy/src/hid/MidiEvent.h **** struct ControlChangeEvent
  91:../../libdaisy/src/hid/MidiEvent.h **** {
  92:../../libdaisy/src/hid/MidiEvent.h ****     int     channel;        /**< & */
  93:../../libdaisy/src/hid/MidiEvent.h ****     uint8_t control_number; /**< & */
  94:../../libdaisy/src/hid/MidiEvent.h ****     uint8_t value;          /**< & */
  95:../../libdaisy/src/hid/MidiEvent.h **** };
  96:../../libdaisy/src/hid/MidiEvent.h **** /** Struct containing new program number, for a given channel.
  97:../../libdaisy/src/hid/MidiEvent.h **** Can be made from MidiEvent
  98:../../libdaisy/src/hid/MidiEvent.h **** */
  99:../../libdaisy/src/hid/MidiEvent.h **** struct ProgramChangeEvent
 100:../../libdaisy/src/hid/MidiEvent.h **** {
 101:../../libdaisy/src/hid/MidiEvent.h ****     int     channel; /**< & */
 102:../../libdaisy/src/hid/MidiEvent.h ****     uint8_t program; /**< & */
 103:../../libdaisy/src/hid/MidiEvent.h **** };
 104:../../libdaisy/src/hid/MidiEvent.h **** /** Struct containing pressure (aftertouch), for a given channel.
 105:../../libdaisy/src/hid/MidiEvent.h **** Can be made from MidiEvent
 106:../../libdaisy/src/hid/MidiEvent.h **** */
 107:../../libdaisy/src/hid/MidiEvent.h **** struct ChannelPressureEvent
 108:../../libdaisy/src/hid/MidiEvent.h **** {
 109:../../libdaisy/src/hid/MidiEvent.h ****     int     channel;  /**< & */
 110:../../libdaisy/src/hid/MidiEvent.h ****     uint8_t pressure; /**< & */
 111:../../libdaisy/src/hid/MidiEvent.h **** };
 112:../../libdaisy/src/hid/MidiEvent.h **** /** Struct containing pitch bend value for a given channel.
 113:../../libdaisy/src/hid/MidiEvent.h **** Can be made from MidiEvent
 114:../../libdaisy/src/hid/MidiEvent.h **** */
 115:../../libdaisy/src/hid/MidiEvent.h **** struct PitchBendEvent
 116:../../libdaisy/src/hid/MidiEvent.h **** {
 117:../../libdaisy/src/hid/MidiEvent.h ****     int     channel; /**< & */
 118:../../libdaisy/src/hid/MidiEvent.h ****     int16_t value;   /**< & */
 119:../../libdaisy/src/hid/MidiEvent.h **** };
 120:../../libdaisy/src/hid/MidiEvent.h **** /** Struct containing sysex data.
 121:../../libdaisy/src/hid/MidiEvent.h **** Can be made from MidiEvent
ARM GAS  C:\Users\VINCIU~1\AppData\Local\Temp\ccNNq0o9.s 			page 106


 122:../../libdaisy/src/hid/MidiEvent.h **** */
 123:../../libdaisy/src/hid/MidiEvent.h **** struct SystemExclusiveEvent
 124:../../libdaisy/src/hid/MidiEvent.h **** {
 125:../../libdaisy/src/hid/MidiEvent.h ****     int     length;
 126:../../libdaisy/src/hid/MidiEvent.h ****     uint8_t data[SYSEX_BUFFER_LEN]; /**< & */
 127:../../libdaisy/src/hid/MidiEvent.h **** };
 128:../../libdaisy/src/hid/MidiEvent.h **** /** Struct containing QuarterFrame data.
 129:../../libdaisy/src/hid/MidiEvent.h **** Can be made from MidiEvent
 130:../../libdaisy/src/hid/MidiEvent.h **** */
 131:../../libdaisy/src/hid/MidiEvent.h **** struct MTCQuarterFrameEvent
 132:../../libdaisy/src/hid/MidiEvent.h **** {
 133:../../libdaisy/src/hid/MidiEvent.h ****     uint8_t message_type; /**< & */
 134:../../libdaisy/src/hid/MidiEvent.h ****     uint8_t value;        /**< & */
 135:../../libdaisy/src/hid/MidiEvent.h **** };
 136:../../libdaisy/src/hid/MidiEvent.h **** /** Struct containing song position data.
 137:../../libdaisy/src/hid/MidiEvent.h **** Can be made from MidiEvent
 138:../../libdaisy/src/hid/MidiEvent.h **** */
 139:../../libdaisy/src/hid/MidiEvent.h **** struct SongPositionPointerEvent
 140:../../libdaisy/src/hid/MidiEvent.h **** {
 141:../../libdaisy/src/hid/MidiEvent.h ****     uint16_t position; /**< & */
 142:../../libdaisy/src/hid/MidiEvent.h **** };
 143:../../libdaisy/src/hid/MidiEvent.h **** /** Struct containing song select data.
 144:../../libdaisy/src/hid/MidiEvent.h **** Can be made from MidiEvent
 145:../../libdaisy/src/hid/MidiEvent.h **** */
 146:../../libdaisy/src/hid/MidiEvent.h **** struct SongSelectEvent
 147:../../libdaisy/src/hid/MidiEvent.h **** {
 148:../../libdaisy/src/hid/MidiEvent.h ****     uint8_t song; /**< & */
 149:../../libdaisy/src/hid/MidiEvent.h **** };
 150:../../libdaisy/src/hid/MidiEvent.h **** /** Struct containing sound off data.
 151:../../libdaisy/src/hid/MidiEvent.h **** Can be made from MidiEvent
 152:../../libdaisy/src/hid/MidiEvent.h **** */
 153:../../libdaisy/src/hid/MidiEvent.h **** struct AllSoundOffEvent
 154:../../libdaisy/src/hid/MidiEvent.h **** {
 155:../../libdaisy/src/hid/MidiEvent.h ****     int channel; /**< & */
 156:../../libdaisy/src/hid/MidiEvent.h **** };
 157:../../libdaisy/src/hid/MidiEvent.h **** /** Struct containing ResetAllControllersEvent data.
 158:../../libdaisy/src/hid/MidiEvent.h **** Can be made from MidiEvent
 159:../../libdaisy/src/hid/MidiEvent.h **** */
 160:../../libdaisy/src/hid/MidiEvent.h **** struct ResetAllControllersEvent
 161:../../libdaisy/src/hid/MidiEvent.h **** {
 162:../../libdaisy/src/hid/MidiEvent.h ****     int     channel; /**< & */
 163:../../libdaisy/src/hid/MidiEvent.h ****     uint8_t value;   /**< & */
 164:../../libdaisy/src/hid/MidiEvent.h **** };
 165:../../libdaisy/src/hid/MidiEvent.h **** /** Struct containing LocalControlEvent data.
 166:../../libdaisy/src/hid/MidiEvent.h **** Can be made from MidiEvent
 167:../../libdaisy/src/hid/MidiEvent.h **** */
 168:../../libdaisy/src/hid/MidiEvent.h **** struct LocalControlEvent
 169:../../libdaisy/src/hid/MidiEvent.h **** {
 170:../../libdaisy/src/hid/MidiEvent.h ****     int  channel;           /**< & */
 171:../../libdaisy/src/hid/MidiEvent.h ****     bool local_control_off; /**< & */
 172:../../libdaisy/src/hid/MidiEvent.h ****     bool local_control_on;  /**< & */
 173:../../libdaisy/src/hid/MidiEvent.h **** };
 174:../../libdaisy/src/hid/MidiEvent.h **** /** Struct containing AllNotesOffEvent data.
 175:../../libdaisy/src/hid/MidiEvent.h **** Can be made from MidiEvent
 176:../../libdaisy/src/hid/MidiEvent.h **** */
 177:../../libdaisy/src/hid/MidiEvent.h **** struct AllNotesOffEvent
 178:../../libdaisy/src/hid/MidiEvent.h **** {
ARM GAS  C:\Users\VINCIU~1\AppData\Local\Temp\ccNNq0o9.s 			page 107


 179:../../libdaisy/src/hid/MidiEvent.h ****     int channel; /**< & */
 180:../../libdaisy/src/hid/MidiEvent.h **** };
 181:../../libdaisy/src/hid/MidiEvent.h **** /** Struct containing OmniModeOffEvent data. 
 182:../../libdaisy/src/hid/MidiEvent.h ****  * Can be made from MidiEvent
 183:../../libdaisy/src/hid/MidiEvent.h **** */
 184:../../libdaisy/src/hid/MidiEvent.h **** struct OmniModeOffEvent
 185:../../libdaisy/src/hid/MidiEvent.h **** {
 186:../../libdaisy/src/hid/MidiEvent.h ****     int channel; /**< & */
 187:../../libdaisy/src/hid/MidiEvent.h **** };
 188:../../libdaisy/src/hid/MidiEvent.h **** /** Struct containing OmniModeOnEvent data.
 189:../../libdaisy/src/hid/MidiEvent.h **** Can be made from MidiEvent
 190:../../libdaisy/src/hid/MidiEvent.h **** */
 191:../../libdaisy/src/hid/MidiEvent.h **** struct OmniModeOnEvent
 192:../../libdaisy/src/hid/MidiEvent.h **** {
 193:../../libdaisy/src/hid/MidiEvent.h ****     int channel; /**< & */
 194:../../libdaisy/src/hid/MidiEvent.h **** };
 195:../../libdaisy/src/hid/MidiEvent.h **** /** Struct containing MonoModeOnEvent data.
 196:../../libdaisy/src/hid/MidiEvent.h **** Can be made from MidiEvent
 197:../../libdaisy/src/hid/MidiEvent.h **** */
 198:../../libdaisy/src/hid/MidiEvent.h **** struct MonoModeOnEvent
 199:../../libdaisy/src/hid/MidiEvent.h **** {
 200:../../libdaisy/src/hid/MidiEvent.h ****     int     channel;      /**< & */
 201:../../libdaisy/src/hid/MidiEvent.h ****     uint8_t num_channels; /**< & */
 202:../../libdaisy/src/hid/MidiEvent.h **** };
 203:../../libdaisy/src/hid/MidiEvent.h **** /** Struct containing PolyModeOnEvent data.
 204:../../libdaisy/src/hid/MidiEvent.h **** Can be made from MidiEvent
 205:../../libdaisy/src/hid/MidiEvent.h **** */
 206:../../libdaisy/src/hid/MidiEvent.h **** struct PolyModeOnEvent
 207:../../libdaisy/src/hid/MidiEvent.h **** {
 208:../../libdaisy/src/hid/MidiEvent.h ****     int channel; /**< & */
 209:../../libdaisy/src/hid/MidiEvent.h **** };
 210:../../libdaisy/src/hid/MidiEvent.h **** 
 211:../../libdaisy/src/hid/MidiEvent.h **** 
 212:../../libdaisy/src/hid/MidiEvent.h **** /** Simple MidiEvent with message type, channel, and data[2] members.
 213:../../libdaisy/src/hid/MidiEvent.h **** */
 214:../../libdaisy/src/hid/MidiEvent.h **** struct MidiEvent
 215:../../libdaisy/src/hid/MidiEvent.h **** {
 216:../../libdaisy/src/hid/MidiEvent.h ****     // Newer ish.
 217:../../libdaisy/src/hid/MidiEvent.h ****     MidiMessageType    type;                         /**< & */
 218:../../libdaisy/src/hid/MidiEvent.h ****     int                channel;                      /**< & */
 219:../../libdaisy/src/hid/MidiEvent.h ****     uint8_t            data[2];                      /**< & */
 220:../../libdaisy/src/hid/MidiEvent.h ****     uint8_t            sysex_data[SYSEX_BUFFER_LEN]; /**< & */
 221:../../libdaisy/src/hid/MidiEvent.h ****     uint8_t            sysex_message_len;
 222:../../libdaisy/src/hid/MidiEvent.h ****     SystemCommonType   sc_type;
 223:../../libdaisy/src/hid/MidiEvent.h ****     SystemRealTimeType srt_type;
 224:../../libdaisy/src/hid/MidiEvent.h ****     ChannelModeType    cm_type;
 225:../../libdaisy/src/hid/MidiEvent.h **** 
 226:../../libdaisy/src/hid/MidiEvent.h ****     /** Returns the data within the MidiEvent as a NoteOffEvent struct */
 227:../../libdaisy/src/hid/MidiEvent.h ****     NoteOffEvent AsNoteOff()
 228:../../libdaisy/src/hid/MidiEvent.h ****     {
 229:../../libdaisy/src/hid/MidiEvent.h ****         NoteOffEvent m;
 230:../../libdaisy/src/hid/MidiEvent.h ****         m.channel  = channel;
 231:../../libdaisy/src/hid/MidiEvent.h ****         m.note     = data[0];
 232:../../libdaisy/src/hid/MidiEvent.h ****         m.velocity = data[1];
 233:../../libdaisy/src/hid/MidiEvent.h ****         return m;
 234:../../libdaisy/src/hid/MidiEvent.h ****     }
 235:../../libdaisy/src/hid/MidiEvent.h **** 
ARM GAS  C:\Users\VINCIU~1\AppData\Local\Temp\ccNNq0o9.s 			page 108


 236:../../libdaisy/src/hid/MidiEvent.h ****     /** Returns the data within the MidiEvent as a NoteOnEvent struct */
 237:../../libdaisy/src/hid/MidiEvent.h ****     NoteOnEvent AsNoteOn()
 3570              		.loc 13 237 17 view .LVU835
 3571              	.LBB741:
 238:../../libdaisy/src/hid/MidiEvent.h ****     {
 239:../../libdaisy/src/hid/MidiEvent.h ****         NoteOnEvent m;
 3572              		.loc 13 239 9 view .LVU836
 240:../../libdaisy/src/hid/MidiEvent.h ****         m.channel  = channel;
 3573              		.loc 13 240 9 view .LVU837
 241:../../libdaisy/src/hid/MidiEvent.h ****         m.note     = data[0];
 3574              		.loc 13 241 9 view .LVU838
 242:../../libdaisy/src/hid/MidiEvent.h ****         m.velocity = data[1];
 3575              		.loc 13 242 9 view .LVU839
 243:../../libdaisy/src/hid/MidiEvent.h ****         return m;
 3576              		.loc 13 243 9 view .LVU840
 3577              		.loc 13 243 9 is_stmt 0 view .LVU841
 3578              	.LBE741:
 3579              	.LBE740:
  29:metamorphic_project.cpp ****             {
 3580              		.loc 11 29 13 is_stmt 1 view .LVU842
 3581 0018 62B9     		cbnz	r2, .L294
 3582              	.LVL300:
 3583              	.L284:
  29:metamorphic_project.cpp ****             {
 3584              		.loc 11 29 13 is_stmt 0 view .LVU843
 3585              	.LBE739:
 3586              	.LBE738:
 3587              	.LBE770:
  46:metamorphic_project.cpp **** 
 3588              		.loc 11 46 1 view .LVU844
 3589 001a BDE81040 		pop	{r4, lr}
 3590              		.cfi_remember_state
 3591              		.cfi_restore 14
 3592              		.cfi_restore 4
 3593              		.cfi_def_cfa_offset 16
 3594 001e 04B0     		add	sp, sp, #16
 3595              		.cfi_def_cfa_offset 0
 3596 0020 7047     		bx	lr
 3597              	.L285:
 3598              		.cfi_restore_state
 3599              	.LBB771:
 3600              	.LBB767:
  37:metamorphic_project.cpp ****         {
 3601              		.loc 11 37 9 is_stmt 1 view .LVU845
  38:metamorphic_project.cpp ****             if(m.data[1] != 0) {
 3602              		.loc 11 38 9 view .LVU846
  39:metamorphic_project.cpp ****                 osc.SetAmp(0);
 3603              		.loc 11 39 13 view .LVU847
 3604 0022 002A     		cmp	r2, #0
 3605 0024 F9D0     		beq	.L284
  40:metamorphic_project.cpp ****             }
 3606              		.loc 11 40 17 view .LVU848
 3607              	.LVL301:
 3608              	.LBB762:
 3609              	.LBI762:
  17:../../DaisySP/Source/Synthesis/oscillator.h ****     /** Choices for output waveforms, POLYBLEP are appropriately labeled. Others are naive forms.
  18:../../DaisySP/Source/Synthesis/oscillator.h ****     */
ARM GAS  C:\Users\VINCIU~1\AppData\Local\Temp\ccNNq0o9.s 			page 109


  19:../../DaisySP/Source/Synthesis/oscillator.h ****     enum
  20:../../DaisySP/Source/Synthesis/oscillator.h ****     {
  21:../../DaisySP/Source/Synthesis/oscillator.h ****         WAVE_SIN,
  22:../../DaisySP/Source/Synthesis/oscillator.h ****         WAVE_TRI,
  23:../../DaisySP/Source/Synthesis/oscillator.h ****         WAVE_SAW,
  24:../../DaisySP/Source/Synthesis/oscillator.h ****         WAVE_RAMP,
  25:../../DaisySP/Source/Synthesis/oscillator.h ****         WAVE_SQUARE,
  26:../../DaisySP/Source/Synthesis/oscillator.h ****         WAVE_POLYBLEP_TRI,
  27:../../DaisySP/Source/Synthesis/oscillator.h ****         WAVE_POLYBLEP_SAW,
  28:../../DaisySP/Source/Synthesis/oscillator.h ****         WAVE_POLYBLEP_SQUARE,
  29:../../DaisySP/Source/Synthesis/oscillator.h ****         WAVE_LAST,
  30:../../DaisySP/Source/Synthesis/oscillator.h ****     };
  31:../../DaisySP/Source/Synthesis/oscillator.h **** 
  32:../../DaisySP/Source/Synthesis/oscillator.h **** 
  33:../../DaisySP/Source/Synthesis/oscillator.h ****     /** Initializes the Oscillator
  34:../../DaisySP/Source/Synthesis/oscillator.h **** 
  35:../../DaisySP/Source/Synthesis/oscillator.h ****         \param sample_rate - sample rate of the audio engine being run, and the frequency that the 
  36:../../DaisySP/Source/Synthesis/oscillator.h **** 
  37:../../DaisySP/Source/Synthesis/oscillator.h ****         Defaults:
  38:../../DaisySP/Source/Synthesis/oscillator.h ****         - freq_ = 100 Hz
  39:../../DaisySP/Source/Synthesis/oscillator.h ****         - amp_ = 0.5
  40:../../DaisySP/Source/Synthesis/oscillator.h ****         - waveform_ = sine wave.
  41:../../DaisySP/Source/Synthesis/oscillator.h ****     */
  42:../../DaisySP/Source/Synthesis/oscillator.h ****     void Init(float sample_rate)
  43:../../DaisySP/Source/Synthesis/oscillator.h ****     {
  44:../../DaisySP/Source/Synthesis/oscillator.h ****         sr_        = sample_rate;
  45:../../DaisySP/Source/Synthesis/oscillator.h ****         sr_recip_  = 1.0f / sample_rate;
  46:../../DaisySP/Source/Synthesis/oscillator.h ****         freq_      = 100.0f;
  47:../../DaisySP/Source/Synthesis/oscillator.h ****         amp_       = 0.5f;
  48:../../DaisySP/Source/Synthesis/oscillator.h ****         phase_     = 0.0f;
  49:../../DaisySP/Source/Synthesis/oscillator.h ****         phase_inc_ = CalcPhaseInc(freq_);
  50:../../DaisySP/Source/Synthesis/oscillator.h ****         waveform_  = WAVE_SIN;
  51:../../DaisySP/Source/Synthesis/oscillator.h ****         eoc_       = true;
  52:../../DaisySP/Source/Synthesis/oscillator.h ****         eor_       = true;
  53:../../DaisySP/Source/Synthesis/oscillator.h ****     }
  54:../../DaisySP/Source/Synthesis/oscillator.h **** 
  55:../../DaisySP/Source/Synthesis/oscillator.h **** 
  56:../../DaisySP/Source/Synthesis/oscillator.h ****     /** Changes the frequency of the Oscillator, and recalculates phase increment.
  57:../../DaisySP/Source/Synthesis/oscillator.h ****     */
  58:../../DaisySP/Source/Synthesis/oscillator.h ****     inline void SetFreq(const float f)
  59:../../DaisySP/Source/Synthesis/oscillator.h ****     {
  60:../../DaisySP/Source/Synthesis/oscillator.h ****         freq_      = f;
  61:../../DaisySP/Source/Synthesis/oscillator.h ****         phase_inc_ = CalcPhaseInc(f);
  62:../../DaisySP/Source/Synthesis/oscillator.h ****     }
  63:../../DaisySP/Source/Synthesis/oscillator.h **** 
  64:../../DaisySP/Source/Synthesis/oscillator.h **** 
  65:../../DaisySP/Source/Synthesis/oscillator.h ****     /** Sets the amplitude of the waveform.
  66:../../DaisySP/Source/Synthesis/oscillator.h ****     */
  67:../../DaisySP/Source/Synthesis/oscillator.h ****     inline void SetAmp(const float a) { amp_ = a; }
 3610              		.loc 6 67 17 view .LVU849
 3611              	.LBB763:
 3612              		.loc 6 67 41 view .LVU850
 3613              		.loc 6 67 46 is_stmt 0 view .LVU851
 3614 0026 154B     		ldr	r3, .L295
 3615 0028 0022     		movs	r2, #0
 3616              	.LVL302:
 3617              		.loc 6 67 46 view .LVU852
ARM GAS  C:\Users\VINCIU~1\AppData\Local\Temp\ccNNq0o9.s 			page 110


 3618              	.LBE763:
 3619              	.LBE762:
 3620              	.LBE767:
 3621              	.LBE771:
  46:metamorphic_project.cpp **** 
 3622              		.loc 11 46 1 view .LVU853
 3623 002a BDE81040 		pop	{r4, lr}
 3624              		.cfi_remember_state
 3625              		.cfi_restore 14
 3626              		.cfi_restore 4
 3627              		.cfi_def_cfa_offset 16
 3628              	.LBB772:
 3629              	.LBB768:
 3630              	.LBB765:
 3631              	.LBB764:
 3632              		.loc 6 67 46 view .LVU854
 3633 002e 5A60     		str	r2, [r3, #4]	@ float
 3634              	.LVL303:
 3635              		.loc 6 67 46 view .LVU855
 3636              	.LBE764:
 3637              	.LBE765:
 3638              	.LBE768:
 3639              	.LBE772:
  46:metamorphic_project.cpp **** 
 3640              		.loc 11 46 1 view .LVU856
 3641 0030 04B0     		add	sp, sp, #16
 3642              		.cfi_def_cfa_offset 0
 3643 0032 7047     		bx	lr
 3644              	.LVL304:
 3645              	.L294:
 3646              		.cfi_restore_state
 3647              	.LBB773:
 3648              	.LBB769:
 3649              	.LBB766:
  31:metamorphic_project.cpp ****                 osc.SetAmp(0.7);
 3650              		.loc 11 31 17 is_stmt 1 view .LVU857
 3651              	.LBB742:
 3652              	.LBI742:
 3653              		.file 14 "../../DaisySP/Source/Utility/dsp.h"
   1:../../DaisySP/Source/Utility/dsp.h **** /** Helpful defines, functions, and other utilities for use in/with daisysp modules.
   2:../../DaisySP/Source/Utility/dsp.h **** */
   3:../../DaisySP/Source/Utility/dsp.h **** #pragma once
   4:../../DaisySP/Source/Utility/dsp.h **** #ifndef DSY_CORE_DSP
   5:../../DaisySP/Source/Utility/dsp.h **** #define DSY_CORE_DSP
   6:../../DaisySP/Source/Utility/dsp.h **** #include <cassert>
   7:../../DaisySP/Source/Utility/dsp.h **** #include <cstdint>
   8:../../DaisySP/Source/Utility/dsp.h **** #include <random>
   9:../../DaisySP/Source/Utility/dsp.h **** #include <cmath>
  10:../../DaisySP/Source/Utility/dsp.h **** 
  11:../../DaisySP/Source/Utility/dsp.h **** /** PIs
  12:../../DaisySP/Source/Utility/dsp.h **** */
  13:../../DaisySP/Source/Utility/dsp.h **** #define PI_F 3.1415927410125732421875f
  14:../../DaisySP/Source/Utility/dsp.h **** #define TWOPI_F (2.0f * PI_F)
  15:../../DaisySP/Source/Utility/dsp.h **** #define HALFPI_F (PI_F * 0.5f)
  16:../../DaisySP/Source/Utility/dsp.h **** #define DSY_MIN(in, mn) (in < mn ? in : mn)
  17:../../DaisySP/Source/Utility/dsp.h **** #define DSY_MAX(in, mx) (in > mx ? in : mx)
  18:../../DaisySP/Source/Utility/dsp.h **** #define DSY_CLAMP(in, mn, mx) (DSY_MIN(DSY_MAX(in, mn), mx))
ARM GAS  C:\Users\VINCIU~1\AppData\Local\Temp\ccNNq0o9.s 			page 111


  19:../../DaisySP/Source/Utility/dsp.h **** #define DSY_COUNTOF(_arr) (sizeof(_arr) / sizeof(_arr[0]))
  20:../../DaisySP/Source/Utility/dsp.h **** 
  21:../../DaisySP/Source/Utility/dsp.h **** namespace daisysp
  22:../../DaisySP/Source/Utility/dsp.h **** {
  23:../../DaisySP/Source/Utility/dsp.h **** //Avoids division for random floats. e.g. rand() * kRandFrac
  24:../../DaisySP/Source/Utility/dsp.h **** static constexpr float kRandFrac = 1.f / (float)RAND_MAX;
  25:../../DaisySP/Source/Utility/dsp.h **** 
  26:../../DaisySP/Source/Utility/dsp.h **** //Convert from semitones to other units. e.g. 2 ^ (kOneTwelfth * x)
  27:../../DaisySP/Source/Utility/dsp.h **** static constexpr float kOneTwelfth = 1.f / 12.f;
  28:../../DaisySP/Source/Utility/dsp.h **** 
  29:../../DaisySP/Source/Utility/dsp.h **** /** efficient floating point min/max
  30:../../DaisySP/Source/Utility/dsp.h **** c/o stephen mccaul
  31:../../DaisySP/Source/Utility/dsp.h **** */
  32:../../DaisySP/Source/Utility/dsp.h **** inline float fmax(float a, float b)
  33:../../DaisySP/Source/Utility/dsp.h **** {
  34:../../DaisySP/Source/Utility/dsp.h ****     float r;
  35:../../DaisySP/Source/Utility/dsp.h **** #ifdef __arm__
  36:../../DaisySP/Source/Utility/dsp.h ****     asm("vmaxnm.f32 %[d], %[n], %[m]" : [d] "=t"(r) : [n] "t"(a), [m] "t"(b) :);
  37:../../DaisySP/Source/Utility/dsp.h **** #else
  38:../../DaisySP/Source/Utility/dsp.h ****     r = (a > b) ? a : b;
  39:../../DaisySP/Source/Utility/dsp.h **** #endif // __arm__
  40:../../DaisySP/Source/Utility/dsp.h ****     return r;
  41:../../DaisySP/Source/Utility/dsp.h **** }
  42:../../DaisySP/Source/Utility/dsp.h **** 
  43:../../DaisySP/Source/Utility/dsp.h **** inline float fmin(float a, float b)
  44:../../DaisySP/Source/Utility/dsp.h **** {
  45:../../DaisySP/Source/Utility/dsp.h ****     float r;
  46:../../DaisySP/Source/Utility/dsp.h **** #ifdef __arm__
  47:../../DaisySP/Source/Utility/dsp.h ****     asm("vminnm.f32 %[d], %[n], %[m]" : [d] "=t"(r) : [n] "t"(a), [m] "t"(b) :);
  48:../../DaisySP/Source/Utility/dsp.h **** #else
  49:../../DaisySP/Source/Utility/dsp.h ****     r = (a < b) ? a : b;
  50:../../DaisySP/Source/Utility/dsp.h **** #endif // __arm__
  51:../../DaisySP/Source/Utility/dsp.h ****     return r;
  52:../../DaisySP/Source/Utility/dsp.h **** }
  53:../../DaisySP/Source/Utility/dsp.h **** 
  54:../../DaisySP/Source/Utility/dsp.h **** /** quick fp clamp
  55:../../DaisySP/Source/Utility/dsp.h **** */
  56:../../DaisySP/Source/Utility/dsp.h **** inline float fclamp(float in, float min, float max)
  57:../../DaisySP/Source/Utility/dsp.h **** {
  58:../../DaisySP/Source/Utility/dsp.h ****     return fmin(fmax(in, min), max);
  59:../../DaisySP/Source/Utility/dsp.h **** }
  60:../../DaisySP/Source/Utility/dsp.h **** 
  61:../../DaisySP/Source/Utility/dsp.h **** /** From Musicdsp.org "Fast power and root estimates for 32bit floats)
  62:../../DaisySP/Source/Utility/dsp.h **** Original code by Stefan Stenzel
  63:../../DaisySP/Source/Utility/dsp.h **** These are approximations
  64:../../DaisySP/Source/Utility/dsp.h **** */
  65:../../DaisySP/Source/Utility/dsp.h **** inline float fastpower(float f, int n)
  66:../../DaisySP/Source/Utility/dsp.h **** {
  67:../../DaisySP/Source/Utility/dsp.h ****     long *lp, l;
  68:../../DaisySP/Source/Utility/dsp.h ****     lp = (long *)(&f);
  69:../../DaisySP/Source/Utility/dsp.h ****     l  = *lp;
  70:../../DaisySP/Source/Utility/dsp.h ****     l -= 0x3F800000;
  71:../../DaisySP/Source/Utility/dsp.h ****     l <<= (n - 1);
  72:../../DaisySP/Source/Utility/dsp.h ****     l += 0x3F800000;
  73:../../DaisySP/Source/Utility/dsp.h ****     *lp = l;
  74:../../DaisySP/Source/Utility/dsp.h ****     return f;
  75:../../DaisySP/Source/Utility/dsp.h **** }
ARM GAS  C:\Users\VINCIU~1\AppData\Local\Temp\ccNNq0o9.s 			page 112


  76:../../DaisySP/Source/Utility/dsp.h **** 
  77:../../DaisySP/Source/Utility/dsp.h **** inline float fastroot(float f, int n)
  78:../../DaisySP/Source/Utility/dsp.h **** {
  79:../../DaisySP/Source/Utility/dsp.h ****     long *lp, l;
  80:../../DaisySP/Source/Utility/dsp.h ****     lp = (long *)(&f);
  81:../../DaisySP/Source/Utility/dsp.h ****     l  = *lp;
  82:../../DaisySP/Source/Utility/dsp.h ****     l -= 0x3F800000;
  83:../../DaisySP/Source/Utility/dsp.h ****     l >>= (n = 1);
  84:../../DaisySP/Source/Utility/dsp.h ****     l += 0x3F800000;
  85:../../DaisySP/Source/Utility/dsp.h ****     *lp = l;
  86:../../DaisySP/Source/Utility/dsp.h ****     return f;
  87:../../DaisySP/Source/Utility/dsp.h **** }
  88:../../DaisySP/Source/Utility/dsp.h **** 
  89:../../DaisySP/Source/Utility/dsp.h **** /** From http://openaudio.blogspot.com/2017/02/faster-log10-and-pow.html
  90:../../DaisySP/Source/Utility/dsp.h **** No approximation, pow10f(x) gives a 90% speed increase over powf(10.f, x)
  91:../../DaisySP/Source/Utility/dsp.h **** */
  92:../../DaisySP/Source/Utility/dsp.h **** inline float pow10f(float f)
  93:../../DaisySP/Source/Utility/dsp.h **** {
  94:../../DaisySP/Source/Utility/dsp.h ****     return expf(2.302585092994046f * f);
  95:../../DaisySP/Source/Utility/dsp.h **** }
  96:../../DaisySP/Source/Utility/dsp.h **** 
  97:../../DaisySP/Source/Utility/dsp.h **** /* Original code for fastlog2f by Dr. Paul Beckmann from the ARM community forum, adapted from the 
  98:../../DaisySP/Source/Utility/dsp.h **** About 25% performance increase over std::log10f
  99:../../DaisySP/Source/Utility/dsp.h **** */
 100:../../DaisySP/Source/Utility/dsp.h **** inline float fastlog2f(float f)
 101:../../DaisySP/Source/Utility/dsp.h **** {
 102:../../DaisySP/Source/Utility/dsp.h ****     float frac;
 103:../../DaisySP/Source/Utility/dsp.h ****     int   exp;
 104:../../DaisySP/Source/Utility/dsp.h ****     frac = frexpf(fabsf(f), &exp);
 105:../../DaisySP/Source/Utility/dsp.h ****     f    = 1.23149591368684f;
 106:../../DaisySP/Source/Utility/dsp.h ****     f *= frac;
 107:../../DaisySP/Source/Utility/dsp.h ****     f += -4.11852516267426f;
 108:../../DaisySP/Source/Utility/dsp.h ****     f *= frac;
 109:../../DaisySP/Source/Utility/dsp.h ****     f += 6.02197014179219f;
 110:../../DaisySP/Source/Utility/dsp.h ****     f *= frac;
 111:../../DaisySP/Source/Utility/dsp.h ****     f += -3.13396450166353f;
 112:../../DaisySP/Source/Utility/dsp.h ****     f += exp;
 113:../../DaisySP/Source/Utility/dsp.h ****     return (f);
 114:../../DaisySP/Source/Utility/dsp.h **** }
 115:../../DaisySP/Source/Utility/dsp.h **** 
 116:../../DaisySP/Source/Utility/dsp.h **** inline float fastlog10f(float f)
 117:../../DaisySP/Source/Utility/dsp.h **** {
 118:../../DaisySP/Source/Utility/dsp.h ****     return fastlog2f(f) * 0.3010299956639812f;
 119:../../DaisySP/Source/Utility/dsp.h **** }
 120:../../DaisySP/Source/Utility/dsp.h **** 
 121:../../DaisySP/Source/Utility/dsp.h **** /** Midi to frequency helper
 122:../../DaisySP/Source/Utility/dsp.h **** */
 123:../../DaisySP/Source/Utility/dsp.h **** inline float mtof(float m)
 3654              		.loc 14 123 14 view .LVU858
 3655              	.LBB743:
 124:../../DaisySP/Source/Utility/dsp.h **** {
 125:../../DaisySP/Source/Utility/dsp.h ****     return powf(2, (m - 69.0f) / 12.0f) * 440.0f;
 3656              		.loc 14 125 5 view .LVU859
 3657              	.LBE743:
 3658              	.LBE742:
  31:metamorphic_project.cpp ****                 osc.SetAmp(0.7);
 3659              		.loc 11 31 28 is_stmt 0 view .LVU860
ARM GAS  C:\Users\VINCIU~1\AppData\Local\Temp\ccNNq0o9.s 			page 113


 3660 0034 9DF81030 		ldrb	r3, [sp, #16]	@ zero_extendqisi2
 3661              	.LBB747:
 3662              	.LBB744:
 3663              		.loc 14 125 16 view .LVU861
 3664 0038 F2EE080A 		vmov.f32	s1, #1.2e+1
 3665              		.loc 14 125 23 view .LVU862
 3666 003c 9FED107A 		vldr.32	s14, .L295+4
 3667              		.loc 14 125 16 view .LVU863
 3668 0040 B0EE000A 		vmov.f32	s0, #2.0e+0
 3669              	.LBE744:
 3670              	.LBE747:
  31:metamorphic_project.cpp ****                 osc.SetAmp(0.7);
 3671              		.loc 11 31 28 view .LVU864
 3672 0044 07EE903A 		vmov	s15, r3	@ int
 3673              	.LBB748:
 3674              	.LBB749:
  60:../../DaisySP/Source/Synthesis/oscillator.h ****         phase_inc_ = CalcPhaseInc(f);
 3675              		.loc 6 60 20 view .LVU865
 3676 0048 0C4C     		ldr	r4, .L295
 3677              	.LBE749:
 3678              	.LBE748:
  31:metamorphic_project.cpp ****                 osc.SetAmp(0.7);
 3679              		.loc 11 31 28 view .LVU866
 3680 004a F8EE677A 		vcvt.f32.u32	s15, s15
 3681              	.LBB753:
 3682              	.LBB745:
 3683              		.loc 14 125 23 view .LVU867
 3684 004e 77EEC77A 		vsub.f32	s15, s15, s14
 3685              		.loc 14 125 16 view .LVU868
 3686 0052 C7EEA00A 		vdiv.f32	s1, s15, s1
 3687 0056 FFF7FEFF 		bl	powf
 3688              	.LVL305:
 3689              		.loc 14 125 43 view .LVU869
 3690 005a DFED0A7A 		vldr.32	s15, .L295+8
 3691              	.LBE745:
 3692              	.LBE753:
 3693              	.LBB754:
 3694              	.LBB750:
  61:../../DaisySP/Source/Synthesis/oscillator.h ****     }
 3695              		.loc 6 61 34 view .LVU870
 3696 005e 2046     		mov	r0, r4
 3697              	.LBE750:
 3698              	.LBE754:
 3699              	.LBB755:
 3700              	.LBB746:
 3701              		.loc 14 125 43 view .LVU871
 3702 0060 20EE270A 		vmul.f32	s0, s0, s15
 3703              	.LVL306:
 3704              		.loc 14 125 43 view .LVU872
 3705              	.LBE746:
 3706              	.LBE755:
 3707              	.LBB756:
 3708              	.LBI748:
  58:../../DaisySP/Source/Synthesis/oscillator.h ****     {
 3709              		.loc 6 58 17 is_stmt 1 view .LVU873
 3710              	.LBB751:
  60:../../DaisySP/Source/Synthesis/oscillator.h ****         phase_inc_ = CalcPhaseInc(f);
ARM GAS  C:\Users\VINCIU~1\AppData\Local\Temp\ccNNq0o9.s 			page 114


 3711              		.loc 6 60 9 view .LVU874
  60:../../DaisySP/Source/Synthesis/oscillator.h ****         phase_inc_ = CalcPhaseInc(f);
 3712              		.loc 6 60 20 is_stmt 0 view .LVU875
 3713 0064 84ED020A 		vstr.32	s0, [r4, #8]
  61:../../DaisySP/Source/Synthesis/oscillator.h ****     }
 3714              		.loc 6 61 9 is_stmt 1 view .LVU876
  61:../../DaisySP/Source/Synthesis/oscillator.h ****     }
 3715              		.loc 6 61 34 is_stmt 0 view .LVU877
 3716 0068 FFF7FEFF 		bl	_ZN7daisysp10Oscillator12CalcPhaseIncEf
 3717              	.LVL307:
  61:../../DaisySP/Source/Synthesis/oscillator.h ****     }
 3718              		.loc 6 61 34 view .LVU878
 3719              	.LBE751:
 3720              	.LBE756:
 3721              	.LBB757:
 3722              	.LBB758:
 3723              		.loc 6 67 46 view .LVU879
 3724 006c 064B     		ldr	r3, .L295+12
 3725              	.LBE758:
 3726              	.LBE757:
 3727              	.LBB760:
 3728              	.LBB752:
  61:../../DaisySP/Source/Synthesis/oscillator.h ****     }
 3729              		.loc 6 61 20 view .LVU880
 3730 006e 84ED060A 		vstr.32	s0, [r4, #24]
 3731              	.LVL308:
  61:../../DaisySP/Source/Synthesis/oscillator.h ****     }
 3732              		.loc 6 61 20 view .LVU881
 3733              	.LBE752:
 3734              	.LBE760:
  32:metamorphic_project.cpp ****             }
 3735              		.loc 11 32 17 is_stmt 1 view .LVU882
 3736              	.LBB761:
 3737              	.LBI757:
 3738              		.loc 6 67 17 view .LVU883
 3739              	.LBB759:
 3740              		.loc 6 67 41 view .LVU884
 3741              		.loc 6 67 46 is_stmt 0 view .LVU885
 3742 0072 6360     		str	r3, [r4, #4]	@ float
 3743              	.LBE759:
 3744              	.LBE761:
 3745              	.LBE766:
 3746              	.LBE769:
 3747              	.LBE773:
  46:metamorphic_project.cpp **** 
 3748              		.loc 11 46 1 view .LVU886
 3749 0074 BDE81040 		pop	{r4, lr}
 3750              		.cfi_restore 14
 3751              		.cfi_restore 4
 3752              		.cfi_def_cfa_offset 16
 3753 0078 04B0     		add	sp, sp, #16
 3754              		.cfi_def_cfa_offset 0
 3755 007a 7047     		bx	lr
 3756              	.L296:
 3757              		.align	2
 3758              	.L295:
 3759 007c 00000000 		.word	.LANCHOR0
ARM GAS  C:\Users\VINCIU~1\AppData\Local\Temp\ccNNq0o9.s 			page 115


 3760 0080 00008A42 		.word	1116340224
 3761 0084 0000DC43 		.word	1138491392
 3762 0088 3333333F 		.word	1060320051
 3763              		.cfi_endproc
 3764              	.LFE4040:
 3766              		.section	.text.startup.main,"ax",%progbits
 3767              		.align	1
 3768              		.p2align 2,,3
 3769              		.global	main
 3770              		.syntax unified
 3771              		.thumb
 3772              		.thumb_func
 3773              		.fpu fpv5-d16
 3775              	main:
 3776              	.LFB4042:
  61:metamorphic_project.cpp **** 
  62:metamorphic_project.cpp **** int main(void)
  63:metamorphic_project.cpp **** {
 3777              		.loc 11 63 1 is_stmt 1 view -0
 3778              		.cfi_startproc
 3779              		@ Volatile: function does not return.
 3780              		@ args = 0, pretend = 0, frame = 352
 3781              		@ frame_needed = 0, uses_anonymous_args = 0
  64:metamorphic_project.cpp ****     SynthInit(&hw, &display, &osc);
 3782              		.loc 11 64 5 view .LVU888
  63:metamorphic_project.cpp ****     SynthInit(&hw, &display, &osc);
 3783              		.loc 11 63 1 is_stmt 0 view .LVU889
 3784 0000 2DE98048 		push	{r7, fp, lr}
 3785              		.cfi_def_cfa_offset 12
 3786              		.cfi_offset 7, -12
 3787              		.cfi_offset 11, -8
 3788              		.cfi_offset 14, -4
 3789              		.loc 11 64 14 view .LVU890
 3790 0004 BC4A     		ldr	r2, .L359
  63:metamorphic_project.cpp ****     SynthInit(&hw, &display, &osc);
 3791              		.loc 11 63 1 view .LVU891
 3792 0006 F3B0     		sub	sp, sp, #460
 3793              		.cfi_def_cfa_offset 472
 3794              		.loc 11 64 14 view .LVU892
 3795 0008 BC49     		ldr	r1, .L359+4
 3796              	.LBB840:
 3797              	.LBB841:
 3798              	.LBB842:
 3799              	.LBB843:
  47:../../libdaisy/src/hid/midi.h ****         uart_config.mode       = UartHandler::Config::Mode::TX_RX;
 3800              		.loc 10 47 32 view .LVU893
 3801 000a 0026     		movs	r6, #0
 3802              	.LBE843:
 3803              	.LBE842:
 3804              	.LBE841:
 3805              	.LBE840:
 3806              		.loc 11 64 14 view .LVU894
 3807 000c BC48     		ldr	r0, .L359+8
 3808 000e 1BAF     		add	r7, sp, #108
 3809 0010 FFF7FEFF 		bl	_Z9SynthInitPN5daisy9DaisySeedEPNS_11OledDisplayINS_13SSD130xDriverILj128ELj64ENS_24SSD130x4Wir
 3810              	.LVL309:
  65:metamorphic_project.cpp ****     hw.usb_handle.Init(UsbHandle::FS_INTERNAL);
ARM GAS  C:\Users\VINCIU~1\AppData\Local\Temp\ccNNq0o9.s 			page 116


 3811              		.loc 11 65 5 is_stmt 1 view .LVU895
 3812              		.loc 11 65 23 is_stmt 0 view .LVU896
 3813 0014 0021     		movs	r1, #0
 3814 0016 BB48     		ldr	r0, .L359+12
 3815 0018 FFF7FEFF 		bl	_ZN5daisy9UsbHandle4InitENS0_9UsbPeriphE
 3816              	.LVL310:
  66:metamorphic_project.cpp ****     midi.Init(midi_cfg);
 3817              		.loc 11 66 5 is_stmt 1 view .LVU897
 3818              		.loc 11 66 5 is_stmt 0 view .LVU898
 3819 001c BA4B     		ldr	r3, .L359+16
 3820              	.LBB861:
 3821              	.LBB857:
  83:../../libdaisy/src/hid/midi.h **** 
  84:../../libdaisy/src/hid/midi.h ****     struct Config
  85:../../libdaisy/src/hid/midi.h ****     {
  86:../../libdaisy/src/hid/midi.h ****         typename Transport::Config transport_config;
  87:../../libdaisy/src/hid/midi.h ****     };
  88:../../libdaisy/src/hid/midi.h **** 
  89:../../libdaisy/src/hid/midi.h ****     /** Initializes the MidiHandler 
  90:../../libdaisy/src/hid/midi.h ****     \param in_mode Input mode
  91:../../libdaisy/src/hid/midi.h ****     \param out_mode Output mode
  92:../../libdaisy/src/hid/midi.h ****      */
  93:../../libdaisy/src/hid/midi.h ****     void Init(Config config)
  94:../../libdaisy/src/hid/midi.h ****     {
  95:../../libdaisy/src/hid/midi.h ****         config_ = config;
 3822              		.loc 10 95 9 view .LVU899
 3823 001e BB4D     		ldr	r5, .L359+20
 3824 0020 5C79     		ldrb	r4, [r3, #5]	@ zero_extendqisi2
 3825 0022 1A68     		ldr	r2, [r3]
 3826              	.LVL311:
 3827              		.loc 10 95 9 view .LVU900
 3828 0024 05F10808 		add	r8, r5, #8
 3829              	.LBB848:
 3830              	.LBB844:
  53:../../libdaisy/src/hid/midi.h ****         uart_config.pin_config.tx = config.tx;
 3831              		.loc 10 53 35 view .LVU901
 3832 0028 8DF85741 		strb	r4, [sp, #343]
 3833              	.LBE844:
 3834              	.LBE848:
 3835              		.loc 10 95 9 view .LVU902
 3836 002c 05F5E044 		add	r4, r5, #28672
 3837 0030 1979     		ldrb	r1, [r3, #4]	@ zero_extendqisi2
 3838              	.LVL312:
 3839              		.loc 10 95 9 view .LVU903
 3840 0032 9879     		ldrb	r0, [r3, #6]	@ zero_extendqisi2
 3841              	.LVL313:
 3842              	.LBB849:
 3843              	.LBB845:
  52:../../libdaisy/src/hid/midi.h ****         uart_config.pin_config.rx = config.rx;
 3844              		.loc 10 52 35 view .LVU904
 3845 0034 5692     		str	r2, [sp, #344]
 3846              	.LBE845:
 3847              	.LBE849:
 3848              		.loc 10 95 9 view .LVU905
 3849 0036 C4F88C24 		str	r2, [r4, #1164]
 3850 003a DA79     		ldrb	r2, [r3, #7]	@ zero_extendqisi2
 3851              	.LVL314:
ARM GAS  C:\Users\VINCIU~1\AppData\Local\Temp\ccNNq0o9.s 			page 117


 3852              		.loc 10 95 9 view .LVU906
 3853 003c 5B68     		ldr	r3, [r3, #4]
 3854              	.LVL315:
 3855              		.loc 10 95 9 view .LVU907
 3856              	.LBE857:
 3857              	.LBI840:
  93:../../libdaisy/src/hid/midi.h ****     {
 3858              		.loc 10 93 10 is_stmt 1 view .LVU908
 3859              	.LBB858:
 3860              	.LBB850:
 3861              	.LBB846:
  53:../../libdaisy/src/hid/midi.h ****         uart_config.pin_config.tx = config.tx;
 3862              		.loc 10 53 35 is_stmt 0 view .LVU909
 3863 003e 8DF85611 		strb	r1, [sp, #342]
  56:../../libdaisy/src/hid/midi.h ****     }
 3864              		.loc 10 56 19 view .LVU910
 3865 0042 55A9     		add	r1, sp, #340
 3866              	.LVL316:
  56:../../libdaisy/src/hid/midi.h ****     }
 3867              		.loc 10 56 19 view .LVU911
 3868              	.LBE846:
 3869              	.LBE850:
 3870              		.loc 10 95 9 view .LVU912
 3871 0044 C4F89034 		str	r3, [r4, #1168]
 3872              	.LVL317:
 3873              	.LBB851:
 3874              	.LBI842:
  40:../../libdaisy/src/hid/midi.h ****     {
 3875              		.loc 10 40 17 is_stmt 1 view .LVU913
 3876              	.LBB847:
  42:../../libdaisy/src/hid/midi.h **** 
 3877              		.loc 10 42 9 view .LVU914
  45:../../libdaisy/src/hid/midi.h ****         uart_config.stopbits   = UartHandler::Config::StopBits::BITS_1;
 3878              		.loc 10 45 9 view .LVU915
  46:../../libdaisy/src/hid/midi.h ****         uart_config.parity     = UartHandler::Config::Parity::NONE;
 3879              		.loc 10 46 32 is_stmt 0 view .LVU916
 3880 0048 0123     		movs	r3, #1
  54:../../libdaisy/src/hid/midi.h **** 
 3881              		.loc 10 54 35 view .LVU917
 3882 004a 8DF85401 		strb	r0, [sp, #340]
  46:../../libdaisy/src/hid/midi.h ****         uart_config.parity     = UartHandler::Config::Parity::NONE;
 3883              		.loc 10 46 32 view .LVU918
 3884 004e 5793     		str	r3, [sp, #348]
  49:../../libdaisy/src/hid/midi.h **** 
 3885              		.loc 10 49 32 view .LVU919
 3886 0050 5A93     		str	r3, [sp, #360]
  45:../../libdaisy/src/hid/midi.h ****         uart_config.stopbits   = UartHandler::Config::StopBits::BITS_1;
 3887              		.loc 10 45 32 view .LVU920
 3888 0052 47F61223 		movw	r3, #31250
  56:../../libdaisy/src/hid/midi.h ****     }
 3889              		.loc 10 56 19 view .LVU921
 3890 0056 AE48     		ldr	r0, .L359+24
 3891              	.LVL318:
  45:../../libdaisy/src/hid/midi.h ****         uart_config.stopbits   = UartHandler::Config::StopBits::BITS_1;
 3892              		.loc 10 45 32 view .LVU922
 3893 0058 5B93     		str	r3, [sp, #364]
  46:../../libdaisy/src/hid/midi.h ****         uart_config.parity     = UartHandler::Config::Parity::NONE;
ARM GAS  C:\Users\VINCIU~1\AppData\Local\Temp\ccNNq0o9.s 			page 118


 3894              		.loc 10 46 9 is_stmt 1 view .LVU923
  47:../../libdaisy/src/hid/midi.h ****         uart_config.mode       = UartHandler::Config::Mode::TX_RX;
 3895              		.loc 10 47 9 view .LVU924
  48:../../libdaisy/src/hid/midi.h ****         uart_config.wordlength = UartHandler::Config::WordLength::BITS_8;
 3896              		.loc 10 48 9 view .LVU925
  48:../../libdaisy/src/hid/midi.h ****         uart_config.wordlength = UartHandler::Config::WordLength::BITS_8;
 3897              		.loc 10 48 32 is_stmt 0 view .LVU926
 3898 005a 0223     		movs	r3, #2
  54:../../libdaisy/src/hid/midi.h **** 
 3899              		.loc 10 54 35 view .LVU927
 3900 005c 8DF85521 		strb	r2, [sp, #341]
  48:../../libdaisy/src/hid/midi.h ****         uart_config.wordlength = UartHandler::Config::WordLength::BITS_8;
 3901              		.loc 10 48 32 view .LVU928
 3902 0060 5993     		str	r3, [sp, #356]
  49:../../libdaisy/src/hid/midi.h **** 
 3903              		.loc 10 49 9 is_stmt 1 view .LVU929
  52:../../libdaisy/src/hid/midi.h ****         uart_config.pin_config.rx = config.rx;
 3904              		.loc 10 52 9 view .LVU930
  53:../../libdaisy/src/hid/midi.h ****         uart_config.pin_config.tx = config.tx;
 3905              		.loc 10 53 9 view .LVU931
  54:../../libdaisy/src/hid/midi.h **** 
 3906              		.loc 10 54 9 view .LVU932
  56:../../libdaisy/src/hid/midi.h ****     }
 3907              		.loc 10 56 9 view .LVU933
  47:../../libdaisy/src/hid/midi.h ****         uart_config.mode       = UartHandler::Config::Mode::TX_RX;
 3908              		.loc 10 47 32 is_stmt 0 view .LVU934
 3909 0062 5896     		str	r6, [sp, #352]
  56:../../libdaisy/src/hid/midi.h ****     }
 3910              		.loc 10 56 19 view .LVU935
 3911 0064 FFF7FEFF 		bl	_ZN5daisy11UartHandler4InitERKNS0_6ConfigE
 3912              	.LVL319:
  56:../../libdaisy/src/hid/midi.h ****     }
 3913              		.loc 10 56 19 view .LVU936
 3914              	.LBE847:
 3915              	.LBE851:
 3916              	.LBB852:
 3917              	.LBI852:
 3918              		.file 15 "../../libdaisy/src/util/ringbuffer.h"
   1:../../libdaisy/src/util/ringbuffer.h **** #pragma once
   2:../../libdaisy/src/util/ringbuffer.h **** #ifndef DSY_RINGBUFFER_H
   3:../../libdaisy/src/util/ringbuffer.h **** #define DSY_RINGBUFFER_H
   4:../../libdaisy/src/util/ringbuffer.h **** 
   5:../../libdaisy/src/util/ringbuffer.h **** #include <algorithm>
   6:../../libdaisy/src/util/ringbuffer.h **** 
   7:../../libdaisy/src/util/ringbuffer.h **** namespace daisy
   8:../../libdaisy/src/util/ringbuffer.h **** {
   9:../../libdaisy/src/util/ringbuffer.h **** /** @addtogroup utility
  10:../../libdaisy/src/util/ringbuffer.h ****     @{
  11:../../libdaisy/src/util/ringbuffer.h **** */
  12:../../libdaisy/src/util/ringbuffer.h **** 
  13:../../libdaisy/src/util/ringbuffer.h **** /**
  14:../../libdaisy/src/util/ringbuffer.h **** Utility Ring Buffer \n 
  15:../../libdaisy/src/util/ringbuffer.h **** imported from pichenettes/stmlib
  16:../../libdaisy/src/util/ringbuffer.h **** */
  17:../../libdaisy/src/util/ringbuffer.h **** template <typename T, size_t size>
  18:../../libdaisy/src/util/ringbuffer.h **** class RingBuffer
  19:../../libdaisy/src/util/ringbuffer.h **** {
ARM GAS  C:\Users\VINCIU~1\AppData\Local\Temp\ccNNq0o9.s 			page 119


  20:../../libdaisy/src/util/ringbuffer.h ****   public:
  21:../../libdaisy/src/util/ringbuffer.h ****     RingBuffer() {}
  22:../../libdaisy/src/util/ringbuffer.h **** 
  23:../../libdaisy/src/util/ringbuffer.h ****     /** Initializes the Ring Buffer */
  24:../../libdaisy/src/util/ringbuffer.h ****     inline void Init() { read_ptr_ = write_ptr_ = 0; }
 3919              		.loc 15 24 17 is_stmt 1 view .LVU937
 3920              	.LBE852:
  96:../../libdaisy/src/hid/midi.h **** 
  97:../../libdaisy/src/hid/midi.h ****         transport_.Init(config_.transport_config);
  98:../../libdaisy/src/hid/midi.h **** 
  99:../../libdaisy/src/hid/midi.h ****         event_q_.Init();
 100:../../libdaisy/src/hid/midi.h ****         incoming_message_.type = MessageLast;
 3921              		.loc 10 100 32 is_stmt 0 view .LVU938
 3922 0068 0A23     		movs	r3, #10
 3923              	.LBB855:
 3924              	.LBB853:
 3925              		.loc 15 24 49 view .LVU939
 3926 006a C4F88064 		str	r6, [r4, #1152]
 3927              	.LBE853:
 3928              	.LBE855:
 3929              	.LBE858:
 3930              	.LBE861:
 3931              	.LBB862:
 3932              	.LBB863:
 3933              	.LBB864:
  59:../../libdaisy/src/hid/midi.h ****     inline size_t  Readable() { return uart_.Readable(); }
 3934              		.loc 10 59 45 view .LVU940
 3935 006e 04F29440 		addw	r0, r4, #1172
 3936              	.LBE864:
 3937              	.LBE863:
 3938              	.LBE862:
 3939              	.LBB869:
 3940              	.LBB859:
 3941              	.LBB856:
 3942              	.LBB854:
 3943              		.loc 15 24 36 view .LVU941
 3944 0072 C4F87C64 		str	r6, [r4, #1148]
 3945              	.LVL320:
 3946              		.loc 15 24 36 view .LVU942
 3947              	.LBE854:
 3948              	.LBE856:
 3949              	.LBE859:
 3950              	.LBE869:
  67:metamorphic_project.cpp ****     midi.StartReceive();
 3951              		.loc 11 67 5 is_stmt 1 view .LVU943
 3952              	.LBB870:
 3953              	.LBI862:
 101:../../libdaisy/src/hid/midi.h ****         pstate_                = ParserEmpty;
 102:../../libdaisy/src/hid/midi.h ****     }
 103:../../libdaisy/src/hid/midi.h **** 
 104:../../libdaisy/src/hid/midi.h ****     /** Starts listening on the selected input mode(s). MidiEvent Queue will begin to fill, and can
 105:../../libdaisy/src/hid/midi.h ****     void StartReceive() { transport_.StartRx(); }
 3954              		.loc 10 105 10 view .LVU944
 3955              	.LBB867:
 3956              	.LBI863:
  59:../../libdaisy/src/hid/midi.h ****     inline size_t  Readable() { return uart_.Readable(); }
 3957              		.loc 10 59 20 view .LVU945
ARM GAS  C:\Users\VINCIU~1\AppData\Local\Temp\ccNNq0o9.s 			page 120


 3958              	.LBB865:
  59:../../libdaisy/src/hid/midi.h ****     inline size_t  Readable() { return uart_.Readable(); }
 3959              		.loc 10 59 32 view .LVU946
 3960              	.LBE865:
 3961              	.LBE867:
 3962              	.LBE870:
 3963              	.LBB871:
 3964              	.LBB860:
 100:../../libdaisy/src/hid/midi.h ****         pstate_                = ParserEmpty;
 3965              		.loc 10 100 32 is_stmt 0 view .LVU947
 3966 0076 2B72     		strb	r3, [r5, #8]
 101:../../libdaisy/src/hid/midi.h ****         pstate_                = ParserEmpty;
 3967              		.loc 10 101 32 view .LVU948
 3968 0078 2E71     		strb	r6, [r5, #4]
 3969              	.LBE860:
 3970              	.LBE871:
 3971              	.LBB872:
 3972              	.LBB868:
 3973              	.LBB866:
  59:../../libdaisy/src/hid/midi.h ****     inline size_t  Readable() { return uart_.Readable(); }
 3974              		.loc 10 59 45 view .LVU949
 3975 007a FFF7FEFF 		bl	_ZN5daisy11UartHandler7StartRxEv
 3976              	.LVL321:
  59:../../libdaisy/src/hid/midi.h ****     inline size_t  Readable() { return uart_.Readable(); }
 3977              		.loc 10 59 45 view .LVU950
 3978              	.LBE866:
 3979              	.LBE868:
 3980              	.LBE872:
  68:metamorphic_project.cpp ****     hw.StartAudio(AudioCallback);
 3981              		.loc 11 68 5 is_stmt 1 view .LVU951
 3982              		.loc 11 68 18 is_stmt 0 view .LVU952
 3983 007e A549     		ldr	r1, .L359+28
 3984 0080 9F48     		ldr	r0, .L359+8
 3985 0082 FFF7FEFF 		bl	_ZN5daisy9DaisySeed10StartAudioEPFvPKPKfPPfjE
 3986              	.LVL322:
 3987              	.L323:
  69:metamorphic_project.cpp ****     while(1)
 3988              		.loc 11 69 5 is_stmt 1 view .LVU953
  70:metamorphic_project.cpp ****     {
  71:metamorphic_project.cpp ****         midi.Listen();
 3989              		.loc 11 71 9 view .LVU954
 3990              	.LBB873:
 3991              	.LBI873:
 106:../../libdaisy/src/hid/midi.h **** 
 107:../../libdaisy/src/hid/midi.h ****     /** Start listening */
 108:../../libdaisy/src/hid/midi.h ****     void Listen()
 3992              		.loc 10 108 10 view .LVU955
 3993              	.LBB874:
 109:../../libdaisy/src/hid/midi.h ****     {
 110:../../libdaisy/src/hid/midi.h ****         uint32_t now;
 111:../../libdaisy/src/hid/midi.h ****         now = System::GetNow();
 3994              		.loc 10 111 29 is_stmt 0 view .LVU956
 3995 0086 FFF7FEFF 		bl	_ZN5daisy6System6GetNowEv
 3996              	.LVL323:
 3997 008a 0646     		mov	r6, r0
 3998              	.LVL324:
 3999              	.L299:
ARM GAS  C:\Users\VINCIU~1\AppData\Local\Temp\ccNNq0o9.s 			page 121


 112:../../libdaisy/src/hid/midi.h ****         while(transport_.Readable())
 4000              		.loc 10 112 34 is_stmt 1 view .LVU957
 4001              	.LBB875:
 4002              	.LBI875:
  60:../../libdaisy/src/hid/midi.h ****     inline uint8_t Rx() { return uart_.PopRx(); }
 4003              		.loc 10 60 20 view .LVU958
 4004              	.LBB876:
  60:../../libdaisy/src/hid/midi.h ****     inline uint8_t Rx() { return uart_.PopRx(); }
 4005              		.loc 10 60 33 view .LVU959
  60:../../libdaisy/src/hid/midi.h ****     inline uint8_t Rx() { return uart_.PopRx(); }
 4006              		.loc 10 60 54 is_stmt 0 view .LVU960
 4007 008c A048     		ldr	r0, .L359+24
 4008              	.LVL325:
  60:../../libdaisy/src/hid/midi.h ****     inline uint8_t Rx() { return uart_.PopRx(); }
 4009              		.loc 10 60 54 view .LVU961
 4010 008e FFF7FEFF 		bl	_ZN5daisy11UartHandler8ReadableEv
 4011              	.LVL326:
  60:../../libdaisy/src/hid/midi.h ****     inline uint8_t Rx() { return uart_.PopRx(); }
 4012              		.loc 10 60 54 view .LVU962
 4013              	.LBE876:
 4014              	.LBE875:
 4015              		.loc 10 112 34 view .LVU963
 4016 0092 F0B1     		cbz	r0, .L300
 4017              	.L355:
 4018              	.LBB879:
 4019              	.LBB880:
  61:../../libdaisy/src/hid/midi.h ****     inline bool    RxActive() { return uart_.RxActive(); }
 4020              		.loc 10 61 45 view .LVU964
 4021 0094 9E48     		ldr	r0, .L359+24
 4022              	.LBE880:
 4023              	.LBE879:
 113:../../libdaisy/src/hid/midi.h ****         {
 114:../../libdaisy/src/hid/midi.h ****             last_read_ = now;
 4024              		.loc 10 114 24 view .LVU965
 4025 0096 C4F88464 		str	r6, [r4, #1156]
 4026              	.LVL327:
 4027              	.LBB882:
 4028              	.LBI879:
  61:../../libdaisy/src/hid/midi.h ****     inline bool    RxActive() { return uart_.RxActive(); }
 4029              		.loc 10 61 20 is_stmt 1 view .LVU966
 4030              	.LBB881:
  61:../../libdaisy/src/hid/midi.h ****     inline bool    RxActive() { return uart_.RxActive(); }
 4031              		.loc 10 61 27 view .LVU967
  61:../../libdaisy/src/hid/midi.h ****     inline bool    RxActive() { return uart_.RxActive(); }
 4032              		.loc 10 61 45 is_stmt 0 view .LVU968
 4033 009a FFF7FEFF 		bl	_ZN5daisy11UartHandler5PopRxEv
 4034              	.LVL328:
  61:../../libdaisy/src/hid/midi.h ****     inline bool    RxActive() { return uart_.RxActive(); }
 4035              		.loc 10 61 45 view .LVU969
 4036 009e 2B79     		ldrb	r3, [r5, #4]	@ zero_extendqisi2
 4037 00a0 8246     		mov	r10, r0
 4038              	.LVL329:
  61:../../libdaisy/src/hid/midi.h ****     inline bool    RxActive() { return uart_.RxActive(); }
 4039              		.loc 10 61 45 view .LVU970
 4040              	.LBE881:
 4041              	.LBE882:
 4042              	.LBB883:
ARM GAS  C:\Users\VINCIU~1\AppData\Local\Temp\ccNNq0o9.s 			page 122


 4043              	.LBI883:
 115:../../libdaisy/src/hid/midi.h ****             Parse(transport_.Rx());
 116:../../libdaisy/src/hid/midi.h ****         }
 117:../../libdaisy/src/hid/midi.h **** 
 118:../../libdaisy/src/hid/midi.h ****         // In case of UART Error, (particularly
 119:../../libdaisy/src/hid/midi.h ****         //  overrun error), UART disables itself.
 120:../../libdaisy/src/hid/midi.h ****         // Flush the buff, and restart.
 121:../../libdaisy/src/hid/midi.h ****         if(!transport_.RxActive())
 122:../../libdaisy/src/hid/midi.h ****         {
 123:../../libdaisy/src/hid/midi.h ****             pstate_ = ParserEmpty;
 124:../../libdaisy/src/hid/midi.h ****             transport_.FlushRx();
 125:../../libdaisy/src/hid/midi.h ****             StartReceive();
 126:../../libdaisy/src/hid/midi.h ****         }
 127:../../libdaisy/src/hid/midi.h ****     }
 128:../../libdaisy/src/hid/midi.h **** 
 129:../../libdaisy/src/hid/midi.h ****     /** Checks if there are unhandled messages in the queue 
 130:../../libdaisy/src/hid/midi.h ****     \return True if there are events to be handled, else false.
 131:../../libdaisy/src/hid/midi.h ****      */
 132:../../libdaisy/src/hid/midi.h ****     bool HasEvents() const { return event_q_.readable(); }
 133:../../libdaisy/src/hid/midi.h **** 
 134:../../libdaisy/src/hid/midi.h **** 
 135:../../libdaisy/src/hid/midi.h ****     /** Pops the oldest unhandled MidiEvent from the internal queue
 136:../../libdaisy/src/hid/midi.h ****     \return The event to be handled
 137:../../libdaisy/src/hid/midi.h ****      */
 138:../../libdaisy/src/hid/midi.h ****     MidiEvent PopEvent() { return event_q_.Read(); }
 139:../../libdaisy/src/hid/midi.h **** 
 140:../../libdaisy/src/hid/midi.h ****     /** SendMessage
 141:../../libdaisy/src/hid/midi.h ****     Send raw bytes as message
 142:../../libdaisy/src/hid/midi.h ****     */
 143:../../libdaisy/src/hid/midi.h ****     void SendMessage(uint8_t* bytes, size_t size)
 144:../../libdaisy/src/hid/midi.h ****     {
 145:../../libdaisy/src/hid/midi.h ****         transport_.Tx(bytes, size);
 146:../../libdaisy/src/hid/midi.h ****     }
 147:../../libdaisy/src/hid/midi.h **** 
 148:../../libdaisy/src/hid/midi.h ****     /** Feed in bytes to state machine from a queue.
 149:../../libdaisy/src/hid/midi.h ****     Populates internal FIFO queue with MIDI Messages
 150:../../libdaisy/src/hid/midi.h ****     For example with uart:
 151:../../libdaisy/src/hid/midi.h ****     midi.Parse(uart.PopRx());
 152:../../libdaisy/src/hid/midi.h ****     \param byte &
 153:../../libdaisy/src/hid/midi.h ****     */
 154:../../libdaisy/src/hid/midi.h ****     void Parse(uint8_t byte)
 4044              		.loc 10 154 10 is_stmt 1 view .LVU971
 4045 00a2 032B     		cmp	r3, #3
 4046 00a4 F2D8     		bhi	.L299
 4047 00a6 DFE803F0 		tbb	[pc, r3]
 4048              	.L302:
 4049 00aa 4E       		.byte	(.L305-.L302)/2
 4050 00ab 76       		.byte	(.L304-.L302)/2
 4051 00ac 46       		.byte	(.L303-.L302)/2
 4052 00ad 02       		.byte	(.L301-.L302)/2
 4053              		.p2align 1
 4054              	.L301:
 4055              	.LBB884:
 155:../../libdaisy/src/hid/midi.h ****     {
 156:../../libdaisy/src/hid/midi.h ****         switch(pstate_)
 157:../../libdaisy/src/hid/midi.h ****         {
 158:../../libdaisy/src/hid/midi.h ****             case ParserEmpty:
ARM GAS  C:\Users\VINCIU~1\AppData\Local\Temp\ccNNq0o9.s 			page 123


 159:../../libdaisy/src/hid/midi.h ****                 // check byte for valid Status Byte
 160:../../libdaisy/src/hid/midi.h ****                 if(byte & kStatusByteMask)
 161:../../libdaisy/src/hid/midi.h ****                 {
 162:../../libdaisy/src/hid/midi.h ****                     // Get MessageType, and Channel
 163:../../libdaisy/src/hid/midi.h ****                     incoming_message_.channel = byte & kChannelMask;
 164:../../libdaisy/src/hid/midi.h ****                     incoming_message_.type    = static_cast<MidiMessageType>(
 165:../../libdaisy/src/hid/midi.h ****                         (byte & kMessageMask) >> 4);
 166:../../libdaisy/src/hid/midi.h **** 
 167:../../libdaisy/src/hid/midi.h ****                     // Validate, and move on.
 168:../../libdaisy/src/hid/midi.h ****                     if(incoming_message_.type < MessageLast)
 169:../../libdaisy/src/hid/midi.h ****                     {
 170:../../libdaisy/src/hid/midi.h ****                         pstate_ = ParserHasStatus;
 171:../../libdaisy/src/hid/midi.h ****                         // Mark this status byte as running_status
 172:../../libdaisy/src/hid/midi.h ****                         running_status_ = incoming_message_.type;
 173:../../libdaisy/src/hid/midi.h **** 
 174:../../libdaisy/src/hid/midi.h ****                         if(running_status_ == SystemCommon)
 175:../../libdaisy/src/hid/midi.h ****                         {
 176:../../libdaisy/src/hid/midi.h ****                             incoming_message_.channel = 0;
 177:../../libdaisy/src/hid/midi.h ****                             //system real time = 1111 1xxx
 178:../../libdaisy/src/hid/midi.h ****                             if(byte & 0x08)
 179:../../libdaisy/src/hid/midi.h ****                             {
 180:../../libdaisy/src/hid/midi.h ****                                 incoming_message_.type = SystemRealTime;
 181:../../libdaisy/src/hid/midi.h ****                                 running_status_        = SystemRealTime;
 182:../../libdaisy/src/hid/midi.h ****                                 incoming_message_.srt_type
 183:../../libdaisy/src/hid/midi.h ****                                     = static_cast<SystemRealTimeType>(
 184:../../libdaisy/src/hid/midi.h ****                                         byte & kSystemRealTimeMask);
 185:../../libdaisy/src/hid/midi.h **** 
 186:../../libdaisy/src/hid/midi.h ****                                 //short circuit to start
 187:../../libdaisy/src/hid/midi.h ****                                 pstate_ = ParserEmpty;
 188:../../libdaisy/src/hid/midi.h ****                                 event_q_.Write(incoming_message_);
 189:../../libdaisy/src/hid/midi.h ****                             }
 190:../../libdaisy/src/hid/midi.h ****                             //system common
 191:../../libdaisy/src/hid/midi.h ****                             else
 192:../../libdaisy/src/hid/midi.h ****                             {
 193:../../libdaisy/src/hid/midi.h ****                                 incoming_message_.sc_type
 194:../../libdaisy/src/hid/midi.h ****                                     = static_cast<SystemCommonType>(byte
 195:../../libdaisy/src/hid/midi.h ****                                                                     & 0x07);
 196:../../libdaisy/src/hid/midi.h ****                                 //sysex
 197:../../libdaisy/src/hid/midi.h ****                                 if(incoming_message_.sc_type == SystemExclusive)
 198:../../libdaisy/src/hid/midi.h ****                                 {
 199:../../libdaisy/src/hid/midi.h ****                                     pstate_ = ParserSysEx;
 200:../../libdaisy/src/hid/midi.h ****                                     incoming_message_.sysex_message_len = 0;
 201:../../libdaisy/src/hid/midi.h ****                                 }
 202:../../libdaisy/src/hid/midi.h ****                                 //short circuit
 203:../../libdaisy/src/hid/midi.h ****                                 else if(incoming_message_.sc_type > SongSelect)
 204:../../libdaisy/src/hid/midi.h ****                                 {
 205:../../libdaisy/src/hid/midi.h ****                                     pstate_ = ParserEmpty;
 206:../../libdaisy/src/hid/midi.h ****                                     event_q_.Write(incoming_message_);
 207:../../libdaisy/src/hid/midi.h ****                                 }
 208:../../libdaisy/src/hid/midi.h ****                             }
 209:../../libdaisy/src/hid/midi.h ****                         }
 210:../../libdaisy/src/hid/midi.h ****                     }
 211:../../libdaisy/src/hid/midi.h ****                     // Else we'll keep waiting for a valid incoming status byte
 212:../../libdaisy/src/hid/midi.h ****                 }
 213:../../libdaisy/src/hid/midi.h ****                 else
 214:../../libdaisy/src/hid/midi.h ****                 {
 215:../../libdaisy/src/hid/midi.h ****                     // Handle as running status
ARM GAS  C:\Users\VINCIU~1\AppData\Local\Temp\ccNNq0o9.s 			page 124


 216:../../libdaisy/src/hid/midi.h ****                     incoming_message_.type    = running_status_;
 217:../../libdaisy/src/hid/midi.h ****                     incoming_message_.data[0] = byte & kDataByteMask;
 218:../../libdaisy/src/hid/midi.h ****                     pstate_                   = ParserHasData0;
 219:../../libdaisy/src/hid/midi.h ****                 }
 220:../../libdaisy/src/hid/midi.h ****                 break;
 221:../../libdaisy/src/hid/midi.h ****             case ParserHasStatus:
 222:../../libdaisy/src/hid/midi.h ****                 if((byte & kStatusByteMask) == 0)
 223:../../libdaisy/src/hid/midi.h ****                 {
 224:../../libdaisy/src/hid/midi.h ****                     incoming_message_.data[0] = byte & kDataByteMask;
 225:../../libdaisy/src/hid/midi.h ****                     if(running_status_ == ChannelPressure
 226:../../libdaisy/src/hid/midi.h ****                        || running_status_ == ProgramChange
 227:../../libdaisy/src/hid/midi.h ****                        || incoming_message_.sc_type == MTCQuarterFrame
 228:../../libdaisy/src/hid/midi.h ****                        || incoming_message_.sc_type == SongSelect)
 229:../../libdaisy/src/hid/midi.h ****                     {
 230:../../libdaisy/src/hid/midi.h ****                         //these are just one data byte, so we short circuit back to start
 231:../../libdaisy/src/hid/midi.h ****                         pstate_ = ParserEmpty;
 232:../../libdaisy/src/hid/midi.h ****                         event_q_.Write(incoming_message_);
 233:../../libdaisy/src/hid/midi.h ****                     }
 234:../../libdaisy/src/hid/midi.h ****                     else
 235:../../libdaisy/src/hid/midi.h ****                     {
 236:../../libdaisy/src/hid/midi.h ****                         pstate_ = ParserHasData0;
 237:../../libdaisy/src/hid/midi.h ****                     }
 238:../../libdaisy/src/hid/midi.h **** 
 239:../../libdaisy/src/hid/midi.h ****                     //ChannelModeMessages (reserved Control Changes)
 240:../../libdaisy/src/hid/midi.h ****                     if(running_status_ == ControlChange
 241:../../libdaisy/src/hid/midi.h ****                        && incoming_message_.data[0] > 119)
 242:../../libdaisy/src/hid/midi.h ****                     {
 243:../../libdaisy/src/hid/midi.h ****                         incoming_message_.type = ChannelMode;
 244:../../libdaisy/src/hid/midi.h ****                         running_status_        = ChannelMode;
 245:../../libdaisy/src/hid/midi.h ****                         incoming_message_.cm_type
 246:../../libdaisy/src/hid/midi.h ****                             = static_cast<ChannelModeType>(
 247:../../libdaisy/src/hid/midi.h ****                                 incoming_message_.data[0] - 120);
 248:../../libdaisy/src/hid/midi.h ****                     }
 249:../../libdaisy/src/hid/midi.h ****                 }
 250:../../libdaisy/src/hid/midi.h ****                 else
 251:../../libdaisy/src/hid/midi.h ****                 {
 252:../../libdaisy/src/hid/midi.h ****                     // invalid message go back to start ;p
 253:../../libdaisy/src/hid/midi.h ****                     pstate_ = ParserEmpty;
 254:../../libdaisy/src/hid/midi.h ****                 }
 255:../../libdaisy/src/hid/midi.h ****                 break;
 256:../../libdaisy/src/hid/midi.h ****             case ParserHasData0:
 257:../../libdaisy/src/hid/midi.h ****                 if((byte & kStatusByteMask) == 0)
 258:../../libdaisy/src/hid/midi.h ****                 {
 259:../../libdaisy/src/hid/midi.h ****                     incoming_message_.data[1] = byte & kDataByteMask;
 260:../../libdaisy/src/hid/midi.h ****                     // At this point the message is valid, and we can add this MidiEvent to the que
 261:../../libdaisy/src/hid/midi.h ****                     event_q_.Write(incoming_message_);
 262:../../libdaisy/src/hid/midi.h ****                 }
 263:../../libdaisy/src/hid/midi.h ****                 // Regardless, of whether the data was valid or not we go back to empty
 264:../../libdaisy/src/hid/midi.h ****                 // because either the message is queued for handling or its not.
 265:../../libdaisy/src/hid/midi.h ****                 pstate_ = ParserEmpty;
 266:../../libdaisy/src/hid/midi.h ****                 break;
 267:../../libdaisy/src/hid/midi.h ****             case ParserSysEx:
 268:../../libdaisy/src/hid/midi.h ****                 // end of sysex
 269:../../libdaisy/src/hid/midi.h ****                 if(byte == 0xf7
 4056              		.loc 10 269 17 is_stmt 0 view .LVU972
 4057 00ae F728     		cmp	r0, #247
 4058 00b0 00F0BD80 		beq	.L319
ARM GAS  C:\Users\VINCIU~1\AppData\Local\Temp\ccNNq0o9.s 			page 125


 270:../../libdaisy/src/hid/midi.h ****                    || incoming_message_.sysex_message_len >= SYSEX_BUFFER_LEN)
 4059              		.loc 10 270 41 view .LVU973
 4060 00b4 95F87630 		ldrb	r3, [r5, #118]	@ zero_extendqisi2
 4061              		.loc 10 270 20 view .LVU974
 4062 00b8 632B     		cmp	r3, #99
 4063 00ba 00F2B880 		bhi	.L319
 271:../../libdaisy/src/hid/midi.h ****                 {
 272:../../libdaisy/src/hid/midi.h ****                     pstate_ = ParserEmpty;
 273:../../libdaisy/src/hid/midi.h ****                     event_q_.Write(incoming_message_);
 274:../../libdaisy/src/hid/midi.h ****                 }
 275:../../libdaisy/src/hid/midi.h ****                 else
 276:../../libdaisy/src/hid/midi.h ****                 {
 277:../../libdaisy/src/hid/midi.h ****                     incoming_message_
 278:../../libdaisy/src/hid/midi.h ****                         .sysex_data[incoming_message_.sysex_message_len]
 279:../../libdaisy/src/hid/midi.h ****                         = byte;
 4064              		.loc 10 279 25 view .LVU975
 4065 00be EA18     		adds	r2, r5, r3
 280:../../libdaisy/src/hid/midi.h ****                     incoming_message_.sysex_message_len++;
 4066              		.loc 10 280 21 view .LVU976
 4067 00c0 0133     		adds	r3, r3, #1
 279:../../libdaisy/src/hid/midi.h ****                     incoming_message_.sysex_message_len++;
 4068              		.loc 10 279 25 view .LVU977
 4069 00c2 9074     		strb	r0, [r2, #18]
 4070              	.LBE884:
 4071              	.LBE883:
 4072              	.LBB916:
 4073              	.LBB877:
  60:../../libdaisy/src/hid/midi.h ****     inline uint8_t Rx() { return uart_.PopRx(); }
 4074              		.loc 10 60 54 view .LVU978
 4075 00c4 9248     		ldr	r0, .L359+24
 4076              	.LVL330:
  60:../../libdaisy/src/hid/midi.h ****     inline uint8_t Rx() { return uart_.PopRx(); }
 4077              		.loc 10 60 54 view .LVU979
 4078              	.LBE877:
 4079              	.LBE916:
 4080              	.LBB917:
 4081              	.LBB913:
 4082              		.loc 10 280 21 view .LVU980
 4083 00c6 85F87630 		strb	r3, [r5, #118]
 4084              	.LVL331:
 4085              		.loc 10 280 21 view .LVU981
 4086              	.LBE913:
 4087              	.LBE917:
 112:../../libdaisy/src/hid/midi.h ****         {
 4088              		.loc 10 112 34 is_stmt 1 view .LVU982
 4089              	.LBB918:
  60:../../libdaisy/src/hid/midi.h ****     inline uint8_t Rx() { return uart_.PopRx(); }
 4090              		.loc 10 60 20 view .LVU983
 4091              	.LBB878:
  60:../../libdaisy/src/hid/midi.h ****     inline uint8_t Rx() { return uart_.PopRx(); }
 4092              		.loc 10 60 33 view .LVU984
  60:../../libdaisy/src/hid/midi.h ****     inline uint8_t Rx() { return uart_.PopRx(); }
 4093              		.loc 10 60 54 is_stmt 0 view .LVU985
 4094 00ca FFF7FEFF 		bl	_ZN5daisy11UartHandler8ReadableEv
 4095              	.LVL332:
  60:../../libdaisy/src/hid/midi.h ****     inline uint8_t Rx() { return uart_.PopRx(); }
 4096              		.loc 10 60 54 view .LVU986
ARM GAS  C:\Users\VINCIU~1\AppData\Local\Temp\ccNNq0o9.s 			page 126


 4097              	.LBE878:
 4098              	.LBE918:
 112:../../libdaisy/src/hid/midi.h ****         {
 4099              		.loc 10 112 34 view .LVU987
 4100 00ce 0028     		cmp	r0, #0
 4101 00d0 E0D1     		bne	.L355
 4102              	.L300:
 4103              	.LVL333:
 4104              	.LBB919:
 4105              	.LBI919:
  62:../../libdaisy/src/hid/midi.h ****     inline void    FlushRx() { uart_.FlushRx(); }
 4106              		.loc 10 62 20 is_stmt 1 view .LVU988
 4107              	.LBB920:
  62:../../libdaisy/src/hid/midi.h ****     inline void    FlushRx() { uart_.FlushRx(); }
 4108              		.loc 10 62 33 view .LVU989
  62:../../libdaisy/src/hid/midi.h ****     inline void    FlushRx() { uart_.FlushRx(); }
 4109              		.loc 10 62 54 is_stmt 0 view .LVU990
 4110 00d2 8F48     		ldr	r0, .L359+24
 4111              	.LVL334:
  62:../../libdaisy/src/hid/midi.h ****     inline void    FlushRx() { uart_.FlushRx(); }
 4112              		.loc 10 62 54 view .LVU991
 4113 00d4 FFF7FEFF 		bl	_ZN5daisy11UartHandler8RxActiveEv
 4114              	.LVL335:
  62:../../libdaisy/src/hid/midi.h ****     inline void    FlushRx() { uart_.FlushRx(); }
 4115              		.loc 10 62 54 view .LVU992
 4116              	.LBE920:
 4117              	.LBE919:
 121:../../libdaisy/src/hid/midi.h ****         {
 4118              		.loc 10 121 9 view .LVU993
 4119 00d8 0346     		mov	r3, r0
 4120 00da 0028     		cmp	r0, #0
 4121 00dc 00F00181 		beq	.L356
 4122              	.L322:
 4123              	.LVL336:
 121:../../libdaisy/src/hid/midi.h ****         {
 4124              		.loc 10 121 9 view .LVU994
 4125              	.LBE874:
 4126              	.LBE873:
  72:metamorphic_project.cpp ****         synthMenus.SplashScreen(&display);
 4127              		.loc 11 72 9 is_stmt 1 view .LVU995
 4128              		.loc 11 72 32 is_stmt 0 view .LVU996
 4129 00e0 8649     		ldr	r1, .L359+4
 4130 00e2 8D48     		ldr	r0, .L359+32
 4131 00e4 FFF7FEFF 		bl	_ZN5Menus12SplashScreenEPN5daisy11OledDisplayINS0_13SSD130xDriverILj128ELj64ENS0_24SSD130x4Wire
 4132              	.LVL337:
  73:metamorphic_project.cpp ****         if(midi.HasEvents())
 4133              		.loc 11 73 9 is_stmt 1 view .LVU997
 4134              	.LBB932:
 4135              	.LBI932:
 132:../../libdaisy/src/hid/midi.h **** 
 4136              		.loc 10 132 10 view .LVU998
 4137              	.LBB933:
 4138              	.LBI933:
  25:../../libdaisy/src/util/ringbuffer.h **** 
  26:../../libdaisy/src/util/ringbuffer.h ****     /** \return The total size of the ring buffer */
  27:../../libdaisy/src/util/ringbuffer.h ****     inline size_t capacity() const { return size; }
  28:../../libdaisy/src/util/ringbuffer.h **** 
ARM GAS  C:\Users\VINCIU~1\AppData\Local\Temp\ccNNq0o9.s 			page 127


  29:../../libdaisy/src/util/ringbuffer.h ****     /** \return the number of samples that can be written to ring buffer without overwriting unread
  30:../../libdaisy/src/util/ringbuffer.h ****     inline size_t writable() const
  31:../../libdaisy/src/util/ringbuffer.h ****     {
  32:../../libdaisy/src/util/ringbuffer.h ****         return (read_ptr_ - write_ptr_ - 1) % size;
  33:../../libdaisy/src/util/ringbuffer.h ****     }
  34:../../libdaisy/src/util/ringbuffer.h **** 
  35:../../libdaisy/src/util/ringbuffer.h ****     /** \return number of unread elements in ring buffer */
  36:../../libdaisy/src/util/ringbuffer.h ****     inline size_t readable() const { return (write_ptr_ - read_ptr_) % size; }
 4139              		.loc 15 36 19 view .LVU999
 4140              	.LBB934:
 4141              		.loc 15 36 46 is_stmt 0 view .LVU1000
 4142 00e8 D4F88034 		ldr	r3, [r4, #1152]
 4143              		.loc 15 36 59 view .LVU1001
 4144 00ec D4F87C24 		ldr	r2, [r4, #1148]
 4145              	.LVL338:
 4146              		.loc 15 36 57 view .LVU1002
 4147 00f0 9B1A     		subs	r3, r3, r2
 4148              		.loc 15 36 72 view .LVU1003
 4149 00f2 DBB2     		uxtb	r3, r3
 4150              	.LBE934:
 4151              	.LBE933:
 4152              	.LBE932:
 4153              		.loc 11 73 9 view .LVU1004
 4154 00f4 002B     		cmp	r3, #0
 4155 00f6 C6D0     		beq	.L323
 4156              	.L324:
 4157              	.LBB935:
 4158              	.LBB936:
 4159              	.LBB937:
  37:../../libdaisy/src/util/ringbuffer.h **** 
  38:../../libdaisy/src/util/ringbuffer.h ****     /** \returns True, if the buffer is empty. */
  39:../../libdaisy/src/util/ringbuffer.h ****     inline bool isEmpty() const { return write_ptr_ == read_ptr_; }
  40:../../libdaisy/src/util/ringbuffer.h **** 
  41:../../libdaisy/src/util/ringbuffer.h ****     /** Writes the value to the next available position in the ring buffer
  42:../../libdaisy/src/util/ringbuffer.h ****     \param v Value to write
  43:../../libdaisy/src/util/ringbuffer.h ****     */
  44:../../libdaisy/src/util/ringbuffer.h ****     inline void Write(T v)
  45:../../libdaisy/src/util/ringbuffer.h ****     {
  46:../../libdaisy/src/util/ringbuffer.h ****         while(!writable())
  47:../../libdaisy/src/util/ringbuffer.h ****             ;
  48:../../libdaisy/src/util/ringbuffer.h ****         Overwrite(v);
  49:../../libdaisy/src/util/ringbuffer.h ****     }
  50:../../libdaisy/src/util/ringbuffer.h **** 
  51:../../libdaisy/src/util/ringbuffer.h ****     /** Writes the new element to the ring buffer, overwriting unread data if necessary. 
  52:../../libdaisy/src/util/ringbuffer.h ****     \param v Value to overwrite
  53:../../libdaisy/src/util/ringbuffer.h ****      */
  54:../../libdaisy/src/util/ringbuffer.h ****     inline void Overwrite(T v)
  55:../../libdaisy/src/util/ringbuffer.h ****     {
  56:../../libdaisy/src/util/ringbuffer.h ****         size_t w   = write_ptr_;
  57:../../libdaisy/src/util/ringbuffer.h ****         buffer_[w] = v;
  58:../../libdaisy/src/util/ringbuffer.h ****         write_ptr_ = (w + 1) % size;
  59:../../libdaisy/src/util/ringbuffer.h ****     }
  60:../../libdaisy/src/util/ringbuffer.h **** 
  61:../../libdaisy/src/util/ringbuffer.h ****     /** Reads the first available element from the ring buffer
  62:../../libdaisy/src/util/ringbuffer.h ****     \return read value
  63:../../libdaisy/src/util/ringbuffer.h ****      */
  64:../../libdaisy/src/util/ringbuffer.h ****     inline T Read()
ARM GAS  C:\Users\VINCIU~1\AppData\Local\Temp\ccNNq0o9.s 			page 128


  65:../../libdaisy/src/util/ringbuffer.h ****     {
  66:../../libdaisy/src/util/ringbuffer.h ****         while(!readable())
 4160              		.loc 15 66 24 is_stmt 1 view .LVU1005
 4161              	.LVL339:
 4162              	.LBB938:
 4163              	.LBI938:
  36:../../libdaisy/src/util/ringbuffer.h **** 
 4164              		.loc 15 36 19 view .LVU1006
 4165              	.LBB939:
  36:../../libdaisy/src/util/ringbuffer.h **** 
 4166              		.loc 15 36 46 is_stmt 0 view .LVU1007
 4167 00f8 D4F88034 		ldr	r3, [r4, #1152]
  36:../../libdaisy/src/util/ringbuffer.h **** 
 4168              		.loc 15 36 59 view .LVU1008
 4169 00fc D4F87C24 		ldr	r2, [r4, #1148]
 4170              	.LVL340:
  36:../../libdaisy/src/util/ringbuffer.h **** 
 4171              		.loc 15 36 57 view .LVU1009
 4172 0100 9B1A     		subs	r3, r3, r2
  36:../../libdaisy/src/util/ringbuffer.h **** 
 4173              		.loc 15 36 72 view .LVU1010
 4174 0102 DBB2     		uxtb	r3, r3
 4175              	.LBE939:
 4176              	.LBE938:
 4177              		.loc 15 66 24 view .LVU1011
 4178 0104 002B     		cmp	r3, #0
 4179 0106 F7D0     		beq	.L324
 4180              	.LVL341:
 4181              	.LBB940:
 4182              	.LBI940:
  67:../../libdaisy/src/util/ringbuffer.h ****             ;
  68:../../libdaisy/src/util/ringbuffer.h ****         return ImmediateRead();
  69:../../libdaisy/src/util/ringbuffer.h ****     }
  70:../../libdaisy/src/util/ringbuffer.h **** 
  71:../../libdaisy/src/util/ringbuffer.h ****     /** Reads next element from ring buffer immediately
  72:../../libdaisy/src/util/ringbuffer.h ****     \return read value
  73:../../libdaisy/src/util/ringbuffer.h ****      */
  74:../../libdaisy/src/util/ringbuffer.h ****     inline T ImmediateRead()
 4183              		.loc 15 74 14 is_stmt 1 view .LVU1012
 4184              	.LBB941:
  75:../../libdaisy/src/util/ringbuffer.h ****     {
  76:../../libdaisy/src/util/ringbuffer.h ****         size_t r      = read_ptr_;
 4185              		.loc 15 76 16 is_stmt 0 view .LVU1013
 4186 0108 D4F87C64 		ldr	r6, [r4, #1148]
 4187              	.LVL342:
  77:../../libdaisy/src/util/ringbuffer.h ****         T      result = buffer_[r];
 4188              		.loc 15 77 16 view .LVU1014
 4189 010c 7422     		movs	r2, #116
 4190              	.LVL343:
 4191              		.loc 15 77 16 view .LVU1015
 4192 010e 3846     		mov	r0, r7
 4193 0110 02FB0651 		mla	r1, r2, r6, r5
  78:../../libdaisy/src/util/ringbuffer.h ****         read_ptr_     = (r + 1) % size;
 4194              		.loc 15 78 28 view .LVU1016
 4195 0114 0136     		adds	r6, r6, #1
 4196              	.LVL344:
 4197              		.loc 15 78 33 view .LVU1017
ARM GAS  C:\Users\VINCIU~1\AppData\Local\Temp\ccNNq0o9.s 			page 129


 4198 0116 F6B2     		uxtb	r6, r6
  77:../../libdaisy/src/util/ringbuffer.h ****         T      result = buffer_[r];
 4199              		.loc 15 77 16 view .LVU1018
 4200 0118 7C31     		adds	r1, r1, #124
 4201 011a FFF7FEFF 		bl	memcpy
 4202              	.LVL345:
  77:../../libdaisy/src/util/ringbuffer.h ****         T      result = buffer_[r];
 4203              		.loc 15 77 16 view .LVU1019
 4204              	.LBE941:
 4205              	.LBE940:
 4206              	.LBE937:
 4207              	.LBE936:
 4208              	.LBE935:
  74:metamorphic_project.cpp ****         {
  75:metamorphic_project.cpp ****             HandleMidiMessage(midi.PopEvent());
 4209              		.loc 11 75 30 view .LVU1020
 4210 011e 1FA9     		add	r1, sp, #124
 4211 0120 6422     		movs	r2, #100
 4212 0122 6846     		mov	r0, sp
 4213              	.LBB946:
 4214              	.LBB945:
 4215              	.LBB944:
 4216              	.LBB943:
 4217              	.LBB942:
 4218              		.loc 15 78 23 view .LVU1021
 4219 0124 C4F87C64 		str	r6, [r4, #1148]
 4220              	.LVL346:
 4221              		.loc 15 78 23 view .LVU1022
 4222              	.LBE942:
 4223              	.LBE943:
 4224              	.LBE944:
 4225              	.LBE945:
 4226              	.LBE946:
 4227              		.loc 11 75 30 view .LVU1023
 4228 0128 FFF7FEFF 		bl	memcpy
 4229              	.LVL347:
 4230 012c 97E80F00 		ldm	r7, {r0, r1, r2, r3}
 4231 0130 FFF7FEFF 		bl	_Z17HandleMidiMessage9MidiEvent
 4232              	.LVL348:
 4233 0134 A7E7     		b	.L323
 4234              	.LVL349:
 4235              	.L303:
 4236              	.LBB947:
 4237              	.LBB931:
 4238              	.LBB921:
 4239              	.LBB914:
 257:../../libdaisy/src/hid/midi.h ****                 {
 4240              		.loc 10 257 26 view .LVU1024
 4241 0136 94F89834 		ldrb	r3, [r4, #1176]	@ zero_extendqisi2
 257:../../libdaisy/src/hid/midi.h ****                 {
 4242              		.loc 10 257 17 view .LVU1025
 4243 013a 1842     		tst	r0, r3
 4244 013c 00F0A880 		beq	.L357
 4245              	.LVL350:
 4246              	.L313:
 253:../../libdaisy/src/hid/midi.h ****                 }
 4247              		.loc 10 253 29 view .LVU1026
ARM GAS  C:\Users\VINCIU~1\AppData\Local\Temp\ccNNq0o9.s 			page 130


 4248 0140 0023     		movs	r3, #0
 4249 0142 2B71     		strb	r3, [r5, #4]
 4250 0144 A2E7     		b	.L299
 4251              	.LVL351:
 4252              	.L305:
 160:../../libdaisy/src/hid/midi.h ****                 {
 4253              		.loc 10 160 25 view .LVU1027
 4254 0146 94F89834 		ldrb	r3, [r4, #1176]	@ zero_extendqisi2
 160:../../libdaisy/src/hid/midi.h ****                 {
 4255              		.loc 10 160 17 view .LVU1028
 4256 014a 1842     		tst	r0, r3
 4257 014c 00F09480 		beq	.L306
 165:../../libdaisy/src/hid/midi.h **** 
 4258              		.loc 10 165 31 view .LVU1029
 4259 0150 94F89934 		ldrb	r3, [r4, #1177]	@ zero_extendqisi2
 163:../../libdaisy/src/hid/midi.h ****                     incoming_message_.type    = static_cast<MidiMessageType>(
 4260              		.loc 10 163 54 view .LVU1030
 4261 0154 94F89C24 		ldrb	r2, [r4, #1180]	@ zero_extendqisi2
 165:../../libdaisy/src/hid/midi.h **** 
 4262              		.loc 10 165 47 view .LVU1031
 4263 0158 0340     		ands	r3, r3, r0
 163:../../libdaisy/src/hid/midi.h ****                     incoming_message_.type    = static_cast<MidiMessageType>(
 4264              		.loc 10 163 54 view .LVU1032
 4265 015a 0240     		ands	r2, r2, r0
 165:../../libdaisy/src/hid/midi.h **** 
 4266              		.loc 10 165 47 view .LVU1033
 4267 015c 1B09     		lsrs	r3, r3, #4
 163:../../libdaisy/src/hid/midi.h ****                     incoming_message_.type    = static_cast<MidiMessageType>(
 4268              		.loc 10 163 54 view .LVU1034
 4269 015e EA60     		str	r2, [r5, #12]
 168:../../libdaisy/src/hid/midi.h ****                     {
 4270              		.loc 10 168 21 view .LVU1035
 4271 0160 092B     		cmp	r3, #9
 164:../../libdaisy/src/hid/midi.h ****                         (byte & kMessageMask) >> 4);
 4272              		.loc 10 164 47 view .LVU1036
 4273 0162 2B72     		strb	r3, [r5, #8]
 168:../../libdaisy/src/hid/midi.h ****                     {
 4274              		.loc 10 168 21 view .LVU1037
 4275 0164 92D8     		bhi	.L299
 170:../../libdaisy/src/hid/midi.h ****                         // Mark this status byte as running_status
 4276              		.loc 10 170 33 view .LVU1038
 4277 0166 0122     		movs	r2, #1
 174:../../libdaisy/src/hid/midi.h ****                         {
 4278              		.loc 10 174 25 view .LVU1039
 4279 0168 072B     		cmp	r3, #7
 172:../../libdaisy/src/hid/midi.h **** 
 4280              		.loc 10 172 41 view .LVU1040
 4281 016a 84F88834 		strb	r3, [r4, #1160]
 170:../../libdaisy/src/hid/midi.h ****                         // Mark this status byte as running_status
 4282              		.loc 10 170 33 view .LVU1041
 4283 016e 2A71     		strb	r2, [r5, #4]
 174:../../libdaisy/src/hid/midi.h ****                         {
 4284              		.loc 10 174 25 view .LVU1042
 4285 0170 8CD1     		bne	.L299
 176:../../libdaisy/src/hid/midi.h ****                             //system real time = 1111 1xxx
 4286              		.loc 10 176 55 view .LVU1043
 4287 0172 0023     		movs	r3, #0
ARM GAS  C:\Users\VINCIU~1\AppData\Local\Temp\ccNNq0o9.s 			page 131


 178:../../libdaisy/src/hid/midi.h ****                             {
 4288              		.loc 10 178 29 view .LVU1044
 4289 0174 10F0080C 		ands	ip, r0, #8
 176:../../libdaisy/src/hid/midi.h ****                             //system real time = 1111 1xxx
 4290              		.loc 10 176 55 view .LVU1045
 4291 0178 EB60     		str	r3, [r5, #12]
 178:../../libdaisy/src/hid/midi.h ****                             {
 4292              		.loc 10 178 29 view .LVU1046
 4293 017a 40F0F980 		bne	.L358
 195:../../libdaisy/src/hid/midi.h ****                                 //sysex
 4294              		.loc 10 195 69 view .LVU1047
 4295 017e 00F00703 		and	r3, r0, #7
 194:../../libdaisy/src/hid/midi.h ****                                                                     & 0x07);
 4296              		.loc 10 194 37 view .LVU1048
 4297 0182 85F87730 		strb	r3, [r5, #119]
 197:../../libdaisy/src/hid/midi.h ****                                 {
 4298              		.loc 10 197 33 view .LVU1049
 4299 0186 002B     		cmp	r3, #0
 4300 0188 40F0CA80 		bne	.L311
 199:../../libdaisy/src/hid/midi.h ****                                     incoming_message_.sysex_message_len = 0;
 4301              		.loc 10 199 45 view .LVU1050
 4302 018c 0322     		movs	r2, #3
 200:../../libdaisy/src/hid/midi.h ****                                 }
 4303              		.loc 10 200 73 view .LVU1051
 4304 018e 85F87630 		strb	r3, [r5, #118]
 199:../../libdaisy/src/hid/midi.h ****                                     incoming_message_.sysex_message_len = 0;
 4305              		.loc 10 199 45 view .LVU1052
 4306 0192 2A71     		strb	r2, [r5, #4]
 4307 0194 7AE7     		b	.L299
 4308              	.L304:
 222:../../libdaisy/src/hid/midi.h ****                 {
 4309              		.loc 10 222 26 view .LVU1053
 4310 0196 94F89834 		ldrb	r3, [r4, #1176]	@ zero_extendqisi2
 222:../../libdaisy/src/hid/midi.h ****                 {
 4311              		.loc 10 222 17 view .LVU1054
 4312 019a 1842     		tst	r0, r3
 4313 019c D0D1     		bne	.L313
 225:../../libdaisy/src/hid/midi.h ****                        || running_status_ == ProgramChange
 4314              		.loc 10 225 24 view .LVU1055
 4315 019e 94F88894 		ldrb	r9, [r4, #1160]	@ zero_extendqisi2
 224:../../libdaisy/src/hid/midi.h ****                     if(running_status_ == ChannelPressure
 4316              		.loc 10 224 54 view .LVU1056
 4317 01a2 94F89A04 		ldrb	r0, [r4, #1178]	@ zero_extendqisi2
 4318              	.LVL352:
 225:../../libdaisy/src/hid/midi.h ****                        || running_status_ == ProgramChange
 4319              		.loc 10 225 21 view .LVU1057
 4320 01a6 A9F10403 		sub	r3, r9, #4
 224:../../libdaisy/src/hid/midi.h ****                     if(running_status_ == ChannelPressure
 4321              		.loc 10 224 54 view .LVU1058
 4322 01aa 0AEA000A 		and	r10, r10, r0
 4323              	.LVL353:
 225:../../libdaisy/src/hid/midi.h ****                        || running_status_ == ProgramChange
 4324              		.loc 10 225 21 view .LVU1059
 4325 01ae 012B     		cmp	r3, #1
 224:../../libdaisy/src/hid/midi.h ****                     if(running_status_ == ChannelPressure
 4326              		.loc 10 224 47 view .LVU1060
 4327 01b0 85F810A0 		strb	r10, [r5, #16]
ARM GAS  C:\Users\VINCIU~1\AppData\Local\Temp\ccNNq0o9.s 			page 132


 225:../../libdaisy/src/hid/midi.h ****                        || running_status_ == ProgramChange
 4328              		.loc 10 225 21 view .LVU1061
 4329 01b4 06D9     		bls	.L314
 227:../../libdaisy/src/hid/midi.h ****                        || incoming_message_.sc_type == SongSelect)
 4330              		.loc 10 227 24 view .LVU1062
 4331 01b6 95F87730 		ldrb	r3, [r5, #119]	@ zero_extendqisi2
 228:../../libdaisy/src/hid/midi.h ****                     {
 4332              		.loc 10 228 24 view .LVU1063
 4333 01ba 03F0FD03 		and	r3, r3, #253
 4334 01be 012B     		cmp	r3, #1
 4335 01c0 40F09780 		bne	.L315
 4336              	.L314:
 231:../../libdaisy/src/hid/midi.h ****                         event_q_.Write(incoming_message_);
 4337              		.loc 10 231 33 view .LVU1064
 4338 01c4 0023     		movs	r3, #0
 4339 01c6 7422     		movs	r2, #116
 4340 01c8 5449     		ldr	r1, .L359+36
 4341 01ca 38A8     		add	r0, sp, #224
 4342 01cc 2B71     		strb	r3, [r5, #4]
 4343              	.LVL354:
 231:../../libdaisy/src/hid/midi.h ****                         event_q_.Write(incoming_message_);
 4344              		.loc 10 231 33 view .LVU1065
 4345 01ce FFF7FEFF 		bl	memcpy
 4346              	.LVL355:
 4347              	.LBB885:
 4348              	.LBI885:
  44:../../libdaisy/src/util/ringbuffer.h ****     {
 4349              		.loc 15 44 17 is_stmt 1 view .LVU1066
 4350              	.L316:
 4351              	.LBB886:
  46:../../libdaisy/src/util/ringbuffer.h ****             ;
 4352              		.loc 15 46 24 view .LVU1067
 4353              	.LBB887:
 4354              	.LBI887:
  30:../../libdaisy/src/util/ringbuffer.h ****     {
 4355              		.loc 15 30 19 view .LVU1068
 4356              	.LBB888:
  32:../../libdaisy/src/util/ringbuffer.h ****     }
 4357              		.loc 15 32 17 is_stmt 0 view .LVU1069
 4358 01d2 D4F87C34 		ldr	r3, [r4, #1148]
  32:../../libdaisy/src/util/ringbuffer.h ****     }
 4359              		.loc 15 32 29 view .LVU1070
 4360 01d6 D4F88024 		ldr	r2, [r4, #1152]
 4361              	.LVL356:
  32:../../libdaisy/src/util/ringbuffer.h ****     }
 4362              		.loc 15 32 40 view .LVU1071
 4363 01da 013B     		subs	r3, r3, #1
 4364 01dc 9B1A     		subs	r3, r3, r2
  32:../../libdaisy/src/util/ringbuffer.h ****     }
 4365              		.loc 15 32 47 view .LVU1072
 4366 01de DBB2     		uxtb	r3, r3
 4367              	.LBE888:
 4368              	.LBE887:
  46:../../libdaisy/src/util/ringbuffer.h ****             ;
 4369              		.loc 15 46 24 view .LVU1073
 4370 01e0 002B     		cmp	r3, #0
 4371 01e2 F6D0     		beq	.L316
ARM GAS  C:\Users\VINCIU~1\AppData\Local\Temp\ccNNq0o9.s 			page 133


 4372              	.LVL357:
  46:../../libdaisy/src/util/ringbuffer.h ****             ;
 4373              		.loc 15 46 24 view .LVU1074
 4374 01e4 7422     		movs	r2, #116
 4375 01e6 38A9     		add	r1, sp, #224
 4376 01e8 55A8     		add	r0, sp, #340
 4377 01ea FFF7FEFF 		bl	memcpy
 4378              	.LVL358:
 4379              	.LBB889:
 4380              	.LBI889:
  54:../../libdaisy/src/util/ringbuffer.h ****     {
 4381              		.loc 15 54 17 is_stmt 1 view .LVU1075
 4382              	.LBB890:
  56:../../libdaisy/src/util/ringbuffer.h ****         buffer_[w] = v;
 4383              		.loc 15 56 16 is_stmt 0 view .LVU1076
 4384 01ee D4F880B4 		ldr	fp, [r4, #1152]
 4385              	.LVL359:
  57:../../libdaisy/src/util/ringbuffer.h ****         write_ptr_ = (w + 1) % size;
 4386              		.loc 15 57 9 view .LVU1077
 4387 01f2 7422     		movs	r2, #116
 4388 01f4 55A9     		add	r1, sp, #340
 4389 01f6 02FB0B50 		mla	r0, r2, fp, r5
  58:../../libdaisy/src/util/ringbuffer.h ****     }
 4390              		.loc 15 58 25 view .LVU1078
 4391 01fa 0BF1010B 		add	fp, fp, #1
 4392              	.LVL360:
  57:../../libdaisy/src/util/ringbuffer.h ****         write_ptr_ = (w + 1) % size;
 4393              		.loc 15 57 9 view .LVU1079
 4394 01fe 7C30     		adds	r0, r0, #124
 4395 0200 FFF7FEFF 		bl	memcpy
 4396              	.LVL361:
  58:../../libdaisy/src/util/ringbuffer.h ****     }
 4397              		.loc 15 58 30 view .LVU1080
 4398 0204 5FFA8BF3 		uxtb	r3, fp
  58:../../libdaisy/src/util/ringbuffer.h ****     }
 4399              		.loc 15 58 20 view .LVU1081
 4400 0208 C4F88034 		str	r3, [r4, #1152]
 4401              	.LVL362:
 4402              	.L317:
  58:../../libdaisy/src/util/ringbuffer.h ****     }
 4403              		.loc 15 58 20 view .LVU1082
 4404              	.LBE890:
 4405              	.LBE889:
 4406              	.LBE886:
 4407              	.LBE885:
 241:../../libdaisy/src/hid/midi.h ****                     {
 4408              		.loc 10 241 24 view .LVU1083
 4409 020c BAF1770F 		cmp	r10, #119
 4410 0210 7FF63CAF 		bls	.L299
 4411 0214 B9F1030F 		cmp	r9, #3
 4412 0218 7FF438AF 		bne	.L299
 243:../../libdaisy/src/hid/midi.h ****                         running_status_        = ChannelMode;
 4413              		.loc 10 243 48 view .LVU1084
 4414 021c 0923     		movs	r3, #9
 247:../../libdaisy/src/hid/midi.h ****                     }
 4415              		.loc 10 247 59 view .LVU1085
 4416 021e AAF1780A 		sub	r10, r10, #120
ARM GAS  C:\Users\VINCIU~1\AppData\Local\Temp\ccNNq0o9.s 			page 134


 243:../../libdaisy/src/hid/midi.h ****                         running_status_        = ChannelMode;
 4417              		.loc 10 243 48 view .LVU1086
 4418 0222 2B72     		strb	r3, [r5, #8]
 244:../../libdaisy/src/hid/midi.h ****                         incoming_message_.cm_type
 4419              		.loc 10 244 48 view .LVU1087
 4420 0224 84F88834 		strb	r3, [r4, #1160]
 246:../../libdaisy/src/hid/midi.h ****                                 incoming_message_.data[0] - 120);
 4421              		.loc 10 246 29 view .LVU1088
 4422 0228 85F879A0 		strb	r10, [r5, #121]
 4423 022c 2EE7     		b	.L299
 4424              	.LVL363:
 4425              	.L319:
 272:../../libdaisy/src/hid/midi.h ****                     event_q_.Write(incoming_message_);
 4426              		.loc 10 272 29 view .LVU1089
 4427 022e 0023     		movs	r3, #0
 4428 0230 7422     		movs	r2, #116
 4429 0232 3A49     		ldr	r1, .L359+36
 4430 0234 38A8     		add	r0, sp, #224
 4431              	.LVL364:
 272:../../libdaisy/src/hid/midi.h ****                     event_q_.Write(incoming_message_);
 4432              		.loc 10 272 29 view .LVU1090
 4433 0236 2B71     		strb	r3, [r5, #4]
 4434              	.LVL365:
 272:../../libdaisy/src/hid/midi.h ****                     event_q_.Write(incoming_message_);
 4435              		.loc 10 272 29 view .LVU1091
 4436 0238 FFF7FEFF 		bl	memcpy
 4437              	.LVL366:
 4438              	.LBB891:
 4439              	.LBI891:
  44:../../libdaisy/src/util/ringbuffer.h ****     {
 4440              		.loc 15 44 17 is_stmt 1 view .LVU1092
 4441              	.L321:
 4442              	.LBB892:
  46:../../libdaisy/src/util/ringbuffer.h ****             ;
 4443              		.loc 15 46 24 view .LVU1093
 4444              	.LBB893:
 4445              	.LBI893:
  30:../../libdaisy/src/util/ringbuffer.h ****     {
 4446              		.loc 15 30 19 view .LVU1094
 4447              	.LBB894:
  32:../../libdaisy/src/util/ringbuffer.h ****     }
 4448              		.loc 15 32 17 is_stmt 0 view .LVU1095
 4449 023c D4F87C34 		ldr	r3, [r4, #1148]
  32:../../libdaisy/src/util/ringbuffer.h ****     }
 4450              		.loc 15 32 29 view .LVU1096
 4451 0240 D4F88024 		ldr	r2, [r4, #1152]
 4452              	.LVL367:
  32:../../libdaisy/src/util/ringbuffer.h ****     }
 4453              		.loc 15 32 40 view .LVU1097
 4454 0244 013B     		subs	r3, r3, #1
 4455 0246 9B1A     		subs	r3, r3, r2
  32:../../libdaisy/src/util/ringbuffer.h ****     }
 4456              		.loc 15 32 47 view .LVU1098
 4457 0248 DBB2     		uxtb	r3, r3
 4458              	.LBE894:
 4459              	.LBE893:
  46:../../libdaisy/src/util/ringbuffer.h ****             ;
ARM GAS  C:\Users\VINCIU~1\AppData\Local\Temp\ccNNq0o9.s 			page 135


 4460              		.loc 15 46 24 view .LVU1099
 4461 024a 002B     		cmp	r3, #0
 4462 024c F6D0     		beq	.L321
 4463              	.LVL368:
  46:../../libdaisy/src/util/ringbuffer.h ****             ;
 4464              		.loc 15 46 24 view .LVU1100
 4465 024e 7422     		movs	r2, #116
 4466 0250 38A9     		add	r1, sp, #224
 4467 0252 55A8     		add	r0, sp, #340
 4468 0254 FFF7FEFF 		bl	memcpy
 4469              	.LVL369:
 4470              	.LBB895:
 4471              	.LBI895:
  54:../../libdaisy/src/util/ringbuffer.h ****     {
 4472              		.loc 15 54 17 is_stmt 1 view .LVU1101
 4473              	.LBB896:
  56:../../libdaisy/src/util/ringbuffer.h ****         buffer_[w] = v;
 4474              		.loc 15 56 16 is_stmt 0 view .LVU1102
 4475 0258 D4F88094 		ldr	r9, [r4, #1152]
 4476              	.LVL370:
  57:../../libdaisy/src/util/ringbuffer.h ****         write_ptr_ = (w + 1) % size;
 4477              		.loc 15 57 9 view .LVU1103
 4478 025c 7422     		movs	r2, #116
 4479 025e 55A9     		add	r1, sp, #340
 4480 0260 02FB0950 		mla	r0, r2, r9, r5
  58:../../libdaisy/src/util/ringbuffer.h ****     }
 4481              		.loc 15 58 25 view .LVU1104
 4482 0264 09F10109 		add	r9, r9, #1
 4483              	.LVL371:
  57:../../libdaisy/src/util/ringbuffer.h ****         write_ptr_ = (w + 1) % size;
 4484              		.loc 15 57 9 view .LVU1105
 4485 0268 7C30     		adds	r0, r0, #124
 4486 026a FFF7FEFF 		bl	memcpy
 4487              	.LVL372:
  58:../../libdaisy/src/util/ringbuffer.h ****     }
 4488              		.loc 15 58 30 view .LVU1106
 4489 026e 5FFA89F3 		uxtb	r3, r9
  58:../../libdaisy/src/util/ringbuffer.h ****     }
 4490              		.loc 15 58 20 view .LVU1107
 4491 0272 C4F88034 		str	r3, [r4, #1152]
 4492              	.LVL373:
  58:../../libdaisy/src/util/ringbuffer.h ****     }
 4493              		.loc 15 58 20 view .LVU1108
 4494              	.LBE896:
 4495              	.LBE895:
 4496              	.LBE892:
 4497              	.LBE891:
 273:../../libdaisy/src/hid/midi.h ****                 }
 4498              		.loc 10 273 35 view .LVU1109
 4499 0276 09E7     		b	.L299
 4500              	.LVL374:
 4501              	.L306:
 217:../../libdaisy/src/hid/midi.h ****                     pstate_                   = ParserHasData0;
 4502              		.loc 10 217 54 view .LVU1110
 4503 0278 94F89A04 		ldrb	r0, [r4, #1178]	@ zero_extendqisi2
 4504              	.LVL375:
 218:../../libdaisy/src/hid/midi.h ****                 }
ARM GAS  C:\Users\VINCIU~1\AppData\Local\Temp\ccNNq0o9.s 			page 136


 4505              		.loc 10 218 47 view .LVU1111
 4506 027c 0223     		movs	r3, #2
 216:../../libdaisy/src/hid/midi.h ****                     incoming_message_.data[0] = byte & kDataByteMask;
 4507              		.loc 10 216 47 view .LVU1112
 4508 027e 94F88824 		ldrb	r2, [r4, #1160]	@ zero_extendqisi2
 217:../../libdaisy/src/hid/midi.h ****                     pstate_                   = ParserHasData0;
 4509              		.loc 10 217 54 view .LVU1113
 4510 0282 0AEA000A 		and	r10, r10, r0
 4511              	.LVL376:
 218:../../libdaisy/src/hid/midi.h ****                 }
 4512              		.loc 10 218 47 view .LVU1114
 4513 0286 2B71     		strb	r3, [r5, #4]
 216:../../libdaisy/src/hid/midi.h ****                     incoming_message_.data[0] = byte & kDataByteMask;
 4514              		.loc 10 216 47 view .LVU1115
 4515 0288 2A72     		strb	r2, [r5, #8]
 217:../../libdaisy/src/hid/midi.h ****                     pstate_                   = ParserHasData0;
 4516              		.loc 10 217 47 view .LVU1116
 4517 028a 85F810A0 		strb	r10, [r5, #16]
 4518 028e FDE6     		b	.L299
 4519              	.LVL377:
 4520              	.L357:
 259:../../libdaisy/src/hid/midi.h ****                     // At this point the message is valid, and we can add this MidiEvent to the que
 4521              		.loc 10 259 54 view .LVU1117
 4522 0290 94F89A34 		ldrb	r3, [r4, #1178]	@ zero_extendqisi2
 4523 0294 7422     		movs	r2, #116
 4524 0296 2149     		ldr	r1, .L359+36
 4525 0298 38A8     		add	r0, sp, #224
 4526              	.LVL378:
 259:../../libdaisy/src/hid/midi.h ****                     // At this point the message is valid, and we can add this MidiEvent to the que
 4527              		.loc 10 259 54 view .LVU1118
 4528 029a 0AEA030A 		and	r10, r10, r3
 4529              	.LVL379:
 259:../../libdaisy/src/hid/midi.h ****                     // At this point the message is valid, and we can add this MidiEvent to the que
 4530              		.loc 10 259 47 view .LVU1119
 4531 029e 85F811A0 		strb	r10, [r5, #17]
 4532              	.LVL380:
 259:../../libdaisy/src/hid/midi.h ****                     // At this point the message is valid, and we can add this MidiEvent to the que
 4533              		.loc 10 259 47 view .LVU1120
 4534 02a2 FFF7FEFF 		bl	memcpy
 4535              	.LVL381:
 4536              	.LBB897:
 4537              	.LBI897:
  44:../../libdaisy/src/util/ringbuffer.h ****     {
 4538              		.loc 15 44 17 is_stmt 1 view .LVU1121
 4539              	.L318:
 4540              	.LBB898:
  46:../../libdaisy/src/util/ringbuffer.h ****             ;
 4541              		.loc 15 46 24 view .LVU1122
 4542              	.LBB899:
 4543              	.LBI899:
  30:../../libdaisy/src/util/ringbuffer.h ****     {
 4544              		.loc 15 30 19 view .LVU1123
 4545              	.LBB900:
  32:../../libdaisy/src/util/ringbuffer.h ****     }
 4546              		.loc 15 32 17 is_stmt 0 view .LVU1124
 4547 02a6 D4F87C34 		ldr	r3, [r4, #1148]
  32:../../libdaisy/src/util/ringbuffer.h ****     }
ARM GAS  C:\Users\VINCIU~1\AppData\Local\Temp\ccNNq0o9.s 			page 137


 4548              		.loc 15 32 29 view .LVU1125
 4549 02aa D4F88024 		ldr	r2, [r4, #1152]
 4550              	.LVL382:
  32:../../libdaisy/src/util/ringbuffer.h ****     }
 4551              		.loc 15 32 40 view .LVU1126
 4552 02ae 013B     		subs	r3, r3, #1
 4553 02b0 9B1A     		subs	r3, r3, r2
  32:../../libdaisy/src/util/ringbuffer.h ****     }
 4554              		.loc 15 32 47 view .LVU1127
 4555 02b2 DBB2     		uxtb	r3, r3
 4556              	.LBE900:
 4557              	.LBE899:
  46:../../libdaisy/src/util/ringbuffer.h ****             ;
 4558              		.loc 15 46 24 view .LVU1128
 4559 02b4 002B     		cmp	r3, #0
 4560 02b6 F6D0     		beq	.L318
 4561              	.LVL383:
  46:../../libdaisy/src/util/ringbuffer.h ****             ;
 4562              		.loc 15 46 24 view .LVU1129
 4563 02b8 7422     		movs	r2, #116
 4564 02ba 38A9     		add	r1, sp, #224
 4565 02bc 55A8     		add	r0, sp, #340
 4566 02be FFF7FEFF 		bl	memcpy
 4567              	.LVL384:
 4568              	.LBB901:
 4569              	.LBI901:
  54:../../libdaisy/src/util/ringbuffer.h ****     {
 4570              		.loc 15 54 17 is_stmt 1 view .LVU1130
 4571              	.LBB902:
  56:../../libdaisy/src/util/ringbuffer.h ****         buffer_[w] = v;
 4572              		.loc 15 56 16 is_stmt 0 view .LVU1131
 4573 02c2 D4F88094 		ldr	r9, [r4, #1152]
 4574              	.LVL385:
  57:../../libdaisy/src/util/ringbuffer.h ****         write_ptr_ = (w + 1) % size;
 4575              		.loc 15 57 9 view .LVU1132
 4576 02c6 7422     		movs	r2, #116
 4577 02c8 55A9     		add	r1, sp, #340
 4578 02ca 02FB0950 		mla	r0, r2, r9, r5
  58:../../libdaisy/src/util/ringbuffer.h ****     }
 4579              		.loc 15 58 25 view .LVU1133
 4580 02ce 09F10109 		add	r9, r9, #1
 4581              	.LVL386:
  57:../../libdaisy/src/util/ringbuffer.h ****         write_ptr_ = (w + 1) % size;
 4582              		.loc 15 57 9 view .LVU1134
 4583 02d2 7C30     		adds	r0, r0, #124
 4584 02d4 FFF7FEFF 		bl	memcpy
 4585              	.LVL387:
  58:../../libdaisy/src/util/ringbuffer.h ****     }
 4586              		.loc 15 58 30 view .LVU1135
 4587 02d8 5FFA89F3 		uxtb	r3, r9
  58:../../libdaisy/src/util/ringbuffer.h ****     }
 4588              		.loc 15 58 20 view .LVU1136
 4589 02dc C4F88034 		str	r3, [r4, #1152]
 4590              	.LVL388:
  58:../../libdaisy/src/util/ringbuffer.h ****     }
 4591              		.loc 15 58 20 view .LVU1137
 4592              	.LBE902:
ARM GAS  C:\Users\VINCIU~1\AppData\Local\Temp\ccNNq0o9.s 			page 138


 4593              	.LBE901:
 4594              	.LBE898:
 4595              	.LBE897:
 4596 02e0 2EE7     		b	.L313
 4597              	.LVL389:
 4598              	.L356:
  58:../../libdaisy/src/util/ringbuffer.h ****     }
 4599              		.loc 15 58 20 view .LVU1138
 4600              	.LBE914:
 4601              	.LBE921:
 4602              	.LBB922:
 4603              	.LBB923:
  63:../../libdaisy/src/hid/midi.h ****     inline void    Tx(uint8_t* buff, size_t size) { uart_.PollTx(buff, size); }
 4604              		.loc 10 63 45 view .LVU1139
 4605 02e2 0B48     		ldr	r0, .L359+24
 4606              	.LBE923:
 4607              	.LBE922:
 123:../../libdaisy/src/hid/midi.h ****             transport_.FlushRx();
 4608              		.loc 10 123 21 view .LVU1140
 4609 02e4 2B71     		strb	r3, [r5, #4]
 4610              	.LVL390:
 4611              	.LBB925:
 4612              	.LBI922:
  63:../../libdaisy/src/hid/midi.h ****     inline void    Tx(uint8_t* buff, size_t size) { uart_.PollTx(buff, size); }
 4613              		.loc 10 63 20 is_stmt 1 view .LVU1141
 4614              	.LBB924:
  63:../../libdaisy/src/hid/midi.h ****     inline void    Tx(uint8_t* buff, size_t size) { uart_.PollTx(buff, size); }
 4615              		.loc 10 63 32 view .LVU1142
  63:../../libdaisy/src/hid/midi.h ****     inline void    Tx(uint8_t* buff, size_t size) { uart_.PollTx(buff, size); }
 4616              		.loc 10 63 45 is_stmt 0 view .LVU1143
 4617 02e6 FFF7FEFF 		bl	_ZN5daisy11UartHandler7FlushRxEv
 4618              	.LVL391:
  63:../../libdaisy/src/hid/midi.h ****     inline void    Tx(uint8_t* buff, size_t size) { uart_.PollTx(buff, size); }
 4619              		.loc 10 63 45 view .LVU1144
 4620              	.LBE924:
 4621              	.LBE925:
 4622              	.LBB926:
 4623              	.LBI926:
 105:../../libdaisy/src/hid/midi.h **** 
 4624              		.loc 10 105 10 is_stmt 1 view .LVU1145
 4625              	.LBB927:
 4626              	.LBB928:
 4627              	.LBI928:
  59:../../libdaisy/src/hid/midi.h ****     inline size_t  Readable() { return uart_.Readable(); }
 4628              		.loc 10 59 20 view .LVU1146
 4629              	.LBB929:
  59:../../libdaisy/src/hid/midi.h ****     inline size_t  Readable() { return uart_.Readable(); }
 4630              		.loc 10 59 32 view .LVU1147
  59:../../libdaisy/src/hid/midi.h ****     inline size_t  Readable() { return uart_.Readable(); }
 4631              		.loc 10 59 45 is_stmt 0 view .LVU1148
 4632 02ea 0948     		ldr	r0, .L359+24
 4633              	.LVL392:
  59:../../libdaisy/src/hid/midi.h ****     inline size_t  Readable() { return uart_.Readable(); }
 4634              		.loc 10 59 45 view .LVU1149
 4635 02ec FFF7FEFF 		bl	_ZN5daisy11UartHandler7StartRxEv
 4636              	.LVL393:
  59:../../libdaisy/src/hid/midi.h ****     inline size_t  Readable() { return uart_.Readable(); }
ARM GAS  C:\Users\VINCIU~1\AppData\Local\Temp\ccNNq0o9.s 			page 139


 4637              		.loc 10 59 45 view .LVU1150
 4638              	.LBE929:
 4639              	.LBE928:
 105:../../libdaisy/src/hid/midi.h **** 
 4640              		.loc 10 105 49 view .LVU1151
 4641 02f0 F6E6     		b	.L322
 4642              	.LVL394:
 4643              	.L315:
 105:../../libdaisy/src/hid/midi.h **** 
 4644              		.loc 10 105 49 view .LVU1152
 4645              	.LBE927:
 4646              	.LBE926:
 4647              	.LBB930:
 4648              	.LBB915:
 236:../../libdaisy/src/hid/midi.h ****                     }
 4649              		.loc 10 236 33 view .LVU1153
 4650 02f2 0223     		movs	r3, #2
 4651 02f4 2B71     		strb	r3, [r5, #4]
 4652 02f6 89E7     		b	.L317
 4653              	.L360:
 4654              		.align	2
 4655              	.L359:
 4656 02f8 00000000 		.word	.LANCHOR0
 4657 02fc 00000000 		.word	.LANCHOR1
 4658 0300 00000000 		.word	.LANCHOR2
 4659 0304 24000000 		.word	.LANCHOR2+36
 4660 0308 00000000 		.word	.LANCHOR3
 4661 030c 00000000 		.word	midi
 4662 0310 94740000 		.word	midi+29844
 4663 0314 00000000 		.word	_Z13AudioCallbackPKPKfPPfj
 4664 0318 00000000 		.word	.LANCHOR4
 4665 031c 08000000 		.word	midi+8
 4666              	.LVL395:
 4667              	.L311:
 203:../../libdaisy/src/hid/midi.h ****                                 {
 4668              		.loc 10 203 38 view .LVU1154
 4669 0320 10F0040F 		tst	r0, #4
 4670 0324 3FF4B2AE 		beq	.L299
 4671 0328 7422     		movs	r2, #116
 4672 032a 4146     		mov	r1, r8
 4673 032c 38A8     		add	r0, sp, #224
 4674              	.LVL396:
 205:../../libdaisy/src/hid/midi.h ****                                     event_q_.Write(incoming_message_);
 4675              		.loc 10 205 45 view .LVU1155
 4676 032e 85F804C0 		strb	ip, [r5, #4]
 4677              	.LVL397:
 205:../../libdaisy/src/hid/midi.h ****                                     event_q_.Write(incoming_message_);
 4678              		.loc 10 205 45 view .LVU1156
 4679 0332 FFF7FEFF 		bl	memcpy
 4680              	.LVL398:
 4681              	.LBB903:
 4682              	.LBI903:
  44:../../libdaisy/src/util/ringbuffer.h ****     {
 4683              		.loc 15 44 17 is_stmt 1 view .LVU1157
 4684              	.L312:
 4685              	.LBB904:
  46:../../libdaisy/src/util/ringbuffer.h ****             ;
ARM GAS  C:\Users\VINCIU~1\AppData\Local\Temp\ccNNq0o9.s 			page 140


 4686              		.loc 15 46 24 view .LVU1158
 4687              	.LBB905:
 4688              	.LBI905:
  30:../../libdaisy/src/util/ringbuffer.h ****     {
 4689              		.loc 15 30 19 view .LVU1159
 4690              	.LBB906:
  32:../../libdaisy/src/util/ringbuffer.h ****     }
 4691              		.loc 15 32 17 is_stmt 0 view .LVU1160
 4692 0336 D4F87C34 		ldr	r3, [r4, #1148]
  32:../../libdaisy/src/util/ringbuffer.h ****     }
 4693              		.loc 15 32 29 view .LVU1161
 4694 033a D4F88024 		ldr	r2, [r4, #1152]
 4695              	.LVL399:
  32:../../libdaisy/src/util/ringbuffer.h ****     }
 4696              		.loc 15 32 40 view .LVU1162
 4697 033e 013B     		subs	r3, r3, #1
 4698 0340 9B1A     		subs	r3, r3, r2
  32:../../libdaisy/src/util/ringbuffer.h ****     }
 4699              		.loc 15 32 47 view .LVU1163
 4700 0342 DBB2     		uxtb	r3, r3
 4701              	.LBE906:
 4702              	.LBE905:
  46:../../libdaisy/src/util/ringbuffer.h ****             ;
 4703              		.loc 15 46 24 view .LVU1164
 4704 0344 002B     		cmp	r3, #0
 4705 0346 F6D0     		beq	.L312
 4706              	.LVL400:
 4707              	.L354:
  46:../../libdaisy/src/util/ringbuffer.h ****             ;
 4708              		.loc 15 46 24 view .LVU1165
 4709 0348 7422     		movs	r2, #116
 4710 034a 38A9     		add	r1, sp, #224
 4711 034c 55A8     		add	r0, sp, #340
 4712 034e FFF7FEFF 		bl	memcpy
 4713              	.LVL401:
 4714              	.LBB907:
 4715              	.LBI907:
  54:../../libdaisy/src/util/ringbuffer.h ****     {
 4716              		.loc 15 54 17 is_stmt 1 view .LVU1166
 4717              	.LBB908:
  56:../../libdaisy/src/util/ringbuffer.h ****         buffer_[w] = v;
 4718              		.loc 15 56 16 is_stmt 0 view .LVU1167
 4719 0352 D4F88094 		ldr	r9, [r4, #1152]
 4720              	.LVL402:
  57:../../libdaisy/src/util/ringbuffer.h ****         write_ptr_ = (w + 1) % size;
 4721              		.loc 15 57 9 view .LVU1168
 4722 0356 7422     		movs	r2, #116
 4723 0358 55A9     		add	r1, sp, #340
 4724 035a 02FB0950 		mla	r0, r2, r9, r5
 4725 035e 7C30     		adds	r0, r0, #124
 4726 0360 FFF7FEFF 		bl	memcpy
 4727              	.LVL403:
  58:../../libdaisy/src/util/ringbuffer.h ****     }
 4728              		.loc 15 58 25 view .LVU1169
 4729 0364 09F10103 		add	r3, r9, #1
  58:../../libdaisy/src/util/ringbuffer.h ****     }
 4730              		.loc 15 58 30 view .LVU1170
ARM GAS  C:\Users\VINCIU~1\AppData\Local\Temp\ccNNq0o9.s 			page 141


 4731 0368 DBB2     		uxtb	r3, r3
  58:../../libdaisy/src/util/ringbuffer.h ****     }
 4732              		.loc 15 58 20 view .LVU1171
 4733 036a C4F88034 		str	r3, [r4, #1152]
 4734              	.LVL404:
  58:../../libdaisy/src/util/ringbuffer.h ****     }
 4735              		.loc 15 58 20 view .LVU1172
 4736              	.LBE908:
 4737              	.LBE907:
 4738              	.LBE904:
 4739              	.LBE903:
 4740 036e 8DE6     		b	.L299
 4741              	.LVL405:
 4742              	.L358:
 184:../../libdaisy/src/hid/midi.h **** 
 4743              		.loc 10 184 46 view .LVU1173
 4744 0370 94F89E14 		ldrb	r1, [r4, #1182]	@ zero_extendqisi2
 180:../../libdaisy/src/hid/midi.h ****                                 running_status_        = SystemRealTime;
 4745              		.loc 10 180 56 view .LVU1174
 4746 0374 4FF0080C 		mov	ip, #8
 4747 0378 7422     		movs	r2, #116
 187:../../libdaisy/src/hid/midi.h ****                                 event_q_.Write(incoming_message_);
 4748              		.loc 10 187 41 view .LVU1175
 4749 037a 2B71     		strb	r3, [r5, #4]
 4750              	.LVL406:
 184:../../libdaisy/src/hid/midi.h **** 
 4751              		.loc 10 184 46 view .LVU1176
 4752 037c 00EA010A 		and	r10, r0, r1
 4753 0380 4146     		mov	r1, r8
 4754 0382 38A8     		add	r0, sp, #224
 4755              	.LVL407:
 180:../../libdaisy/src/hid/midi.h ****                                 running_status_        = SystemRealTime;
 4756              		.loc 10 180 56 view .LVU1177
 4757 0384 85F808C0 		strb	ip, [r5, #8]
 181:../../libdaisy/src/hid/midi.h ****                                 incoming_message_.srt_type
 4758              		.loc 10 181 56 view .LVU1178
 4759 0388 84F888C4 		strb	ip, [r4, #1160]
 183:../../libdaisy/src/hid/midi.h ****                                         byte & kSystemRealTimeMask);
 4760              		.loc 10 183 37 view .LVU1179
 4761 038c 85F878A0 		strb	r10, [r5, #120]
 4762 0390 FFF7FEFF 		bl	memcpy
 4763              	.LVL408:
 4764              	.LBB909:
 4765              	.LBI909:
  44:../../libdaisy/src/util/ringbuffer.h ****     {
 4766              		.loc 15 44 17 is_stmt 1 view .LVU1180
 4767              	.L309:
 4768              	.LBB910:
  46:../../libdaisy/src/util/ringbuffer.h ****             ;
 4769              		.loc 15 46 24 view .LVU1181
 4770              	.LBB911:
 4771              	.LBI911:
  30:../../libdaisy/src/util/ringbuffer.h ****     {
 4772              		.loc 15 30 19 view .LVU1182
 4773              	.LBB912:
  32:../../libdaisy/src/util/ringbuffer.h ****     }
 4774              		.loc 15 32 17 is_stmt 0 view .LVU1183
ARM GAS  C:\Users\VINCIU~1\AppData\Local\Temp\ccNNq0o9.s 			page 142


 4775 0394 D4F87C34 		ldr	r3, [r4, #1148]
  32:../../libdaisy/src/util/ringbuffer.h ****     }
 4776              		.loc 15 32 29 view .LVU1184
 4777 0398 D4F88024 		ldr	r2, [r4, #1152]
 4778              	.LVL409:
  32:../../libdaisy/src/util/ringbuffer.h ****     }
 4779              		.loc 15 32 40 view .LVU1185
 4780 039c 013B     		subs	r3, r3, #1
 4781 039e 9B1A     		subs	r3, r3, r2
  32:../../libdaisy/src/util/ringbuffer.h ****     }
 4782              		.loc 15 32 47 view .LVU1186
 4783 03a0 DBB2     		uxtb	r3, r3
 4784              	.LBE912:
 4785              	.LBE911:
  46:../../libdaisy/src/util/ringbuffer.h ****             ;
 4786              		.loc 15 46 24 view .LVU1187
 4787 03a2 002B     		cmp	r3, #0
 4788 03a4 F6D0     		beq	.L309
 4789 03a6 CFE7     		b	.L354
 4790              	.LBE910:
 4791              	.LBE909:
 4792              	.LBE915:
 4793              	.LBE930:
 4794              	.LBE931:
 4795              	.LBE947:
 4796              		.cfi_endproc
 4797              	.LFE4042:
 4799              		.section	.text.startup._GLOBAL__sub_I_hw,"ax",%progbits
 4800              		.align	1
 4801              		.p2align 2,,3
 4802              		.syntax unified
 4803              		.thumb
 4804              		.thumb_func
 4805              		.fpu fpv5-d16
 4807              	_GLOBAL__sub_I_hw:
 4808              	.LFB4642:
  76:metamorphic_project.cpp ****         }
  77:metamorphic_project.cpp ****     }
  78:metamorphic_project.cpp **** }
 4809              		.loc 11 78 1 is_stmt 1 view -0
 4810              		.cfi_startproc
 4811              		@ args = 0, pretend = 0, frame = 0
 4812              		@ frame_needed = 0, uses_anonymous_args = 0
 4813              	.LBB997:
 4814              	.LBI997:
 4815              		.loc 11 78 1 view .LVU1189
 4816              	.LVL410:
 4817              	.LBB998:
 4818              	.LBB999:
 4819              	.LBI999:
  21:../../libdaisy/src/daisy_seed.h ****     ~DaisySeed() {}
 4820              		.loc 1 21 5 view .LVU1190
 4821              	.LBB1000:
 4822              	.LBB1001:
 4823              	.LBI1001:
  62:../../libdaisy/src/hid/audio.h ****     ~AudioHandle() {}
 4824              		.loc 5 62 5 view .LVU1191
ARM GAS  C:\Users\VINCIU~1\AppData\Local\Temp\ccNNq0o9.s 			page 143


 4825              	.LBE1001:
 4826              	.LBE1000:
 4827              	.LBE999:
 4828              	.LBE998:
 4829              	.LBE997:
 4830              		.loc 11 78 1 is_stmt 0 view .LVU1192
 4831 0000 70B5     		push	{r4, r5, r6, lr}
 4832              		.cfi_def_cfa_offset 16
 4833              		.cfi_offset 4, -16
 4834              		.cfi_offset 5, -12
 4835              		.cfi_offset 6, -8
 4836              		.cfi_offset 14, -4
 4837              	.LBB1089:
 4838              	.LBB1088:
 4839              	.LBB1016:
 4840              	.LBB1014:
 4841              	.LBB1006:
 4842              	.LBB1002:
 4843              	.LBB1003:
  62:../../libdaisy/src/hid/audio.h ****     ~AudioHandle() {}
 4844              		.loc 5 62 35 view .LVU1193
 4845 0002 1B48     		ldr	r0, .L363
 4846 0004 0024     		movs	r4, #0
 4847              	.LBE1003:
 4848              	.LBE1002:
 4849              	.LBE1006:
 4850              	.LBE1014:
 4851              	.LBE1016:
  14:metamorphic_project.cpp **** SynthOled                              display;
 4852              		.loc 11 14 40 view .LVU1194
 4853 0006 1B4A     		ldr	r2, .L363+4
 4854 0008 1B49     		ldr	r1, .L363+8
 4855              	.LBB1017:
 4856              	.LBB1015:
 4857              	.LBB1007:
 4858              	.LBB1005:
 4859              	.LBB1004:
  62:../../libdaisy/src/hid/audio.h ****     ~AudioHandle() {}
 4860              		.loc 5 62 35 view .LVU1195
 4861 000a 4461     		str	r4, [r0, #20]
 4862              	.LVL411:
  62:../../libdaisy/src/hid/audio.h ****     ~AudioHandle() {}
 4863              		.loc 5 62 35 view .LVU1196
 4864              	.LBE1004:
 4865              	.LBE1005:
 4866              	.LBE1007:
 4867              	.LBB1008:
 4868              	.LBI1008:
  84:../../libdaisy/src/per/adc.h ****     ~AdcHandle() {}
 4869              		.loc 4 84 5 is_stmt 1 view .LVU1197
  84:../../libdaisy/src/per/adc.h ****     ~AdcHandle() {}
 4870              		.loc 4 84 5 is_stmt 0 view .LVU1198
 4871              	.LBE1008:
 4872              	.LBB1009:
 4873              	.LBI1009:
 4874              		.file 16 "../../libdaisy/src/per/dac.h"
   1:../../libdaisy/src/per/dac.h **** #pragma once
ARM GAS  C:\Users\VINCIU~1\AppData\Local\Temp\ccNNq0o9.s 			page 144


   2:../../libdaisy/src/per/dac.h **** #ifndef DSY_DAC_H
   3:../../libdaisy/src/per/dac.h **** #define DSY_DAC_H
   4:../../libdaisy/src/per/dac.h **** 
   5:../../libdaisy/src/per/dac.h **** #include "daisy_core.h"
   6:../../libdaisy/src/per/dac.h **** 
   7:../../libdaisy/src/per/dac.h **** namespace daisy
   8:../../libdaisy/src/per/dac.h **** {
   9:../../libdaisy/src/per/dac.h **** /** DAC handle for Built-in DAC Peripheral 
  10:../../libdaisy/src/per/dac.h ****  ** 
  11:../../libdaisy/src/per/dac.h ****  ** For now only Normal Mode is supported,
  12:../../libdaisy/src/per/dac.h ****  ** Sample and hold mode provides reduced power consumption, but requires a bit more setup.
  13:../../libdaisy/src/per/dac.h ****  **
  14:../../libdaisy/src/per/dac.h ****  ** For now connecting the DAC through other internal periphearls is also not supported.
  15:../../libdaisy/src/per/dac.h ****  **
  16:../../libdaisy/src/per/dac.h ****  ** Since the DAC channels have dedicated pins we don't need to pass in a pin config like with
  17:../../libdaisy/src/per/dac.h ****  ** other modules. However, it is still important to not try to use the DAC pins for anything else.
  18:../../libdaisy/src/per/dac.h ****  ** DAC Channel 1 is on PA4, and DAC Channel 2 is on PA5
  19:../../libdaisy/src/per/dac.h ****  ***/
  20:../../libdaisy/src/per/dac.h **** class DacHandle
  21:../../libdaisy/src/per/dac.h **** {
  22:../../libdaisy/src/per/dac.h ****   public:
  23:../../libdaisy/src/per/dac.h ****     /** Return Values for the DacHandle class */
  24:../../libdaisy/src/per/dac.h ****     enum class Result
  25:../../libdaisy/src/per/dac.h ****     {
  26:../../libdaisy/src/per/dac.h ****         OK,
  27:../../libdaisy/src/per/dac.h ****         ERR,
  28:../../libdaisy/src/per/dac.h ****     };
  29:../../libdaisy/src/per/dac.h **** 
  30:../../libdaisy/src/per/dac.h ****     /** Selects which channel(s) will be configured for use. */
  31:../../libdaisy/src/per/dac.h ****     enum class Channel
  32:../../libdaisy/src/per/dac.h ****     {
  33:../../libdaisy/src/per/dac.h ****         ONE,
  34:../../libdaisy/src/per/dac.h ****         TWO,
  35:../../libdaisy/src/per/dac.h ****         BOTH,
  36:../../libdaisy/src/per/dac.h ****     };
  37:../../libdaisy/src/per/dac.h **** 
  38:../../libdaisy/src/per/dac.h ****     /** Sets the Mode for the DAC channels.
  39:../../libdaisy/src/per/dac.h ****      **
  40:../../libdaisy/src/per/dac.h ****      ** Polling mode uses the blocking mode to transmit a single value at a time.
  41:../../libdaisy/src/per/dac.h ****      **
  42:../../libdaisy/src/per/dac.h ****      ** DMA mode uses a buffer, and periodically transmits it triggering a 
  43:../../libdaisy/src/per/dac.h ****      ** callback to fill the buffer when it is ready for more samples.
  44:../../libdaisy/src/per/dac.h ****      ***/
  45:../../libdaisy/src/per/dac.h ****     enum class Mode
  46:../../libdaisy/src/per/dac.h ****     {
  47:../../libdaisy/src/per/dac.h ****         POLLING,
  48:../../libdaisy/src/per/dac.h ****         DMA,
  49:../../libdaisy/src/per/dac.h ****     };
  50:../../libdaisy/src/per/dac.h **** 
  51:../../libdaisy/src/per/dac.h ****     /** Sets the number of bits per sample transmitted out of the DAC.
  52:../../libdaisy/src/per/dac.h ****      ** The output range will be: 0V - VDDA
  53:../../libdaisy/src/per/dac.h ****      ** The resolution will be roughly: bitdepth / (VDDA - 0V) 
  54:../../libdaisy/src/per/dac.h ****      ***/
  55:../../libdaisy/src/per/dac.h ****     enum class BitDepth
  56:../../libdaisy/src/per/dac.h ****     {
  57:../../libdaisy/src/per/dac.h ****         BITS_8,
  58:../../libdaisy/src/per/dac.h ****         BITS_12
ARM GAS  C:\Users\VINCIU~1\AppData\Local\Temp\ccNNq0o9.s 			page 145


  59:../../libdaisy/src/per/dac.h ****     };
  60:../../libdaisy/src/per/dac.h **** 
  61:../../libdaisy/src/per/dac.h ****     /** Sets whether the DAC output is buffered for higher drive ability. */
  62:../../libdaisy/src/per/dac.h ****     enum class BufferState
  63:../../libdaisy/src/per/dac.h ****     {
  64:../../libdaisy/src/per/dac.h ****         ENABLED,
  65:../../libdaisy/src/per/dac.h ****         DISABLED,
  66:../../libdaisy/src/per/dac.h ****     };
  67:../../libdaisy/src/per/dac.h **** 
  68:../../libdaisy/src/per/dac.h ****     /** Configuration structure for initializing the DAC structure. */
  69:../../libdaisy/src/per/dac.h ****     struct Config
  70:../../libdaisy/src/per/dac.h ****     {
  71:../../libdaisy/src/per/dac.h ****         /** Target Samplerate in Hz used to configure the internal 
  72:../../libdaisy/src/per/dac.h ****          ** timebase for DMA mode. Does nothing in POLLING mode.
  73:../../libdaisy/src/per/dac.h ****          ** If the value is 0 at Init time this will default to 48000Hz 
  74:../../libdaisy/src/per/dac.h ****          ** otherwise the driver will attempt meet the target.*/
  75:../../libdaisy/src/per/dac.h ****         uint32_t target_samplerate;
  76:../../libdaisy/src/per/dac.h **** 
  77:../../libdaisy/src/per/dac.h ****         Channel     chn;
  78:../../libdaisy/src/per/dac.h ****         Mode        mode;
  79:../../libdaisy/src/per/dac.h ****         BitDepth    bitdepth;
  80:../../libdaisy/src/per/dac.h ****         BufferState buff_state;
  81:../../libdaisy/src/per/dac.h ****     };
  82:../../libdaisy/src/per/dac.h **** 
  83:../../libdaisy/src/per/dac.h ****     DacHandle() : pimpl_(nullptr) {}
 4875              		.loc 16 83 5 is_stmt 1 view .LVU1199
 4876              	.LBB1010:
 4877              	.LBB1011:
 4878              		.loc 16 83 33 is_stmt 0 view .LVU1200
 4879 000c 0462     		str	r4, [r0, #32]
 4880              	.LVL412:
 4881              		.loc 16 83 33 view .LVU1201
 4882              	.LBE1011:
 4883              	.LBE1010:
 4884              	.LBE1009:
 4885              	.LBB1012:
 4886              	.LBI1012:
  40:../../libdaisy/src/hid/usb.h **** 
 4887              		.loc 3 40 5 is_stmt 1 view .LVU1202
  40:../../libdaisy/src/hid/usb.h **** 
 4888              		.loc 3 40 5 is_stmt 0 view .LVU1203
 4889              	.LBE1012:
 4890              	.LBB1013:
 4891              	.LBI1013:
  58:../../libdaisy/src/sys/system.h ****     ~System() {}
 4892              		.loc 2 58 5 is_stmt 1 view .LVU1204
  58:../../libdaisy/src/sys/system.h ****     ~System() {}
 4893              		.loc 2 58 5 is_stmt 0 view .LVU1205
 4894              	.LBE1013:
 4895              	.LBE1015:
 4896              	.LBE1017:
  14:metamorphic_project.cpp **** SynthOled                              display;
 4897              		.loc 11 14 40 view .LVU1206
 4898 000e FFF7FEFF 		bl	__aeabi_atexit
 4899              	.LVL413:
 4900              	.LBB1018:
 4901              	.LBI1018:
ARM GAS  C:\Users\VINCIU~1\AppData\Local\Temp\ccNNq0o9.s 			page 146


  16:../../libdaisy/src/hid/disp/oled_display.h ****     virtual ~OledDisplay() {}
 4902              		.loc 7 16 5 is_stmt 1 view .LVU1207
 4903              	.LBB1019:
 4904              	.LBB1020:
 4905              	.LBB1021:
 4906              	.LBI1021:
 178:../../libdaisy/src/hid/disp/display.h ****     virtual ~OneBitGraphicsDisplayImpl() {}
 4907              		.loc 8 178 5 view .LVU1208
 4908              	.LBB1022:
 4909              	.LBI1022:
  21:../../libdaisy/src/hid/disp/display.h ****     virtual ~OneBitGraphicsDisplay() {}
 4910              		.loc 8 21 5 view .LVU1209
  21:../../libdaisy/src/hid/disp/display.h ****     virtual ~OneBitGraphicsDisplay() {}
 4911              		.loc 8 21 5 is_stmt 0 view .LVU1210
 4912              	.LBE1022:
 4913              	.LBE1021:
  16:../../libdaisy/src/hid/disp/oled_display.h ****     virtual ~OledDisplay() {}
 4914              		.loc 7 16 19 view .LVU1211
 4915 0012 1A4B     		ldr	r3, .L363+12
 4916 0014 1A48     		ldr	r0, .L363+16
 4917              	.LBE1020:
 4918              	.LBE1019:
 4919              	.LBE1018:
  15:metamorphic_project.cpp **** Menus                                  synthMenus;
 4920              		.loc 11 15 40 view .LVU1212
 4921 0016 1B49     		ldr	r1, .L363+20
 4922              	.LBB1035:
 4923              	.LBB1033:
 4924              	.LBB1031:
  16:../../libdaisy/src/hid/disp/oled_display.h ****     virtual ~OledDisplay() {}
 4925              		.loc 7 16 19 view .LVU1213
 4926 0018 0360     		str	r3, [r0]
 4927              	.LVL414:
 4928              	.LBB1023:
 4929              	.LBI1023:
 132:../../libdaisy/src/dev/oled_ssd130x.h **** {
 4930              		.loc 9 132 7 is_stmt 1 view .LVU1214
 4931              	.LBB1024:
 4932              	.LBI1024:
  60:../../libdaisy/src/dev/oled_ssd130x.h **** {
 4933              		.loc 9 60 7 view .LVU1215
 4934              	.LBB1025:
 4935              	.LBI1025:
 4936              		.file 17 "../../libdaisy/src/per/spi.h"
   1:../../libdaisy/src/per/spi.h **** #pragma once
   2:../../libdaisy/src/per/spi.h **** #ifndef DSY_SPI_H
   3:../../libdaisy/src/per/spi.h **** #define DSY_SPI_H
   4:../../libdaisy/src/per/spi.h **** 
   5:../../libdaisy/src/per/spi.h **** #include "daisy_core.h"
   6:../../libdaisy/src/per/spi.h **** 
   7:../../libdaisy/src/per/spi.h **** /* TODO:
   8:../../libdaisy/src/per/spi.h **** - Add documentation
   9:../../libdaisy/src/per/spi.h **** - Add reception
  10:../../libdaisy/src/per/spi.h **** - Add IT
  11:../../libdaisy/src/per/spi.h **** - Add DMA
  12:../../libdaisy/src/per/spi.h **** */
  13:../../libdaisy/src/per/spi.h **** 
ARM GAS  C:\Users\VINCIU~1\AppData\Local\Temp\ccNNq0o9.s 			page 147


  14:../../libdaisy/src/per/spi.h **** namespace daisy
  15:../../libdaisy/src/per/spi.h **** {
  16:../../libdaisy/src/per/spi.h **** /** @addtogroup serial
  17:../../libdaisy/src/per/spi.h **** @{
  18:../../libdaisy/src/per/spi.h **** */
  19:../../libdaisy/src/per/spi.h **** 
  20:../../libdaisy/src/per/spi.h **** /**  Handler for serial peripheral interface */
  21:../../libdaisy/src/per/spi.h **** class SpiHandle
  22:../../libdaisy/src/per/spi.h **** {
  23:../../libdaisy/src/per/spi.h ****   public:
  24:../../libdaisy/src/per/spi.h ****     struct Config
  25:../../libdaisy/src/per/spi.h ****     {
  26:../../libdaisy/src/per/spi.h ****         enum class Peripheral
  27:../../libdaisy/src/per/spi.h ****         {
  28:../../libdaisy/src/per/spi.h ****             SPI_1,
  29:../../libdaisy/src/per/spi.h ****             SPI_2,
  30:../../libdaisy/src/per/spi.h ****             SPI_3,
  31:../../libdaisy/src/per/spi.h ****             SPI_4,
  32:../../libdaisy/src/per/spi.h ****             SPI_5,
  33:../../libdaisy/src/per/spi.h ****             SPI_6,
  34:../../libdaisy/src/per/spi.h ****         };
  35:../../libdaisy/src/per/spi.h **** 
  36:../../libdaisy/src/per/spi.h ****         enum class Mode
  37:../../libdaisy/src/per/spi.h ****         {
  38:../../libdaisy/src/per/spi.h ****             MASTER,
  39:../../libdaisy/src/per/spi.h ****             SLAVE,
  40:../../libdaisy/src/per/spi.h ****         };
  41:../../libdaisy/src/per/spi.h **** 
  42:../../libdaisy/src/per/spi.h ****         enum class Direction
  43:../../libdaisy/src/per/spi.h ****         {
  44:../../libdaisy/src/per/spi.h ****             TWO_LINES,
  45:../../libdaisy/src/per/spi.h ****             TWO_LINES_TX_ONLY,
  46:../../libdaisy/src/per/spi.h ****             TWO_LINES_RX_ONLY,
  47:../../libdaisy/src/per/spi.h ****             ONE_LINE,
  48:../../libdaisy/src/per/spi.h ****         };
  49:../../libdaisy/src/per/spi.h **** 
  50:../../libdaisy/src/per/spi.h ****         enum class ClockPolarity
  51:../../libdaisy/src/per/spi.h ****         {
  52:../../libdaisy/src/per/spi.h ****             LOW,
  53:../../libdaisy/src/per/spi.h ****             HIGH,
  54:../../libdaisy/src/per/spi.h ****         };
  55:../../libdaisy/src/per/spi.h **** 
  56:../../libdaisy/src/per/spi.h ****         enum class ClockPhase
  57:../../libdaisy/src/per/spi.h ****         {
  58:../../libdaisy/src/per/spi.h ****             ONE_EDGE,
  59:../../libdaisy/src/per/spi.h ****             TWO_EDGE,
  60:../../libdaisy/src/per/spi.h ****         };
  61:../../libdaisy/src/per/spi.h **** 
  62:../../libdaisy/src/per/spi.h ****         enum class NSS
  63:../../libdaisy/src/per/spi.h ****         {
  64:../../libdaisy/src/per/spi.h ****             SOFT,
  65:../../libdaisy/src/per/spi.h ****             HARD_INPUT,
  66:../../libdaisy/src/per/spi.h ****             HARD_OUTPUT,
  67:../../libdaisy/src/per/spi.h ****         };
  68:../../libdaisy/src/per/spi.h **** 
  69:../../libdaisy/src/per/spi.h ****         enum class BaudPrescaler
  70:../../libdaisy/src/per/spi.h ****         {
ARM GAS  C:\Users\VINCIU~1\AppData\Local\Temp\ccNNq0o9.s 			page 148


  71:../../libdaisy/src/per/spi.h ****             PS_2,
  72:../../libdaisy/src/per/spi.h ****             PS_4,
  73:../../libdaisy/src/per/spi.h ****             PS_8,
  74:../../libdaisy/src/per/spi.h ****             PS_16,
  75:../../libdaisy/src/per/spi.h ****             PS_32,
  76:../../libdaisy/src/per/spi.h ****             PS_64,
  77:../../libdaisy/src/per/spi.h ****             PS_128,
  78:../../libdaisy/src/per/spi.h ****             PS_256,
  79:../../libdaisy/src/per/spi.h ****         };
  80:../../libdaisy/src/per/spi.h **** 
  81:../../libdaisy/src/per/spi.h ****         struct
  82:../../libdaisy/src/per/spi.h ****         {
  83:../../libdaisy/src/per/spi.h ****             dsy_gpio_pin sclk; /**< & */
  84:../../libdaisy/src/per/spi.h ****             dsy_gpio_pin miso; /**< & */
  85:../../libdaisy/src/per/spi.h ****             dsy_gpio_pin mosi; /**< & */
  86:../../libdaisy/src/per/spi.h ****             dsy_gpio_pin nss;  /**< & */
  87:../../libdaisy/src/per/spi.h ****         } pin_config;
  88:../../libdaisy/src/per/spi.h **** 
  89:../../libdaisy/src/per/spi.h ****         Peripheral    periph;
  90:../../libdaisy/src/per/spi.h ****         Mode          mode;
  91:../../libdaisy/src/per/spi.h ****         Direction     direction;
  92:../../libdaisy/src/per/spi.h ****         unsigned long datasize;
  93:../../libdaisy/src/per/spi.h ****         ClockPolarity clock_polarity;
  94:../../libdaisy/src/per/spi.h ****         ClockPhase    clock_phase;
  95:../../libdaisy/src/per/spi.h ****         NSS           nss;
  96:../../libdaisy/src/per/spi.h ****         BaudPrescaler baud_prescaler;
  97:../../libdaisy/src/per/spi.h ****     };
  98:../../libdaisy/src/per/spi.h **** 
  99:../../libdaisy/src/per/spi.h ****     SpiHandle() : pimpl_(nullptr) {}
 4937              		.loc 17 99 5 view .LVU1216
 4938              		.loc 17 99 5 is_stmt 0 view .LVU1217
 4939              	.LBE1025:
 4940              	.LBE1024:
 4941              	.LBE1023:
 4942              	.LBE1031:
 4943              	.LBE1033:
 4944              	.LBE1035:
  15:metamorphic_project.cpp **** Menus                                  synthMenus;
 4945              		.loc 11 15 40 view .LVU1218
 4946 001a 164A     		ldr	r2, .L363+4
 4947              	.LBB1036:
 4948              	.LBB1034:
 4949              	.LBB1032:
 4950              	.LBB1030:
 4951              	.LBB1029:
 4952              	.LBB1028:
 4953              	.LBB1026:
 4954              	.LBB1027:
 4955              		.loc 17 99 33 view .LVU1219
 4956 001c 8460     		str	r4, [r0, #8]
 4957              	.LBE1027:
 4958              	.LBE1026:
 4959              	.LBE1028:
 4960              	.LBE1029:
 4961              	.LBE1030:
 4962              	.LBE1032:
 4963              	.LBE1034:
ARM GAS  C:\Users\VINCIU~1\AppData\Local\Temp\ccNNq0o9.s 			page 149


 4964              	.LBE1036:
  15:metamorphic_project.cpp **** Menus                                  synthMenus;
 4965              		.loc 11 15 40 view .LVU1220
 4966 001e FFF7FEFF 		bl	__aeabi_atexit
 4967              	.LVL415:
 4968              	.LBB1037:
 4969              	.LBI1037:
  15:../../DaisySP/Source/Synthesis/oscillator.h ****     ~Oscillator() {}
 4970              		.loc 6 15 5 is_stmt 1 view .LVU1221
  15:../../DaisySP/Source/Synthesis/oscillator.h ****     ~Oscillator() {}
 4971              		.loc 6 15 5 is_stmt 0 view .LVU1222
 4972              	.LBE1037:
  17:metamorphic_project.cpp **** MidiHandler<MidiUartTransport>         midi;
 4973              		.loc 11 17 40 view .LVU1223
 4974 0022 144A     		ldr	r2, .L363+4
 4975 0024 1849     		ldr	r1, .L363+24
 4976 0026 1948     		ldr	r0, .L363+28
 4977 0028 FFF7FEFF 		bl	__aeabi_atexit
 4978              	.LVL416:
 4979              	.LBB1038:
 4980              	.LBI1038:
  81:../../libdaisy/src/hid/midi.h ****     ~MidiHandler() {}
 4981              		.loc 10 81 5 is_stmt 1 view .LVU1224
 4982              	.LBB1039:
 4983              	.LBB1040:
 4984              	.LBB1041:
 4985              	.LBI1041:
 4986              		.file 18 "../../libdaisy/src/per/uart.h"
   1:../../libdaisy/src/per/uart.h **** /* 
   2:../../libdaisy/src/per/uart.h **** TODO
   3:../../libdaisy/src/per/uart.h **** - Add flexible config for:
   4:../../libdaisy/src/per/uart.h ****   - data size, stop bits, parity, baud, etc.
   5:../../libdaisy/src/per/uart.h ****   - dma vs interrupt (or not).
   6:../../libdaisy/src/per/uart.h ****   - Error handling
   7:../../libdaisy/src/per/uart.h **** - Transmit function improvements.
   8:../../libdaisy/src/per/uart.h **** - Other UART Peripherals (currently only handles USART1 in UART mode.
   9:../../libdaisy/src/per/uart.h **** - Overflow handling, etc. for Rx Queue.
  10:../../libdaisy/src/per/uart.h **** */
  11:../../libdaisy/src/per/uart.h **** 
  12:../../libdaisy/src/per/uart.h **** #pragma once
  13:../../libdaisy/src/per/uart.h **** #ifndef DSY_UART_H
  14:../../libdaisy/src/per/uart.h **** #define DSY_UART_H /**< macro */
  15:../../libdaisy/src/per/uart.h **** #include "daisy_core.h"
  16:../../libdaisy/src/per/uart.h **** 
  17:../../libdaisy/src/per/uart.h **** 
  18:../../libdaisy/src/per/uart.h **** namespace daisy
  19:../../libdaisy/src/per/uart.h **** {
  20:../../libdaisy/src/per/uart.h **** /** @addtogroup serial
  21:../../libdaisy/src/per/uart.h ****     @{
  22:../../libdaisy/src/per/uart.h ****     */
  23:../../libdaisy/src/per/uart.h **** 
  24:../../libdaisy/src/per/uart.h **** /** 
  25:../../libdaisy/src/per/uart.h ****     Uart Peripheral
  26:../../libdaisy/src/per/uart.h ****     @author shensley
  27:../../libdaisy/src/per/uart.h ****     @date March 2020
  28:../../libdaisy/src/per/uart.h ****     */
  29:../../libdaisy/src/per/uart.h **** class UartHandler
ARM GAS  C:\Users\VINCIU~1\AppData\Local\Temp\ccNNq0o9.s 			page 150


  30:../../libdaisy/src/per/uart.h **** {
  31:../../libdaisy/src/per/uart.h ****   public:
  32:../../libdaisy/src/per/uart.h ****     struct Config
  33:../../libdaisy/src/per/uart.h ****     {
  34:../../libdaisy/src/per/uart.h ****         enum class Peripheral
  35:../../libdaisy/src/per/uart.h ****         {
  36:../../libdaisy/src/per/uart.h ****             USART_1,
  37:../../libdaisy/src/per/uart.h ****             USART_2,
  38:../../libdaisy/src/per/uart.h ****             USART_3,
  39:../../libdaisy/src/per/uart.h ****             UART_4,
  40:../../libdaisy/src/per/uart.h ****             UART_5,
  41:../../libdaisy/src/per/uart.h ****             USART_6,
  42:../../libdaisy/src/per/uart.h ****             UART_7,
  43:../../libdaisy/src/per/uart.h ****             UART_8,
  44:../../libdaisy/src/per/uart.h ****             LPUART_1,
  45:../../libdaisy/src/per/uart.h ****         };
  46:../../libdaisy/src/per/uart.h **** 
  47:../../libdaisy/src/per/uart.h ****         enum class StopBits
  48:../../libdaisy/src/per/uart.h ****         {
  49:../../libdaisy/src/per/uart.h ****             BITS_0_5,
  50:../../libdaisy/src/per/uart.h ****             BITS_1,
  51:../../libdaisy/src/per/uart.h ****             BITS_1_5,
  52:../../libdaisy/src/per/uart.h ****             BITS_2,
  53:../../libdaisy/src/per/uart.h ****         };
  54:../../libdaisy/src/per/uart.h **** 
  55:../../libdaisy/src/per/uart.h ****         enum class Parity
  56:../../libdaisy/src/per/uart.h ****         {
  57:../../libdaisy/src/per/uart.h ****             NONE,
  58:../../libdaisy/src/per/uart.h ****             EVEN,
  59:../../libdaisy/src/per/uart.h ****             ODD,
  60:../../libdaisy/src/per/uart.h ****         };
  61:../../libdaisy/src/per/uart.h **** 
  62:../../libdaisy/src/per/uart.h ****         enum class Mode
  63:../../libdaisy/src/per/uart.h ****         {
  64:../../libdaisy/src/per/uart.h ****             RX,
  65:../../libdaisy/src/per/uart.h ****             TX,
  66:../../libdaisy/src/per/uart.h ****             TX_RX,
  67:../../libdaisy/src/per/uart.h ****         };
  68:../../libdaisy/src/per/uart.h **** 
  69:../../libdaisy/src/per/uart.h ****         enum class WordLength
  70:../../libdaisy/src/per/uart.h ****         {
  71:../../libdaisy/src/per/uart.h ****             BITS_7,
  72:../../libdaisy/src/per/uart.h ****             BITS_8,
  73:../../libdaisy/src/per/uart.h ****             BITS_9,
  74:../../libdaisy/src/per/uart.h ****         };
  75:../../libdaisy/src/per/uart.h **** 
  76:../../libdaisy/src/per/uart.h ****         struct
  77:../../libdaisy/src/per/uart.h ****         {
  78:../../libdaisy/src/per/uart.h ****             dsy_gpio_pin tx; /**< & */
  79:../../libdaisy/src/per/uart.h ****             dsy_gpio_pin rx; /**< & */
  80:../../libdaisy/src/per/uart.h ****         } pin_config;        /**< & */
  81:../../libdaisy/src/per/uart.h **** 
  82:../../libdaisy/src/per/uart.h ****         Peripheral periph;
  83:../../libdaisy/src/per/uart.h ****         StopBits   stopbits;
  84:../../libdaisy/src/per/uart.h ****         Parity     parity;
  85:../../libdaisy/src/per/uart.h ****         Mode       mode;
  86:../../libdaisy/src/per/uart.h ****         WordLength wordlength;
ARM GAS  C:\Users\VINCIU~1\AppData\Local\Temp\ccNNq0o9.s 			page 151


  87:../../libdaisy/src/per/uart.h ****         uint32_t   baudrate;
  88:../../libdaisy/src/per/uart.h ****     };
  89:../../libdaisy/src/per/uart.h **** 
  90:../../libdaisy/src/per/uart.h **** 
  91:../../libdaisy/src/per/uart.h ****     UartHandler() : pimpl_(nullptr) {}
 4987              		.loc 18 91 5 view .LVU1225
 4988              	.LBB1042:
 4989              	.LBB1043:
 4990              		.loc 18 91 35 is_stmt 0 view .LVU1226
 4991 002c 1848     		ldr	r0, .L363+32
 4992              	.LBE1043:
 4993              	.LBE1042:
 4994              	.LBE1041:
 4995              	.LBB1046:
 4996              	.LBB1047:
 4997              	.LBB1048:
 4998              	.LBB1049:
  35:../../libdaisy/src/hid/midi.h ****             tx     = {DSY_GPIOB, 6};
 4999              		.loc 10 35 20 view .LVU1227
 5000 002e 1949     		ldr	r1, .L363+36
  34:../../libdaisy/src/hid/midi.h ****             rx     = {DSY_GPIOB, 7};
 5001              		.loc 10 34 20 view .LVU1228
 5002 0030 00F5E043 		add	r3, r0, #28672
 5003              	.LBE1049:
 5004              	.LBE1048:
 5005              	.LBE1047:
 5006              	.LBE1046:
 5007              	.LBE1040:
 5008              	.LBE1039:
 5009              	.LBE1038:
  18:metamorphic_project.cpp **** MidiHandler<MidiUartTransport>::Config midi_cfg;
 5010              		.loc 11 18 40 view .LVU1229
 5011 0034 0F4A     		ldr	r2, .L363+4
 5012              	.LBB1082:
 5013              	.LBB1080:
 5014              	.LBB1078:
 5015              	.LBB1065:
 5016              	.LBB1060:
 5017              	.LBB1055:
 5018              	.LBB1050:
  35:../../libdaisy/src/hid/midi.h ****             tx     = {DSY_GPIOB, 6};
 5019              		.loc 10 35 20 view .LVU1230
 5020 0036 0E88     		ldrh	r6, [r1]
  36:../../libdaisy/src/hid/midi.h ****         }
 5021              		.loc 10 36 20 view .LVU1231
 5022 0038 8D88     		ldrh	r5, [r1, #4]
 5023              	.LBE1050:
 5024              	.LBE1055:
 5025              	.LBE1060:
 5026              	.LBE1065:
  81:../../libdaisy/src/hid/midi.h ****     ~MidiHandler() {}
 5027              		.loc 10 81 19 view .LVU1232
 5028 003a 1749     		ldr	r1, .L363+40
 5029              	.LBB1066:
 5030              	.LBB1061:
 5031              	.LBB1056:
 5032              	.LBB1051:
ARM GAS  C:\Users\VINCIU~1\AppData\Local\Temp\ccNNq0o9.s 			page 152


  34:../../libdaisy/src/hid/midi.h ****             rx     = {DSY_GPIOB, 7};
 5033              		.loc 10 34 20 view .LVU1233
 5034 003c C3F88C44 		str	r4, [r3, #1164]
 5035              	.LBE1051:
 5036              	.LBE1056:
 5037              	.LBE1061:
 5038              	.LBE1066:
  81:../../libdaisy/src/hid/midi.h ****     ~MidiHandler() {}
 5039              		.loc 10 81 19 view .LVU1234
 5040 0040 C3F89814 		str	r1, [r3, #1176]
 5041 0044 4FF60F01 		movw	r1, #63503
 5042              	.LBB1067:
 5043              	.LBB1068:
 5044              	.LBB1069:
 5045              	.LBB1070:
 5046              		.loc 18 91 35 view .LVU1235
 5047 0048 C3F89444 		str	r4, [r3, #1172]
 5048              	.LBE1070:
 5049              	.LBE1069:
 5050              	.LBE1068:
 5051              	.LBE1067:
  81:../../libdaisy/src/hid/midi.h ****     ~MidiHandler() {}
 5052              		.loc 10 81 19 view .LVU1236
 5053 004c A3F89C14 		strh	r1, [r3, #1180]	@ movhi
 5054 0050 0721     		movs	r1, #7
 5055              	.LBB1072:
 5056              	.LBB1062:
 5057              	.LBB1057:
 5058              	.LBB1052:
  35:../../libdaisy/src/hid/midi.h ****             tx     = {DSY_GPIOB, 6};
 5059              		.loc 10 35 20 view .LVU1237
 5060 0052 A3F89064 		strh	r6, [r3, #1168]	@ movhi
 5061              	.LBE1052:
 5062              	.LBE1057:
 5063              	.LBE1062:
 5064              	.LBE1072:
  81:../../libdaisy/src/hid/midi.h ****     ~MidiHandler() {}
 5065              		.loc 10 81 19 view .LVU1238
 5066 0056 83F89E14 		strb	r1, [r3, #1182]
 5067              	.LBB1073:
 5068              	.LBB1063:
 5069              	.LBB1058:
 5070              	.LBB1053:
  36:../../libdaisy/src/hid/midi.h ****         }
 5071              		.loc 10 36 20 view .LVU1239
 5072 005a A3F89254 		strh	r5, [r3, #1170]	@ movhi
 5073              	.LBE1053:
 5074              	.LBE1058:
 5075              	.LBE1063:
 5076              	.LBE1073:
 5077              	.LBE1078:
 5078              	.LBE1080:
 5079              	.LBE1082:
  18:metamorphic_project.cpp **** MidiHandler<MidiUartTransport>::Config midi_cfg;
 5080              		.loc 11 18 40 view .LVU1240
 5081 005e 0F49     		ldr	r1, .L363+44
 5082              	.LBB1083:
ARM GAS  C:\Users\VINCIU~1\AppData\Local\Temp\ccNNq0o9.s 			page 153


 5083              	.LBB1081:
 5084              	.LBB1079:
 5085              	.LBB1074:
 5086              	.LBB1045:
 5087              	.LBB1044:
 5088              		.loc 18 91 35 view .LVU1241
 5089 0060 0460     		str	r4, [r0]
 5090              	.LVL417:
 5091              		.loc 18 91 35 view .LVU1242
 5092              	.LBE1044:
 5093              	.LBE1045:
 5094              	.LBE1074:
 5095              	.LBB1075:
 5096              	.LBI1075:
  21:../../libdaisy/src/util/ringbuffer.h **** 
 5097              		.loc 15 21 5 is_stmt 1 view .LVU1243
  21:../../libdaisy/src/util/ringbuffer.h **** 
 5098              		.loc 15 21 5 is_stmt 0 view .LVU1244
 5099              	.LBE1075:
 5100              	.LBB1076:
 5101              	.LBI1046:
  84:../../libdaisy/src/hid/midi.h ****     {
 5102              		.loc 10 84 12 is_stmt 1 view .LVU1245
 5103              	.LBB1064:
 5104              	.LBI1047:
  32:../../libdaisy/src/hid/midi.h ****         {
 5105              		.loc 10 32 9 view .LVU1246
 5106              	.LBB1059:
 5107              	.LBB1054:
  34:../../libdaisy/src/hid/midi.h ****             rx     = {DSY_GPIOB, 7};
 5108              		.loc 10 34 13 view .LVU1247
  35:../../libdaisy/src/hid/midi.h ****             tx     = {DSY_GPIOB, 6};
 5109              		.loc 10 35 13 view .LVU1248
  36:../../libdaisy/src/hid/midi.h ****         }
 5110              		.loc 10 36 13 view .LVU1249
  36:../../libdaisy/src/hid/midi.h ****         }
 5111              		.loc 10 36 13 is_stmt 0 view .LVU1250
 5112              	.LBE1054:
 5113              	.LBE1059:
 5114              	.LBE1064:
 5115              	.LBE1076:
 5116              	.LBB1077:
 5117              	.LBI1067:
  23:../../libdaisy/src/hid/midi.h ****     ~MidiUartTransport() {}
 5118              		.loc 10 23 5 is_stmt 1 view .LVU1251
 5119              	.LBB1071:
 5120              	.LBI1068:
 5121              		.loc 18 91 5 view .LVU1252
 5122              		.loc 18 91 5 is_stmt 0 view .LVU1253
 5123              	.LBE1071:
 5124              	.LBE1077:
 5125              	.LBE1079:
 5126              	.LBE1081:
 5127              	.LBE1083:
  18:metamorphic_project.cpp **** MidiHandler<MidiUartTransport>::Config midi_cfg;
 5128              		.loc 11 18 40 view .LVU1254
 5129 0062 FFF7FEFF 		bl	__aeabi_atexit
ARM GAS  C:\Users\VINCIU~1\AppData\Local\Temp\ccNNq0o9.s 			page 154


 5130              	.LVL418:
 5131              	.LBB1084:
 5132              	.LBI1084:
  84:../../libdaisy/src/hid/midi.h ****     {
 5133              		.loc 10 84 12 is_stmt 1 view .LVU1255
 5134              	.LBB1085:
 5135              	.LBI1085:
  32:../../libdaisy/src/hid/midi.h ****         {
 5136              		.loc 10 32 9 view .LVU1256
 5137              	.LBB1086:
 5138              	.LBB1087:
  34:../../libdaisy/src/hid/midi.h ****             rx     = {DSY_GPIOB, 7};
 5139              		.loc 10 34 13 view .LVU1257
  34:../../libdaisy/src/hid/midi.h ****             rx     = {DSY_GPIOB, 7};
 5140              		.loc 10 34 20 is_stmt 0 view .LVU1258
 5141 0066 0E4B     		ldr	r3, .L363+48
 5142 0068 1C60     		str	r4, [r3]
  35:../../libdaisy/src/hid/midi.h ****             tx     = {DSY_GPIOB, 6};
 5143              		.loc 10 35 13 is_stmt 1 view .LVU1259
  35:../../libdaisy/src/hid/midi.h ****             tx     = {DSY_GPIOB, 6};
 5144              		.loc 10 35 20 is_stmt 0 view .LVU1260
 5145 006a 9E80     		strh	r6, [r3, #4]	@ movhi
  36:../../libdaisy/src/hid/midi.h ****         }
 5146              		.loc 10 36 13 is_stmt 1 view .LVU1261
  36:../../libdaisy/src/hid/midi.h ****         }
 5147              		.loc 10 36 20 is_stmt 0 view .LVU1262
 5148 006c DD80     		strh	r5, [r3, #6]	@ movhi
 5149              	.LVL419:
  36:../../libdaisy/src/hid/midi.h ****         }
 5150              		.loc 10 36 20 view .LVU1263
 5151              	.LBE1087:
 5152              	.LBE1086:
 5153              	.LBE1085:
 5154              	.LBE1084:
 5155              	.LBE1088:
 5156              	.LBE1089:
 5157              		.loc 11 78 1 view .LVU1264
 5158 006e 70BD     		pop	{r4, r5, r6, pc}
 5159              	.L364:
 5160              		.align	2
 5161              	.L363:
 5162 0070 00000000 		.word	.LANCHOR2
 5163 0074 00000000 		.word	__dso_handle
 5164 0078 00000000 		.word	_ZN5daisy9DaisySeedD1Ev
 5165 007c 08000000 		.word	_ZTVN5daisy11OledDisplayINS_13SSD130xDriverILj128ELj64ENS_24SSD130x4WireSpiTransportEEEEE+8
 5166 0080 00000000 		.word	.LANCHOR1
 5167 0084 00000000 		.word	_ZN5daisy11OledDisplayINS_13SSD130xDriverILj128ELj64ENS_24SSD130x4WireSpiTransportEEEED1Ev
 5168 0088 00000000 		.word	_ZN7daisysp10OscillatorD1Ev
 5169 008c 00000000 		.word	.LANCHOR0
 5170 0090 00000000 		.word	midi
 5171 0094 00000000 		.word	.LANCHOR5
 5172 0098 80707FF0 		.word	-260083584
 5173 009c 00000000 		.word	_ZN5daisy11MidiHandlerINS_17MidiUartTransportEED1Ev
 5174 00a0 00000000 		.word	.LANCHOR3
 5175              		.cfi_endproc
 5176              	.LFE4642:
 5178              		.section	.init_array,"aw",%init_array
ARM GAS  C:\Users\VINCIU~1\AppData\Local\Temp\ccNNq0o9.s 			page 155


 5179              		.align	2
 5180 0000 00000000 		.word	_GLOBAL__sub_I_hw(target1)
 5181              		.weak	_ZTSN5daisy21OneBitGraphicsDisplayE
 5182              		.section	.rodata._ZTSN5daisy21OneBitGraphicsDisplayE,"aG",%progbits,_ZTSN5daisy21OneBitGraphicsDis
 5183              		.align	2
 5186              	_ZTSN5daisy21OneBitGraphicsDisplayE:
 5187 0000 4E356461 		.ascii	"N5daisy21OneBitGraphicsDisplayE\000"
 5187      69737932 
 5187      314F6E65 
 5187      42697447 
 5187      72617068 
 5188              		.weak	_ZTIN5daisy21OneBitGraphicsDisplayE
 5189              		.section	.rodata._ZTIN5daisy21OneBitGraphicsDisplayE,"aG",%progbits,_ZTIN5daisy21OneBitGraphicsDis
 5190              		.align	2
 5193              	_ZTIN5daisy21OneBitGraphicsDisplayE:
 5194 0000 08000000 		.word	_ZTVN10__cxxabiv117__class_type_infoE+8
 5195 0004 00000000 		.word	_ZTSN5daisy21OneBitGraphicsDisplayE
 5196              		.weak	_ZTSN5daisy25OneBitGraphicsDisplayImplINS_11OledDisplayINS_13SSD130xDriverILj128ELj64ENS_24S
 5197              		.section	.rodata._ZTSN5daisy25OneBitGraphicsDisplayImplINS_11OledDisplayINS_13SSD130xDriverILj128E
 5198              		.align	2
 5201              	_ZTSN5daisy25OneBitGraphicsDisplayImplINS_11OledDisplayINS_13SSD130xDriverILj128ELj64ENS_24SSD130x4
 5202 0000 4E356461 		.ascii	"N5daisy25OneBitGraphicsDisplayImplINS_11OledDisplay"
 5202      69737932 
 5202      354F6E65 
 5202      42697447 
 5202      72617068 
 5203 0033 494E535F 		.ascii	"INS_13SSD130xDriverILj128ELj64ENS_24SSD130x4WireSpi"
 5203      31335353 
 5203      44313330 
 5203      78447269 
 5203      76657249 
 5204 0066 5472616E 		.ascii	"TransportEEEEEEE\000"
 5204      73706F72 
 5204      74454545 
 5204      45454545 
 5204      00
 5205              		.weak	_ZTIN5daisy25OneBitGraphicsDisplayImplINS_11OledDisplayINS_13SSD130xDriverILj128ELj64ENS_24S
 5206              		.section	.rodata._ZTIN5daisy25OneBitGraphicsDisplayImplINS_11OledDisplayINS_13SSD130xDriverILj128E
 5207              		.align	2
 5210              	_ZTIN5daisy25OneBitGraphicsDisplayImplINS_11OledDisplayINS_13SSD130xDriverILj128ELj64ENS_24SSD130x4
 5211 0000 08000000 		.word	_ZTVN10__cxxabiv120__si_class_type_infoE+8
 5212 0004 00000000 		.word	_ZTSN5daisy25OneBitGraphicsDisplayImplINS_11OledDisplayINS_13SSD130xDriverILj128ELj64ENS_24S
 5213 0008 00000000 		.word	_ZTIN5daisy21OneBitGraphicsDisplayE
 5214              		.weak	_ZTSN5daisy11OledDisplayINS_13SSD130xDriverILj128ELj64ENS_24SSD130x4WireSpiTransportEEEEE
 5215              		.section	.rodata._ZTSN5daisy11OledDisplayINS_13SSD130xDriverILj128ELj64ENS_24SSD130x4WireSpiTransp
 5216              		.align	2
 5219              	_ZTSN5daisy11OledDisplayINS_13SSD130xDriverILj128ELj64ENS_24SSD130x4WireSpiTransportEEEEE:
 5220 0000 4E356461 		.ascii	"N5daisy11OledDisplayINS_13SSD130xDriverILj128ELj64E"
 5220      69737931 
 5220      314F6C65 
 5220      64446973 
 5220      706C6179 
 5221 0033 4E535F32 		.ascii	"NS_24SSD130x4WireSpiTransportEEEEE\000"
 5221      34535344 
 5221      31333078 
 5221      34576972 
 5221      65537069 
ARM GAS  C:\Users\VINCIU~1\AppData\Local\Temp\ccNNq0o9.s 			page 156


 5222              		.weak	_ZTIN5daisy11OledDisplayINS_13SSD130xDriverILj128ELj64ENS_24SSD130x4WireSpiTransportEEEEE
 5223              		.section	.rodata._ZTIN5daisy11OledDisplayINS_13SSD130xDriverILj128ELj64ENS_24SSD130x4WireSpiTransp
 5224              		.align	2
 5227              	_ZTIN5daisy11OledDisplayINS_13SSD130xDriverILj128ELj64ENS_24SSD130x4WireSpiTransportEEEEE:
 5228 0000 08000000 		.word	_ZTVN10__cxxabiv120__si_class_type_infoE+8
 5229 0004 00000000 		.word	_ZTSN5daisy11OledDisplayINS_13SSD130xDriverILj128ELj64ENS_24SSD130x4WireSpiTransportEEEEE
 5230 0008 00000000 		.word	_ZTIN5daisy25OneBitGraphicsDisplayImplINS_11OledDisplayINS_13SSD130xDriverILj128ELj64ENS_24S
 5231              		.weak	_ZTVN5daisy11OledDisplayINS_13SSD130xDriverILj128ELj64ENS_24SSD130x4WireSpiTransportEEEEE
 5232              		.section	.rodata._ZTVN5daisy11OledDisplayINS_13SSD130xDriverILj128ELj64ENS_24SSD130x4WireSpiTransp
 5233              		.align	2
 5236              	_ZTVN5daisy11OledDisplayINS_13SSD130xDriverILj128ELj64ENS_24SSD130x4WireSpiTransportEEEEE:
 5237 0000 00000000 		.word	0
 5238 0004 00000000 		.word	_ZTIN5daisy11OledDisplayINS_13SSD130xDriverILj128ELj64ENS_24SSD130x4WireSpiTransportEEEEE
 5239 0008 00000000 		.word	_ZN5daisy11OledDisplayINS_13SSD130xDriverILj128ELj64ENS_24SSD130x4WireSpiTransportEEEED1Ev
 5240 000c 00000000 		.word	_ZN5daisy11OledDisplayINS_13SSD130xDriverILj128ELj64ENS_24SSD130x4WireSpiTransportEEEED0Ev
 5241 0010 00000000 		.word	_ZNK5daisy11OledDisplayINS_13SSD130xDriverILj128ELj64ENS_24SSD130x4WireSpiTransportEEEE6Heig
 5242 0014 00000000 		.word	_ZNK5daisy11OledDisplayINS_13SSD130xDriverILj128ELj64ENS_24SSD130x4WireSpiTransportEEEE5Widt
 5243 0018 00000000 		.word	_ZN5daisy11OledDisplayINS_13SSD130xDriverILj128ELj64ENS_24SSD130x4WireSpiTransportEEEE4FillE
 5244 001c 00000000 		.word	_ZN5daisy11OledDisplayINS_13SSD130xDriverILj128ELj64ENS_24SSD130x4WireSpiTransportEEEE9DrawP
 5245 0020 00000000 		.word	_ZN5daisy25OneBitGraphicsDisplayImplINS_11OledDisplayINS_13SSD130xDriverILj128ELj64ENS_24SSD
 5246 0024 00000000 		.word	_ZN5daisy25OneBitGraphicsDisplayImplINS_11OledDisplayINS_13SSD130xDriverILj128ELj64ENS_24SSD
 5247 0028 00000000 		.word	_ZN5daisy25OneBitGraphicsDisplayImplINS_11OledDisplayINS_13SSD130xDriverILj128ELj64ENS_24SSD
 5248 002c 00000000 		.word	_ZN5daisy25OneBitGraphicsDisplayImplINS_11OledDisplayINS_13SSD130xDriverILj128ELj64ENS_24SSD
 5249 0030 00000000 		.word	_ZN5daisy25OneBitGraphicsDisplayImplINS_11OledDisplayINS_13SSD130xDriverILj128ELj64ENS_24SSD
 5250 0034 00000000 		.word	_ZN5daisy11OledDisplayINS_13SSD130xDriverILj128ELj64ENS_24SSD130x4WireSpiTransportEEEE6Updat
 5251              		.global	midi_cfg
 5252              		.global	midi
 5253              		.global	osc
 5254              		.global	synthMenus
 5255              		.global	display
 5256              		.global	hw
 5257              		.section	.rodata
 5258              		.align	2
 5259              		.set	.LANCHOR5,. + 0
 5260              	.LC0:
 5261 0000 01       		.byte	1
 5262 0001 07       		.byte	7
 5263 0002 0000     		.space	2
 5264              	.LC1:
 5265 0004 01       		.byte	1
 5266 0005 06       		.byte	6
 5267              		.section	.bss.display,"aw",%nobits
 5268              		.align	2
 5269              		.set	.LANCHOR1,. + 0
 5272              	display:
 5273 0000 00000000 		.space	1044
 5273      00000000 
 5273      00000000 
 5273      00000000 
 5273      00000000 
 5274              		.section	.bss.hw,"aw",%nobits
 5275              		.align	2
 5276              		.set	.LANCHOR2,. + 0
 5279              	hw:
 5280 0000 00000000 		.space	60
 5280      00000000 
 5280      00000000 
ARM GAS  C:\Users\VINCIU~1\AppData\Local\Temp\ccNNq0o9.s 			page 157


 5280      00000000 
 5280      00000000 
 5281              		.section	.bss.midi,"aw",%nobits
 5282              		.align	2
 5285              	midi:
 5286 0000 00000000 		.space	29856
 5286      00000000 
 5286      00000000 
 5286      00000000 
 5286      00000000 
 5287              		.section	.bss.midi_cfg,"aw",%nobits
 5288              		.align	2
 5289              		.set	.LANCHOR3,. + 0
 5292              	midi_cfg:
 5293 0000 00000000 		.space	8
 5293      00000000 
 5294              		.section	.bss.osc,"aw",%nobits
 5295              		.align	2
 5296              		.set	.LANCHOR0,. + 0
 5299              	osc:
 5300 0000 00000000 		.space	40
 5300      00000000 
 5300      00000000 
 5300      00000000 
 5300      00000000 
 5301              		.section	.bss.synthMenus,"aw",%nobits
 5302              		.align	2
 5303              		.set	.LANCHOR4,. + 0
 5306              	synthMenus:
 5307 0000 00000000 		.space	4
 5308              		.text
 5309              	.Letext0:
 5310              		.file 19 "c:\\users\\vin\355cius\\documents\\daisytoolchain-0.3.1\\windows\\arm-none-eabi\\include
 5311              		.file 20 "c:\\users\\vin\355cius\\documents\\daisytoolchain-0.3.1\\windows\\arm-none-eabi\\include
 5312              		.file 21 "c:\\users\\vin\355cius\\documents\\daisytoolchain-0.3.1\\windows\\arm-none-eabi\\include
 5313              		.file 22 "c:\\users\\vin\355cius\\documents\\daisytoolchain-0.3.1\\windows\\lib\\gcc\\arm-none-eab
 5314              		.file 23 "c:\\users\\vin\355cius\\documents\\daisytoolchain-0.3.1\\windows\\arm-none-eabi\\include
 5315              		.file 24 "c:\\users\\vin\355cius\\documents\\daisytoolchain-0.3.1\\windows\\arm-none-eabi\\include
 5316              		.file 25 "c:\\users\\vin\355cius\\documents\\daisytoolchain-0.3.1\\windows\\arm-none-eabi\\include
 5317              		.file 26 "c:\\users\\vin\355cius\\documents\\daisytoolchain-0.3.1\\windows\\arm-none-eabi\\include
 5318              		.file 27 "c:\\users\\vin\355cius\\documents\\daisytoolchain-0.3.1\\windows\\arm-none-eabi\\include
 5319              		.file 28 "c:\\users\\vin\355cius\\documents\\daisytoolchain-0.3.1\\windows\\arm-none-eabi\\include
 5320              		.file 29 "c:\\users\\vin\355cius\\documents\\daisytoolchain-0.3.1\\windows\\arm-none-eabi\\include
 5321              		.file 30 "c:\\users\\vin\355cius\\documents\\daisytoolchain-0.3.1\\windows\\arm-none-eabi\\include
 5322              		.file 31 "c:\\users\\vin\355cius\\documents\\daisytoolchain-0.3.1\\windows\\arm-none-eabi\\include
 5323              		.file 32 "c:\\users\\vin\355cius\\documents\\daisytoolchain-0.3.1\\windows\\arm-none-eabi\\include
 5324              		.file 33 "c:\\users\\vin\355cius\\documents\\daisytoolchain-0.3.1\\windows\\arm-none-eabi\\include
 5325              		.file 34 "c:\\users\\vin\355cius\\documents\\daisytoolchain-0.3.1\\windows\\arm-none-eabi\\include
 5326              		.file 35 "c:\\users\\vin\355cius\\documents\\daisytoolchain-0.3.1\\windows\\arm-none-eabi\\include
 5327              		.file 36 "c:\\users\\vin\355cius\\documents\\daisytoolchain-0.3.1\\windows\\arm-none-eabi\\include
 5328              		.file 37 "c:\\users\\vin\355cius\\documents\\daisytoolchain-0.3.1\\windows\\arm-none-eabi\\include
 5329              		.file 38 "c:\\users\\vin\355cius\\documents\\daisytoolchain-0.3.1\\windows\\arm-none-eabi\\include
 5330              		.file 39 "c:\\users\\vin\355cius\\documents\\daisytoolchain-0.3.1\\windows\\arm-none-eabi\\include
 5331              		.file 40 "c:\\users\\vin\355cius\\documents\\daisytoolchain-0.3.1\\windows\\arm-none-eabi\\include
 5332              		.file 41 "c:\\users\\vin\355cius\\documents\\daisytoolchain-0.3.1\\windows\\arm-none-eabi\\include
 5333              		.file 42 "c:\\users\\vin\355cius\\documents\\daisytoolchain-0.3.1\\windows\\arm-none-eabi\\include
 5334              		.file 43 "c:\\users\\vin\355cius\\documents\\daisytoolchain-0.3.1\\windows\\arm-none-eabi\\include
ARM GAS  C:\Users\VINCIU~1\AppData\Local\Temp\ccNNq0o9.s 			page 158


 5335              		.file 44 "c:\\users\\vin\355cius\\documents\\daisytoolchain-0.3.1\\windows\\arm-none-eabi\\include
 5336              		.file 45 "c:\\users\\vin\355cius\\documents\\daisytoolchain-0.3.1\\windows\\arm-none-eabi\\include
 5337              		.file 46 "c:\\users\\vin\355cius\\documents\\daisytoolchain-0.3.1\\windows\\lib\\gcc\\arm-none-eab
 5338              		.file 47 "c:\\users\\vin\355cius\\documents\\daisytoolchain-0.3.1\\windows\\arm-none-eabi\\include
 5339              		.file 48 "c:\\users\\vin\355cius\\documents\\daisytoolchain-0.3.1\\windows\\arm-none-eabi\\include
 5340              		.file 49 "../../libdaisy/src/daisy_core.h"
 5341              		.file 50 "../../libdaisy/src/per/tim.h"
 5342              		.file 51 "../../libdaisy/src/per/sai.h"
 5343              		.file 52 "../../libdaisy/src/util/wav_format.h"
 5344              		.file 53 "../../libdaisy/src/hid/logger_impl.h"
 5345              		.file 54 "../../libdaisy/src/per/qspi.h"
 5346              		.file 55 "../../libdaisy/src/per/gpio.h"
 5347              		.file 56 "../../libdaisy/src/dev/sdram.h"
 5348              		.file 57 "../../libdaisy/src/util/oled_fonts.h"
 5349              		.file 58 "../../DaisySP/Source/Control/adenv.h"
 5350              		.file 59 "c:\\users\\vin\355cius\\documents\\daisytoolchain-0.3.1\\windows\\arm-none-eabi\\include
 5351              		.file 60 "c:\\users\\vin\355cius\\documents\\daisytoolchain-0.3.1\\windows\\arm-none-eabi\\include
 5352              		.file 61 "c:\\users\\vin\355cius\\documents\\daisytoolchain-0.3.1\\windows\\arm-none-eabi\\include
 5353              		.file 62 "menus.h"
 5354              		.file 63 "c:\\users\\vin\355cius\\documents\\daisytoolchain-0.3.1\\windows\\arm-none-eabi\\include
 5355              		.file 64 "globalFunc.h"
 5356              		.file 65 "<built-in>"
 5357              		.file 66 "../../libdaisy/src/dev/sr_595.h"
ARM GAS  C:\Users\VINCIU~1\AppData\Local\Temp\ccNNq0o9.s 			page 159


DEFINED SYMBOLS
                            *ABS*:00000000 metamorphic_project.cpp
C:\Users\VINCIU~1\AppData\Local\Temp\ccNNq0o9.s:17     .text._ZN5daisy9DaisySeedD2Ev:00000000 $t
C:\Users\VINCIU~1\AppData\Local\Temp\ccNNq0o9.s:26     .text._ZN5daisy9DaisySeedD2Ev:00000000 _ZN5daisy9DaisySeedD2Ev
C:\Users\VINCIU~1\AppData\Local\Temp\ccNNq0o9.s:26     .text._ZN5daisy9DaisySeedD2Ev:00000000 _ZN5daisy9DaisySeedD1Ev
C:\Users\VINCIU~1\AppData\Local\Temp\ccNNq0o9.s:67     .text._ZN7daisysp10OscillatorD2Ev:00000000 $t
C:\Users\VINCIU~1\AppData\Local\Temp\ccNNq0o9.s:75     .text._ZN7daisysp10OscillatorD2Ev:00000000 _ZN7daisysp10OscillatorD2Ev
C:\Users\VINCIU~1\AppData\Local\Temp\ccNNq0o9.s:75     .text._ZN7daisysp10OscillatorD2Ev:00000000 _ZN7daisysp10OscillatorD1Ev
C:\Users\VINCIU~1\AppData\Local\Temp\ccNNq0o9.s:92     .text._ZN5daisy11OledDisplayINS_13SSD130xDriverILj128ELj64ENS_24SSD130x4WireSpiTransportEEEED2Ev:00000000 $t
C:\Users\VINCIU~1\AppData\Local\Temp\ccNNq0o9.s:100    .text._ZN5daisy11OledDisplayINS_13SSD130xDriverILj128ELj64ENS_24SSD130x4WireSpiTransportEEEED2Ev:00000000 _ZN5daisy11OledDisplayINS_13SSD130xDriverILj128ELj64ENS_24SSD130x4WireSpiTransportEEEED2Ev
C:\Users\VINCIU~1\AppData\Local\Temp\ccNNq0o9.s:100    .text._ZN5daisy11OledDisplayINS_13SSD130xDriverILj128ELj64ENS_24SSD130x4WireSpiTransportEEEED2Ev:00000000 _ZN5daisy11OledDisplayINS_13SSD130xDriverILj128ELj64ENS_24SSD130x4WireSpiTransportEEEED1Ev
C:\Users\VINCIU~1\AppData\Local\Temp\ccNNq0o9.s:127    .text._ZNK5daisy11OledDisplayINS_13SSD130xDriverILj128ELj64ENS_24SSD130x4WireSpiTransportEEEE6HeightEv:00000000 $t
C:\Users\VINCIU~1\AppData\Local\Temp\ccNNq0o9.s:135    .text._ZNK5daisy11OledDisplayINS_13SSD130xDriverILj128ELj64ENS_24SSD130x4WireSpiTransportEEEE6HeightEv:00000000 _ZNK5daisy11OledDisplayINS_13SSD130xDriverILj128ELj64ENS_24SSD130x4WireSpiTransportEEEE6HeightEv
C:\Users\VINCIU~1\AppData\Local\Temp\ccNNq0o9.s:152    .text._ZNK5daisy11OledDisplayINS_13SSD130xDriverILj128ELj64ENS_24SSD130x4WireSpiTransportEEEE5WidthEv:00000000 $t
C:\Users\VINCIU~1\AppData\Local\Temp\ccNNq0o9.s:160    .text._ZNK5daisy11OledDisplayINS_13SSD130xDriverILj128ELj64ENS_24SSD130x4WireSpiTransportEEEE5WidthEv:00000000 _ZNK5daisy11OledDisplayINS_13SSD130xDriverILj128ELj64ENS_24SSD130x4WireSpiTransportEEEE5WidthEv
C:\Users\VINCIU~1\AppData\Local\Temp\ccNNq0o9.s:177    .text._ZN5daisy11OledDisplayINS_13SSD130xDriverILj128ELj64ENS_24SSD130x4WireSpiTransportEEEE4FillEb:00000000 $t
C:\Users\VINCIU~1\AppData\Local\Temp\ccNNq0o9.s:185    .text._ZN5daisy11OledDisplayINS_13SSD130xDriverILj128ELj64ENS_24SSD130x4WireSpiTransportEEEE4FillEb:00000000 _ZN5daisy11OledDisplayINS_13SSD130xDriverILj128ELj64ENS_24SSD130x4WireSpiTransportEEEE4FillEb
C:\Users\VINCIU~1\AppData\Local\Temp\ccNNq0o9.s:217    .text._ZN5daisy11MidiHandlerINS_17MidiUartTransportEED2Ev:00000000 $t
C:\Users\VINCIU~1\AppData\Local\Temp\ccNNq0o9.s:225    .text._ZN5daisy11MidiHandlerINS_17MidiUartTransportEED2Ev:00000000 _ZN5daisy11MidiHandlerINS_17MidiUartTransportEED2Ev
C:\Users\VINCIU~1\AppData\Local\Temp\ccNNq0o9.s:225    .text._ZN5daisy11MidiHandlerINS_17MidiUartTransportEED2Ev:00000000 _ZN5daisy11MidiHandlerINS_17MidiUartTransportEED1Ev
C:\Users\VINCIU~1\AppData\Local\Temp\ccNNq0o9.s:247    .text._Z13AudioCallbackPKPKfPPfj:00000000 $t
C:\Users\VINCIU~1\AppData\Local\Temp\ccNNq0o9.s:255    .text._Z13AudioCallbackPKPKfPPfj:00000000 _Z13AudioCallbackPKPKfPPfj
C:\Users\VINCIU~1\AppData\Local\Temp\ccNNq0o9.s:325    .text._Z13AudioCallbackPKPKfPPfj:00000030 $d
C:\Users\VINCIU~1\AppData\Local\Temp\ccNNq0o9.s:330    .text._ZN5daisy11OledDisplayINS_13SSD130xDriverILj128ELj64ENS_24SSD130x4WireSpiTransportEEEED0Ev:00000000 $t
C:\Users\VINCIU~1\AppData\Local\Temp\ccNNq0o9.s:338    .text._ZN5daisy11OledDisplayINS_13SSD130xDriverILj128ELj64ENS_24SSD130x4WireSpiTransportEEEED0Ev:00000000 _ZN5daisy11OledDisplayINS_13SSD130xDriverILj128ELj64ENS_24SSD130x4WireSpiTransportEEEED0Ev
C:\Users\VINCIU~1\AppData\Local\Temp\ccNNq0o9.s:378    .text._ZN5daisy11OledDisplayINS_13SSD130xDriverILj128ELj64ENS_24SSD130x4WireSpiTransportEEEE6UpdateEv:00000000 $t
C:\Users\VINCIU~1\AppData\Local\Temp\ccNNq0o9.s:386    .text._ZN5daisy11OledDisplayINS_13SSD130xDriverILj128ELj64ENS_24SSD130x4WireSpiTransportEEEE6UpdateEv:00000000 _ZN5daisy11OledDisplayINS_13SSD130xDriverILj128ELj64ENS_24SSD130x4WireSpiTransportEEEE6UpdateEv
C:\Users\VINCIU~1\AppData\Local\Temp\ccNNq0o9.s:573    .text._ZN5daisy25OneBitGraphicsDisplayImplINS_11OledDisplayINS_13SSD130xDriverILj128ELj64ENS_24SSD130x4WireSpiTransportEEEEEE9WriteCharEc7FontDefb:00000000 $t
C:\Users\VINCIU~1\AppData\Local\Temp\ccNNq0o9.s:581    .text._ZN5daisy25OneBitGraphicsDisplayImplINS_11OledDisplayINS_13SSD130xDriverILj128ELj64ENS_24SSD130x4WireSpiTransportEEEEEE9WriteCharEc7FontDefb:00000000 _ZN5daisy25OneBitGraphicsDisplayImplINS_11OledDisplayINS_13SSD130xDriverILj128ELj64ENS_24SSD130x4WireSpiTransportEEEEEE9WriteCharEc7FontDefb
C:\Users\VINCIU~1\AppData\Local\Temp\ccNNq0o9.s:1007   .text._ZN5daisy25OneBitGraphicsDisplayImplINS_11OledDisplayINS_13SSD130xDriverILj128ELj64ENS_24SSD130x4WireSpiTransportEEEEEE9WriteCharEc7FontDefb:00000198 $d
C:\Users\VINCIU~1\AppData\Local\Temp\ccNNq0o9.s:1015   .text._ZN5daisy25OneBitGraphicsDisplayImplINS_11OledDisplayINS_13SSD130xDriverILj128ELj64ENS_24SSD130x4WireSpiTransportEEEEEE11WriteStringEPKc7FontDefb:00000000 $t
C:\Users\VINCIU~1\AppData\Local\Temp\ccNNq0o9.s:1023   .text._ZN5daisy25OneBitGraphicsDisplayImplINS_11OledDisplayINS_13SSD130xDriverILj128ELj64ENS_24SSD130x4WireSpiTransportEEEEEE11WriteStringEPKc7FontDefb:00000000 _ZN5daisy25OneBitGraphicsDisplayImplINS_11OledDisplayINS_13SSD130xDriverILj128ELj64ENS_24SSD130x4WireSpiTransportEEEEEE11WriteStringEPKc7FontDefb
C:\Users\VINCIU~1\AppData\Local\Temp\ccNNq0o9.s:1097   .text._ZN5daisy11OledDisplayINS_13SSD130xDriverILj128ELj64ENS_24SSD130x4WireSpiTransportEEEE9DrawPixelEjjb:00000000 $t
C:\Users\VINCIU~1\AppData\Local\Temp\ccNNq0o9.s:1105   .text._ZN5daisy11OledDisplayINS_13SSD130xDriverILj128ELj64ENS_24SSD130x4WireSpiTransportEEEE9DrawPixelEjjb:00000000 _ZN5daisy11OledDisplayINS_13SSD130xDriverILj128ELj64ENS_24SSD130x4WireSpiTransportEEEE9DrawPixelEjjb
C:\Users\VINCIU~1\AppData\Local\Temp\ccNNq0o9.s:1182   .text._ZN5daisy25OneBitGraphicsDisplayImplINS_11OledDisplayINS_13SSD130xDriverILj128ELj64ENS_24SSD130x4WireSpiTransportEEEEEE8DrawLineEjjjjb:00000000 $t
C:\Users\VINCIU~1\AppData\Local\Temp\ccNNq0o9.s:1190   .text._ZN5daisy25OneBitGraphicsDisplayImplINS_11OledDisplayINS_13SSD130xDriverILj128ELj64ENS_24SSD130x4WireSpiTransportEEEEEE8DrawLineEjjjjb:00000000 _ZN5daisy25OneBitGraphicsDisplayImplINS_11OledDisplayINS_13SSD130xDriverILj128ELj64ENS_24SSD130x4WireSpiTransportEEEEEE8DrawLineEjjjjb
C:\Users\VINCIU~1\AppData\Local\Temp\ccNNq0o9.s:1475   .text._ZN5daisy25OneBitGraphicsDisplayImplINS_11OledDisplayINS_13SSD130xDriverILj128ELj64ENS_24SSD130x4WireSpiTransportEEEEEE7DrawArcEjjjiib:00000000 $t
C:\Users\VINCIU~1\AppData\Local\Temp\ccNNq0o9.s:1483   .text._ZN5daisy25OneBitGraphicsDisplayImplINS_11OledDisplayINS_13SSD130xDriverILj128ELj64ENS_24SSD130x4WireSpiTransportEEEEEE7DrawArcEjjjiib:00000000 _ZN5daisy25OneBitGraphicsDisplayImplINS_11OledDisplayINS_13SSD130xDriverILj128ELj64ENS_24SSD130x4WireSpiTransportEEEEEE7DrawArcEjjjiib
C:\Users\VINCIU~1\AppData\Local\Temp\ccNNq0o9.s:2168   .text._ZN5daisy25OneBitGraphicsDisplayImplINS_11OledDisplayINS_13SSD130xDriverILj128ELj64ENS_24SSD130x4WireSpiTransportEEEEEE7DrawArcEjjjiib:00000368 $d
C:\Users\VINCIU~1\AppData\Local\Temp\ccNNq0o9.s:2182   .text._ZN5daisy25OneBitGraphicsDisplayImplINS_11OledDisplayINS_13SSD130xDriverILj128ELj64ENS_24SSD130x4WireSpiTransportEEEEEE7DrawArcEjjjiib:00000378 $t
C:\Users\VINCIU~1\AppData\Local\Temp\ccNNq0o9.s:2408   .text._ZN5daisy25OneBitGraphicsDisplayImplINS_11OledDisplayINS_13SSD130xDriverILj128ELj64ENS_24SSD130x4WireSpiTransportEEEEEE8DrawRectEjjjjbb:00000000 $t
C:\Users\VINCIU~1\AppData\Local\Temp\ccNNq0o9.s:2416   .text._ZN5daisy25OneBitGraphicsDisplayImplINS_11OledDisplayINS_13SSD130xDriverILj128ELj64ENS_24SSD130x4WireSpiTransportEEEEEE8DrawRectEjjjjbb:00000000 _ZN5daisy25OneBitGraphicsDisplayImplINS_11OledDisplayINS_13SSD130xDriverILj128ELj64ENS_24SSD130x4WireSpiTransportEEEEEE8DrawRectEjjjjbb
C:\Users\VINCIU~1\AppData\Local\Temp\ccNNq0o9.s:3526   .text._Z17HandleMidiMessage9MidiEvent:00000000 $t
C:\Users\VINCIU~1\AppData\Local\Temp\ccNNq0o9.s:3534   .text._Z17HandleMidiMessage9MidiEvent:00000000 _Z17HandleMidiMessage9MidiEvent
C:\Users\VINCIU~1\AppData\Local\Temp\ccNNq0o9.s:3759   .text._Z17HandleMidiMessage9MidiEvent:0000007c $d
C:\Users\VINCIU~1\AppData\Local\Temp\ccNNq0o9.s:3767   .text.startup.main:00000000 $t
C:\Users\VINCIU~1\AppData\Local\Temp\ccNNq0o9.s:3775   .text.startup.main:00000000 main
C:\Users\VINCIU~1\AppData\Local\Temp\ccNNq0o9.s:4049   .text.startup.main:000000aa $d
C:\Users\VINCIU~1\AppData\Local\Temp\ccNNq0o9.s:4053   .text.startup.main:000000ae $t
C:\Users\VINCIU~1\AppData\Local\Temp\ccNNq0o9.s:4656   .text.startup.main:000002f8 $d
C:\Users\VINCIU~1\AppData\Local\Temp\ccNNq0o9.s:5285   .bss.midi:00000000 midi
C:\Users\VINCIU~1\AppData\Local\Temp\ccNNq0o9.s:4669   .text.startup.main:00000320 $t
C:\Users\VINCIU~1\AppData\Local\Temp\ccNNq0o9.s:4800   .text.startup._GLOBAL__sub_I_hw:00000000 $t
C:\Users\VINCIU~1\AppData\Local\Temp\ccNNq0o9.s:4807   .text.startup._GLOBAL__sub_I_hw:00000000 _GLOBAL__sub_I_hw
C:\Users\VINCIU~1\AppData\Local\Temp\ccNNq0o9.s:5162   .text.startup._GLOBAL__sub_I_hw:00000070 $d
C:\Users\VINCIU~1\AppData\Local\Temp\ccNNq0o9.s:5236   .rodata._ZTVN5daisy11OledDisplayINS_13SSD130xDriverILj128ELj64ENS_24SSD130x4WireSpiTransportEEEEE:00000000 _ZTVN5daisy11OledDisplayINS_13SSD130xDriverILj128ELj64ENS_24SSD130x4WireSpiTransportEEEEE
C:\Users\VINCIU~1\AppData\Local\Temp\ccNNq0o9.s:5179   .init_array:00000000 $d
ARM GAS  C:\Users\VINCIU~1\AppData\Local\Temp\ccNNq0o9.s 			page 160


C:\Users\VINCIU~1\AppData\Local\Temp\ccNNq0o9.s:5186   .rodata._ZTSN5daisy21OneBitGraphicsDisplayE:00000000 _ZTSN5daisy21OneBitGraphicsDisplayE
C:\Users\VINCIU~1\AppData\Local\Temp\ccNNq0o9.s:5183   .rodata._ZTSN5daisy21OneBitGraphicsDisplayE:00000000 $d
C:\Users\VINCIU~1\AppData\Local\Temp\ccNNq0o9.s:5193   .rodata._ZTIN5daisy21OneBitGraphicsDisplayE:00000000 _ZTIN5daisy21OneBitGraphicsDisplayE
C:\Users\VINCIU~1\AppData\Local\Temp\ccNNq0o9.s:5190   .rodata._ZTIN5daisy21OneBitGraphicsDisplayE:00000000 $d
C:\Users\VINCIU~1\AppData\Local\Temp\ccNNq0o9.s:5201   .rodata._ZTSN5daisy25OneBitGraphicsDisplayImplINS_11OledDisplayINS_13SSD130xDriverILj128ELj64ENS_24SSD130x4WireSpiTransportEEEEEEE:00000000 _ZTSN5daisy25OneBitGraphicsDisplayImplINS_11OledDisplayINS_13SSD130xDriverILj128ELj64ENS_24SSD130x4WireSpiTransportEEEEEEE
C:\Users\VINCIU~1\AppData\Local\Temp\ccNNq0o9.s:5198   .rodata._ZTSN5daisy25OneBitGraphicsDisplayImplINS_11OledDisplayINS_13SSD130xDriverILj128ELj64ENS_24SSD130x4WireSpiTransportEEEEEEE:00000000 $d
C:\Users\VINCIU~1\AppData\Local\Temp\ccNNq0o9.s:5210   .rodata._ZTIN5daisy25OneBitGraphicsDisplayImplINS_11OledDisplayINS_13SSD130xDriverILj128ELj64ENS_24SSD130x4WireSpiTransportEEEEEEE:00000000 _ZTIN5daisy25OneBitGraphicsDisplayImplINS_11OledDisplayINS_13SSD130xDriverILj128ELj64ENS_24SSD130x4WireSpiTransportEEEEEEE
C:\Users\VINCIU~1\AppData\Local\Temp\ccNNq0o9.s:5207   .rodata._ZTIN5daisy25OneBitGraphicsDisplayImplINS_11OledDisplayINS_13SSD130xDriverILj128ELj64ENS_24SSD130x4WireSpiTransportEEEEEEE:00000000 $d
C:\Users\VINCIU~1\AppData\Local\Temp\ccNNq0o9.s:5219   .rodata._ZTSN5daisy11OledDisplayINS_13SSD130xDriverILj128ELj64ENS_24SSD130x4WireSpiTransportEEEEE:00000000 _ZTSN5daisy11OledDisplayINS_13SSD130xDriverILj128ELj64ENS_24SSD130x4WireSpiTransportEEEEE
C:\Users\VINCIU~1\AppData\Local\Temp\ccNNq0o9.s:5216   .rodata._ZTSN5daisy11OledDisplayINS_13SSD130xDriverILj128ELj64ENS_24SSD130x4WireSpiTransportEEEEE:00000000 $d
C:\Users\VINCIU~1\AppData\Local\Temp\ccNNq0o9.s:5227   .rodata._ZTIN5daisy11OledDisplayINS_13SSD130xDriverILj128ELj64ENS_24SSD130x4WireSpiTransportEEEEE:00000000 _ZTIN5daisy11OledDisplayINS_13SSD130xDriverILj128ELj64ENS_24SSD130x4WireSpiTransportEEEEE
C:\Users\VINCIU~1\AppData\Local\Temp\ccNNq0o9.s:5224   .rodata._ZTIN5daisy11OledDisplayINS_13SSD130xDriverILj128ELj64ENS_24SSD130x4WireSpiTransportEEEEE:00000000 $d
C:\Users\VINCIU~1\AppData\Local\Temp\ccNNq0o9.s:5233   .rodata._ZTVN5daisy11OledDisplayINS_13SSD130xDriverILj128ELj64ENS_24SSD130x4WireSpiTransportEEEEE:00000000 $d
C:\Users\VINCIU~1\AppData\Local\Temp\ccNNq0o9.s:5292   .bss.midi_cfg:00000000 midi_cfg
C:\Users\VINCIU~1\AppData\Local\Temp\ccNNq0o9.s:5299   .bss.osc:00000000 osc
C:\Users\VINCIU~1\AppData\Local\Temp\ccNNq0o9.s:5306   .bss.synthMenus:00000000 synthMenus
C:\Users\VINCIU~1\AppData\Local\Temp\ccNNq0o9.s:5272   .bss.display:00000000 display
C:\Users\VINCIU~1\AppData\Local\Temp\ccNNq0o9.s:5279   .bss.hw:00000000 hw
C:\Users\VINCIU~1\AppData\Local\Temp\ccNNq0o9.s:5258   .rodata:00000000 $d
C:\Users\VINCIU~1\AppData\Local\Temp\ccNNq0o9.s:5268   .bss.display:00000000 $d
C:\Users\VINCIU~1\AppData\Local\Temp\ccNNq0o9.s:5275   .bss.hw:00000000 $d
C:\Users\VINCIU~1\AppData\Local\Temp\ccNNq0o9.s:5282   .bss.midi:00000000 $d
C:\Users\VINCIU~1\AppData\Local\Temp\ccNNq0o9.s:5288   .bss.midi_cfg:00000000 $d
C:\Users\VINCIU~1\AppData\Local\Temp\ccNNq0o9.s:5295   .bss.osc:00000000 $d
C:\Users\VINCIU~1\AppData\Local\Temp\ccNNq0o9.s:5302   .bss.synthMenus:00000000 $d
                           .group:00000000 _ZN5daisy9DaisySeedD5Ev
                           .group:00000000 _ZN7daisysp10OscillatorD5Ev
                           .group:00000000 _ZN5daisy11OledDisplayINS_13SSD130xDriverILj128ELj64ENS_24SSD130x4WireSpiTransportEEEED5Ev
                           .group:00000000 _ZN5daisy11MidiHandlerINS_17MidiUartTransportEED5Ev

UNDEFINED SYMBOLS
memset
_ZN7daisysp10Oscillator7ProcessEv
_ZdlPvj
dsy_gpio_write
_ZN5daisy9SpiHandle16BlockingTransmitEPhjm
cosf
sinf
powf
_ZN7daisysp10Oscillator12CalcPhaseIncEf
_Z9SynthInitPN5daisy9DaisySeedEPNS_11OledDisplayINS_13SSD130xDriverILj128ELj64ENS_24SSD130x4WireSpiTransportEEEEEPN7daisysp10OscillatorE
_ZN5daisy9UsbHandle4InitENS0_9UsbPeriphE
_ZN5daisy11UartHandler4InitERKNS0_6ConfigE
_ZN5daisy11UartHandler7StartRxEv
_ZN5daisy9DaisySeed10StartAudioEPFvPKPKfPPfjE
_ZN5daisy6System6GetNowEv
_ZN5daisy11UartHandler8ReadableEv
_ZN5daisy11UartHandler5PopRxEv
_ZN5daisy11UartHandler8RxActiveEv
_ZN5Menus12SplashScreenEPN5daisy11OledDisplayINS0_13SSD130xDriverILj128ELj64ENS0_24SSD130x4WireSpiTransportEEEEE
memcpy
_ZN5daisy11UartHandler7FlushRxEv
__aeabi_atexit
__dso_handle
_ZTVN10__cxxabiv117__class_type_infoE
_ZTVN10__cxxabiv120__si_class_type_infoE
