ARM GAS  C:\Users\VINCIU~1\AppData\Local\Temp\ccI83ocg.s 			page 1


   1              		.cpu cortex-m7
   2              		.eabi_attribute 28, 1
   3              		.eabi_attribute 20, 1
   4              		.eabi_attribute 21, 1
   5              		.eabi_attribute 23, 3
   6              		.eabi_attribute 24, 1
   7              		.eabi_attribute 25, 1
   8              		.eabi_attribute 26, 1
   9              		.eabi_attribute 30, 2
  10              		.eabi_attribute 34, 1
  11              		.eabi_attribute 18, 4
  12              		.file	"metamorphic_project.cpp"
  13              		.text
  14              	.Ltext0:
  15              		.cfi_sections	.debug_frame
  16              		.section	.text._ZN5daisy9DaisySeedD2Ev,"axG",%progbits,_ZN5daisy9DaisySeedD5Ev,comdat
  17              		.align	1
  18              		.p2align 2,,3
  19              		.weak	_ZN5daisy9DaisySeedD2Ev
  20              		.arch armv7e-m
  21              		.syntax unified
  22              		.thumb
  23              		.thumb_func
  24              		.fpu fpv5-d16
  26              	_ZN5daisy9DaisySeedD2Ev:
  27              	.LVL0:
  28              	.LFB1793:
  29              		.file 1 "../../libdaisy/src/daisy_seed.h"
   1:../../libdaisy/src/daisy_seed.h **** #pragma once
   2:../../libdaisy/src/daisy_seed.h **** #ifndef DSY_SEED_H
   3:../../libdaisy/src/daisy_seed.h **** #define DSY_SEED_H
   4:../../libdaisy/src/daisy_seed.h **** 
   5:../../libdaisy/src/daisy_seed.h **** #include "daisy.h"
   6:../../libdaisy/src/daisy_seed.h **** 
   7:../../libdaisy/src/daisy_seed.h **** //Uncomment this out if you're still using the rev2 hardware
   8:../../libdaisy/src/daisy_seed.h **** //#define SEED_REV2
   9:../../libdaisy/src/daisy_seed.h **** 
  10:../../libdaisy/src/daisy_seed.h **** namespace daisy
  11:../../libdaisy/src/daisy_seed.h **** {
  12:../../libdaisy/src/daisy_seed.h **** /**
  13:../../libdaisy/src/daisy_seed.h ****    @brief This is the higher-level interface for the Daisy board. \n 
  14:../../libdaisy/src/daisy_seed.h ****     All basic peripheral configuration/initialization is setup here. \n
  15:../../libdaisy/src/daisy_seed.h **** 
  16:../../libdaisy/src/daisy_seed.h ****    @ingroup boards
  17:../../libdaisy/src/daisy_seed.h **** */
  18:../../libdaisy/src/daisy_seed.h **** class DaisySeed
  19:../../libdaisy/src/daisy_seed.h **** {
  20:../../libdaisy/src/daisy_seed.h ****   public:
  21:../../libdaisy/src/daisy_seed.h ****     DaisySeed() {}
  22:../../libdaisy/src/daisy_seed.h ****     ~DaisySeed() {}
  30              		.loc 1 22 5 view -0
  31              		.cfi_startproc
  32              		@ args = 0, pretend = 0, frame = 0
  33              		@ frame_needed = 0, uses_anonymous_args = 0
  34              		@ link register save eliminated.
  35              	.LBB167:
  36              	.LBI167:
ARM GAS  C:\Users\VINCIU~1\AppData\Local\Temp\ccI83ocg.s 			page 2


  37              		.file 2 "../../libdaisy/src/sys/system.h"
   1:../../libdaisy/src/sys/system.h **** #ifndef DSY_SYSTEM_H
   2:../../libdaisy/src/sys/system.h **** #define DSY_SYSTEM_H
   3:../../libdaisy/src/sys/system.h **** 
   4:../../libdaisy/src/sys/system.h **** #ifndef UNIT_TEST // for unit tests, a dummy implementation is provided below
   5:../../libdaisy/src/sys/system.h **** 
   6:../../libdaisy/src/sys/system.h **** #include <cstdint>
   7:../../libdaisy/src/sys/system.h **** #include "per/tim.h"
   8:../../libdaisy/src/sys/system.h **** 
   9:../../libdaisy/src/sys/system.h **** namespace daisy
  10:../../libdaisy/src/sys/system.h **** {
  11:../../libdaisy/src/sys/system.h **** /** A handle for interacting with the Core System. 
  12:../../libdaisy/src/sys/system.h ****  ** This includes the Clock tree, MPU, global DMA initialization,
  13:../../libdaisy/src/sys/system.h ****  ** cache handling, and any other necessary global initiailzation
  14:../../libdaisy/src/sys/system.h ****  **
  15:../../libdaisy/src/sys/system.h ****  ** @author shensley
  16:../../libdaisy/src/sys/system.h ****  ** @addtogroup system
  17:../../libdaisy/src/sys/system.h ****  */
  18:../../libdaisy/src/sys/system.h **** class System
  19:../../libdaisy/src/sys/system.h **** {
  20:../../libdaisy/src/sys/system.h ****   public:
  21:../../libdaisy/src/sys/system.h ****     /** Contains settings for initializing the System */
  22:../../libdaisy/src/sys/system.h ****     struct Config
  23:../../libdaisy/src/sys/system.h ****     {
  24:../../libdaisy/src/sys/system.h ****         /** Specifies the system clock frequency that feeds APB/AHB clocks, etc. */
  25:../../libdaisy/src/sys/system.h ****         enum class SysClkFreq
  26:../../libdaisy/src/sys/system.h ****         {
  27:../../libdaisy/src/sys/system.h ****             FREQ_400MHZ,
  28:../../libdaisy/src/sys/system.h ****             FREQ_480MHZ,
  29:../../libdaisy/src/sys/system.h ****         };
  30:../../libdaisy/src/sys/system.h **** 
  31:../../libdaisy/src/sys/system.h ****         /** Method to call on the struct to set to defaults
  32:../../libdaisy/src/sys/system.h ****          ** CPU Freq set to 400MHz
  33:../../libdaisy/src/sys/system.h ****          ** Cache Enabled 
  34:../../libdaisy/src/sys/system.h ****          ** */
  35:../../libdaisy/src/sys/system.h ****         void Defaults()
  36:../../libdaisy/src/sys/system.h ****         {
  37:../../libdaisy/src/sys/system.h ****             cpu_freq   = SysClkFreq::FREQ_400MHZ;
  38:../../libdaisy/src/sys/system.h ****             use_dcache = true;
  39:../../libdaisy/src/sys/system.h ****             use_icache = true;
  40:../../libdaisy/src/sys/system.h ****         }
  41:../../libdaisy/src/sys/system.h **** 
  42:../../libdaisy/src/sys/system.h ****         /** Method to call on the struct to set to boost mode:
  43:../../libdaisy/src/sys/system.h ****          ** CPU Freq set to 480MHz
  44:../../libdaisy/src/sys/system.h ****          ** Cache Enabled 
  45:../../libdaisy/src/sys/system.h ****          ** */
  46:../../libdaisy/src/sys/system.h ****         void Boost()
  47:../../libdaisy/src/sys/system.h ****         {
  48:../../libdaisy/src/sys/system.h ****             cpu_freq   = SysClkFreq::FREQ_480MHZ;
  49:../../libdaisy/src/sys/system.h ****             use_dcache = true;
  50:../../libdaisy/src/sys/system.h ****             use_icache = true;
  51:../../libdaisy/src/sys/system.h ****         }
  52:../../libdaisy/src/sys/system.h **** 
  53:../../libdaisy/src/sys/system.h ****         SysClkFreq cpu_freq;
  54:../../libdaisy/src/sys/system.h ****         bool       use_dcache;
  55:../../libdaisy/src/sys/system.h ****         bool       use_icache;
  56:../../libdaisy/src/sys/system.h ****     };
ARM GAS  C:\Users\VINCIU~1\AppData\Local\Temp\ccI83ocg.s 			page 3


  57:../../libdaisy/src/sys/system.h **** 
  58:../../libdaisy/src/sys/system.h ****     System() {}
  59:../../libdaisy/src/sys/system.h ****     ~System() {}
  38              		.loc 2 59 5 view .LVU1
  39              		.loc 2 59 5 is_stmt 0 view .LVU2
  40              	.LBE167:
  41              	.LBB168:
  42              	.LBI168:
  43              		.file 3 "../../libdaisy/src/hid/usb.h"
   1:../../libdaisy/src/hid/usb.h **** #pragma once
   2:../../libdaisy/src/hid/usb.h **** #ifndef DSY_HID_USB_H
   3:../../libdaisy/src/hid/usb.h **** #define DSY_HID_USB_H
   4:../../libdaisy/src/hid/usb.h **** #include <stdint.h>
   5:../../libdaisy/src/hid/usb.h **** #include <stdlib.h>
   6:../../libdaisy/src/hid/usb.h **** 
   7:../../libdaisy/src/hid/usb.h **** namespace daisy
   8:../../libdaisy/src/hid/usb.h **** /** @addtogroup externals
   9:../../libdaisy/src/hid/usb.h ****     @{
  10:../../libdaisy/src/hid/usb.h **** */
  11:../../libdaisy/src/hid/usb.h **** 
  12:../../libdaisy/src/hid/usb.h **** {
  13:../../libdaisy/src/hid/usb.h **** /** 
  14:../../libdaisy/src/hid/usb.h ****     @brief Interface for initializing and using the USB Peripherals on the daisy
  15:../../libdaisy/src/hid/usb.h ****     @author Stephen Hensley
  16:../../libdaisy/src/hid/usb.h ****     @date December 2019
  17:../../libdaisy/src/hid/usb.h **** */
  18:../../libdaisy/src/hid/usb.h **** class UsbHandle
  19:../../libdaisy/src/hid/usb.h **** {
  20:../../libdaisy/src/hid/usb.h ****   public:
  21:../../libdaisy/src/hid/usb.h ****     /** Return values for USBHandle Functions */
  22:../../libdaisy/src/hid/usb.h ****     enum class Result
  23:../../libdaisy/src/hid/usb.h ****     {
  24:../../libdaisy/src/hid/usb.h ****         OK,
  25:../../libdaisy/src/hid/usb.h ****         ERR,
  26:../../libdaisy/src/hid/usb.h ****     };
  27:../../libdaisy/src/hid/usb.h **** 
  28:../../libdaisy/src/hid/usb.h ****     /** Specified which of the two USB Peripherals to initialize. */
  29:../../libdaisy/src/hid/usb.h ****     enum UsbPeriph
  30:../../libdaisy/src/hid/usb.h ****     {
  31:../../libdaisy/src/hid/usb.h ****         FS_INTERNAL, /**< Internal pin */
  32:../../libdaisy/src/hid/usb.h ****         FS_EXTERNAL, /**< FS External D+ pin is Pin 38 (GPIO32). FS External D- pin is Pin 37 (GPIO
  33:../../libdaisy/src/hid/usb.h ****         FS_BOTH,     /**< Both */
  34:../../libdaisy/src/hid/usb.h ****     };
  35:../../libdaisy/src/hid/usb.h **** 
  36:../../libdaisy/src/hid/usb.h **** 
  37:../../libdaisy/src/hid/usb.h ****     /** Function called upon reception of a buffer */
  38:../../libdaisy/src/hid/usb.h ****     typedef void (*ReceiveCallback)(uint8_t* buff, uint32_t* len);
  39:../../libdaisy/src/hid/usb.h **** 
  40:../../libdaisy/src/hid/usb.h ****     UsbHandle() {}
  41:../../libdaisy/src/hid/usb.h **** 
  42:../../libdaisy/src/hid/usb.h ****     ~UsbHandle() {}
  44              		.loc 3 42 5 is_stmt 1 view .LVU3
  45              		.loc 3 42 5 is_stmt 0 view .LVU4
  46              	.LBE168:
  47              	.LBB169:
  48              	.LBI169:
  49              		.file 4 "../../libdaisy/src/per/adc.h"
ARM GAS  C:\Users\VINCIU~1\AppData\Local\Temp\ccI83ocg.s 			page 4


   1:../../libdaisy/src/per/adc.h **** #pragma once
   2:../../libdaisy/src/per/adc.h **** #ifndef DSY_ADC_H
   3:../../libdaisy/src/per/adc.h **** #define DSY_ADC_H /**< Macro */
   4:../../libdaisy/src/per/adc.h **** #include <stdint.h>
   5:../../libdaisy/src/per/adc.h **** #include <stdlib.h>
   6:../../libdaisy/src/per/adc.h **** #include "daisy_core.h"
   7:../../libdaisy/src/per/adc.h **** #include "per/gpio.h"
   8:../../libdaisy/src/per/adc.h **** 
   9:../../libdaisy/src/per/adc.h **** #define DSY_ADC_MAX_CHANNELS 14 /**< Maximum number of ADC channels */
  10:../../libdaisy/src/per/adc.h **** 
  11:../../libdaisy/src/per/adc.h **** namespace daisy
  12:../../libdaisy/src/per/adc.h **** {
  13:../../libdaisy/src/per/adc.h **** /** @addtogroup analog_digital_conversion
  14:../../libdaisy/src/per/adc.h ****     @{
  15:../../libdaisy/src/per/adc.h **** */
  16:../../libdaisy/src/per/adc.h **** 
  17:../../libdaisy/src/per/adc.h **** /* While there may not be many configuration options here,
  18:../../libdaisy/src/per/adc.h **** using a struct like this allows us to add more configuration
  19:../../libdaisy/src/per/adc.h **** later without breaking existing functionality.
  20:../../libdaisy/src/per/adc.h **** */
  21:../../libdaisy/src/per/adc.h **** 
  22:../../libdaisy/src/per/adc.h **** /** Configuration Structure for a given channel */
  23:../../libdaisy/src/per/adc.h **** struct AdcChannelConfig
  24:../../libdaisy/src/per/adc.h **** {
  25:../../libdaisy/src/per/adc.h ****     /** Which pin to use for multiplexing */
  26:../../libdaisy/src/per/adc.h ****     enum MuxPin
  27:../../libdaisy/src/per/adc.h ****     {
  28:../../libdaisy/src/per/adc.h ****         MUX_SEL_0,    /**< & */
  29:../../libdaisy/src/per/adc.h ****         MUX_SEL_1,    /**< & */
  30:../../libdaisy/src/per/adc.h ****         MUX_SEL_2,    /**< & */
  31:../../libdaisy/src/per/adc.h ****         MUX_SEL_LAST, /**< & */
  32:../../libdaisy/src/per/adc.h ****     };
  33:../../libdaisy/src/per/adc.h **** 
  34:../../libdaisy/src/per/adc.h ****     /** Initializes a single ADC pin as an ADC. 
  35:../../libdaisy/src/per/adc.h ****     \param pin Pin to init.
  36:../../libdaisy/src/per/adc.h ****      */
  37:../../libdaisy/src/per/adc.h ****     void InitSingle(dsy_gpio_pin pin);
  38:../../libdaisy/src/per/adc.h **** 
  39:../../libdaisy/src/per/adc.h ****     /** 
  40:../../libdaisy/src/per/adc.h ****     Initializes a single ADC pin as a Multiplexed ADC.
  41:../../libdaisy/src/per/adc.h ****     Requires a CD405X Multiplexer connected to the pin.
  42:../../libdaisy/src/per/adc.h ****     You only need to supply the mux pins that are required,
  43:../../libdaisy/src/per/adc.h ****     e.g. a 4052 mux would only require mux_0 and mux_1.
  44:../../libdaisy/src/per/adc.h ****     Internal Callbacks handle the pin addressing.
  45:../../libdaisy/src/per/adc.h ****     \param mux_channels must be 1-8
  46:../../libdaisy/src/per/adc.h ****     \param mux_0 First mux pin
  47:../../libdaisy/src/per/adc.h ****     \param mux_1 Second mux pin
  48:../../libdaisy/src/per/adc.h ****     \param mux_2 Third mux pin
  49:../../libdaisy/src/per/adc.h ****     \param adc_pin &
  50:../../libdaisy/src/per/adc.h ****     */
  51:../../libdaisy/src/per/adc.h ****     void InitMux(dsy_gpio_pin adc_pin,
  52:../../libdaisy/src/per/adc.h ****                  size_t       mux_channels,
  53:../../libdaisy/src/per/adc.h ****                  dsy_gpio_pin mux_0,
  54:../../libdaisy/src/per/adc.h ****                  dsy_gpio_pin mux_1 = {DSY_GPIOX, 0},
  55:../../libdaisy/src/per/adc.h ****                  dsy_gpio_pin mux_2 = {DSY_GPIOX, 0});
  56:../../libdaisy/src/per/adc.h **** 
  57:../../libdaisy/src/per/adc.h ****     dsy_gpio pin_;                   /**< & */
ARM GAS  C:\Users\VINCIU~1\AppData\Local\Temp\ccI83ocg.s 			page 5


  58:../../libdaisy/src/per/adc.h ****     dsy_gpio mux_pin_[MUX_SEL_LAST]; /**< & */
  59:../../libdaisy/src/per/adc.h ****     uint8_t  mux_channels_;          /**< & */
  60:../../libdaisy/src/per/adc.h **** };
  61:../../libdaisy/src/per/adc.h **** 
  62:../../libdaisy/src/per/adc.h **** /**
  63:../../libdaisy/src/per/adc.h ****    Handler for analog to digital conversion
  64:../../libdaisy/src/per/adc.h **** */
  65:../../libdaisy/src/per/adc.h **** class AdcHandle
  66:../../libdaisy/src/per/adc.h **** {
  67:../../libdaisy/src/per/adc.h ****   public:
  68:../../libdaisy/src/per/adc.h ****     /** Supported oversampling amounts */
  69:../../libdaisy/src/per/adc.h ****     enum OverSampling
  70:../../libdaisy/src/per/adc.h ****     {
  71:../../libdaisy/src/per/adc.h ****         OVS_NONE, /**< & */
  72:../../libdaisy/src/per/adc.h ****         OVS_4,    /**< & */
  73:../../libdaisy/src/per/adc.h ****         OVS_8,    /**< & */
  74:../../libdaisy/src/per/adc.h ****         OVS_16,   /**< & */
  75:../../libdaisy/src/per/adc.h ****         OVS_32,   /**< & */
  76:../../libdaisy/src/per/adc.h ****         OVS_64,   /**< & */
  77:../../libdaisy/src/per/adc.h ****         OVS_128,  /**< & */
  78:../../libdaisy/src/per/adc.h ****         OVS_256,  /**< & */
  79:../../libdaisy/src/per/adc.h ****         OVS_512,  /**< & */
  80:../../libdaisy/src/per/adc.h ****         OVS_1024, /**< & */
  81:../../libdaisy/src/per/adc.h ****         OVS_LAST, /**< & */
  82:../../libdaisy/src/per/adc.h ****     };
  83:../../libdaisy/src/per/adc.h **** 
  84:../../libdaisy/src/per/adc.h ****     AdcHandle() {}
  85:../../libdaisy/src/per/adc.h ****     ~AdcHandle() {}
  50              		.loc 4 85 5 is_stmt 1 view .LVU5
  51              		.loc 4 85 5 is_stmt 0 view .LVU6
  52              	.LBE169:
  53              	.LBB170:
  54              	.LBI170:
  55              		.file 5 "../../libdaisy/src/hid/audio.h"
   1:../../libdaisy/src/hid/audio.h **** #ifndef DSY_AUDIO_H
   2:../../libdaisy/src/hid/audio.h **** #define DSY_AUDIO_H /**< & */
   3:../../libdaisy/src/hid/audio.h **** 
   4:../../libdaisy/src/hid/audio.h **** #include "per/sai.h"
   5:../../libdaisy/src/hid/audio.h **** 
   6:../../libdaisy/src/hid/audio.h **** namespace daisy
   7:../../libdaisy/src/hid/audio.h **** {
   8:../../libdaisy/src/hid/audio.h **** class AudioHandle
   9:../../libdaisy/src/hid/audio.h **** {
  10:../../libdaisy/src/hid/audio.h ****   public:
  11:../../libdaisy/src/hid/audio.h ****     /** Manually configurable details about the Audio Engine */
  12:../../libdaisy/src/hid/audio.h ****     /** TODO: Figure out how to get samplerate in here. */
  13:../../libdaisy/src/hid/audio.h ****     struct Config
  14:../../libdaisy/src/hid/audio.h ****     {
  15:../../libdaisy/src/hid/audio.h ****         size_t                        blocksize;
  16:../../libdaisy/src/hid/audio.h ****         SaiHandle::Config::SampleRate samplerate;
  17:../../libdaisy/src/hid/audio.h ****         float                         postgain;
  18:../../libdaisy/src/hid/audio.h ****     };
  19:../../libdaisy/src/hid/audio.h **** 
  20:../../libdaisy/src/hid/audio.h ****     enum class Result
  21:../../libdaisy/src/hid/audio.h ****     {
  22:../../libdaisy/src/hid/audio.h ****         OK,
  23:../../libdaisy/src/hid/audio.h ****         ERR,
ARM GAS  C:\Users\VINCIU~1\AppData\Local\Temp\ccI83ocg.s 			page 6


  24:../../libdaisy/src/hid/audio.h ****     };
  25:../../libdaisy/src/hid/audio.h **** 
  26:../../libdaisy/src/hid/audio.h ****     /** Non-Interleaving input buffer
  27:../../libdaisy/src/hid/audio.h ****      * Buffer arranged by float[chn][sample] 
  28:../../libdaisy/src/hid/audio.h ****      * const so that the user can't modify the input
  29:../../libdaisy/src/hid/audio.h ****     */
  30:../../libdaisy/src/hid/audio.h ****     typedef const float* const* InputBuffer;
  31:../../libdaisy/src/hid/audio.h **** 
  32:../../libdaisy/src/hid/audio.h ****     /** Non-Interleaving output buffer
  33:../../libdaisy/src/hid/audio.h ****      * Arranged by float[chn][sample] 
  34:../../libdaisy/src/hid/audio.h ****     */
  35:../../libdaisy/src/hid/audio.h ****     typedef float** OutputBuffer;
  36:../../libdaisy/src/hid/audio.h **** 
  37:../../libdaisy/src/hid/audio.h ****     /** Type for a Non-Interleaving audio callback 
  38:../../libdaisy/src/hid/audio.h ****    * Non-Interleaving audio callbacks in daisy will be of this type
  39:../../libdaisy/src/hid/audio.h ****   */
  40:../../libdaisy/src/hid/audio.h ****     typedef void (*AudioCallback)(InputBuffer  in,
  41:../../libdaisy/src/hid/audio.h ****                                   OutputBuffer out,
  42:../../libdaisy/src/hid/audio.h ****                                   size_t       size);
  43:../../libdaisy/src/hid/audio.h **** 
  44:../../libdaisy/src/hid/audio.h ****     /** Interleaving Input buffer
  45:../../libdaisy/src/hid/audio.h ****      ** audio is prepared as { L0, R0, L1, R1, . . . LN, RN }]
  46:../../libdaisy/src/hid/audio.h ****      ** this is const, as the user shouldn't modify it
  47:../../libdaisy/src/hid/audio.h ****     */
  48:../../libdaisy/src/hid/audio.h ****     typedef const float* InterleavingInputBuffer;
  49:../../libdaisy/src/hid/audio.h **** 
  50:../../libdaisy/src/hid/audio.h ****     /** Interleaving Output buffer 
  51:../../libdaisy/src/hid/audio.h ****      ** audio is prepared as { L0, R0, L1, R1, . . . LN, RN }
  52:../../libdaisy/src/hid/audio.h ****     */
  53:../../libdaisy/src/hid/audio.h ****     typedef float* InterleavingOutputBuffer;
  54:../../libdaisy/src/hid/audio.h **** 
  55:../../libdaisy/src/hid/audio.h ****     /** Interleaving Audio Callback 
  56:../../libdaisy/src/hid/audio.h ****    * Interleaving audio callbacks in daisy must be of this type
  57:../../libdaisy/src/hid/audio.h ****   */
  58:../../libdaisy/src/hid/audio.h ****     typedef void (*InterleavingAudioCallback)(InterleavingInputBuffer  in,
  59:../../libdaisy/src/hid/audio.h ****                                               InterleavingOutputBuffer out,
  60:../../libdaisy/src/hid/audio.h ****                                               size_t                   size);
  61:../../libdaisy/src/hid/audio.h **** 
  62:../../libdaisy/src/hid/audio.h ****     AudioHandle() : pimpl_(nullptr) {}
  63:../../libdaisy/src/hid/audio.h ****     ~AudioHandle() {}
  56              		.loc 5 63 5 is_stmt 1 view .LVU7
  57              		.loc 5 63 5 is_stmt 0 view .LVU8
  58              	.LBE170:
  59              		.loc 1 22 19 view .LVU9
  60 0000 7047     		bx	lr
  61              		.cfi_endproc
  62              	.LFE1793:
  64              		.weak	_ZN5daisy9DaisySeedD1Ev
  65              		.thumb_set _ZN5daisy9DaisySeedD1Ev,_ZN5daisy9DaisySeedD2Ev
  66 0002 00BF     		.section	.text._ZN7daisysp10OscillatorD2Ev,"axG",%progbits,_ZN7daisysp10OscillatorD5Ev,comdat
  67              		.align	1
  68              		.p2align 2,,3
  69              		.weak	_ZN7daisysp10OscillatorD2Ev
  70              		.syntax unified
  71              		.thumb
  72              		.thumb_func
  73              		.fpu fpv5-d16
ARM GAS  C:\Users\VINCIU~1\AppData\Local\Temp\ccI83ocg.s 			page 7


  75              	_ZN7daisysp10OscillatorD2Ev:
  76              	.LVL1:
  77              	.LFB3482:
  78              		.file 6 "../../DaisySP/Source/Synthesis/oscillator.h"
   1:../../DaisySP/Source/Synthesis/oscillator.h **** #pragma once
   2:../../DaisySP/Source/Synthesis/oscillator.h **** #ifndef DSY_OSCILLATOR_H
   3:../../DaisySP/Source/Synthesis/oscillator.h **** #define DSY_OSCILLATOR_H
   4:../../DaisySP/Source/Synthesis/oscillator.h **** #include <stdint.h>
   5:../../DaisySP/Source/Synthesis/oscillator.h **** #include "Utility/dsp.h"
   6:../../DaisySP/Source/Synthesis/oscillator.h **** #ifdef __cplusplus
   7:../../DaisySP/Source/Synthesis/oscillator.h **** 
   8:../../DaisySP/Source/Synthesis/oscillator.h **** namespace daisysp
   9:../../DaisySP/Source/Synthesis/oscillator.h **** {
  10:../../DaisySP/Source/Synthesis/oscillator.h **** /** Synthesis of several waveforms, including polyBLEP bandlimited waveforms.
  11:../../DaisySP/Source/Synthesis/oscillator.h **** */
  12:../../DaisySP/Source/Synthesis/oscillator.h **** class Oscillator
  13:../../DaisySP/Source/Synthesis/oscillator.h **** {
  14:../../DaisySP/Source/Synthesis/oscillator.h ****   public:
  15:../../DaisySP/Source/Synthesis/oscillator.h ****     Oscillator() {}
  16:../../DaisySP/Source/Synthesis/oscillator.h ****     ~Oscillator() {}
  79              		.loc 6 16 5 is_stmt 1 view -0
  80              		.cfi_startproc
  81              		@ args = 0, pretend = 0, frame = 0
  82              		@ frame_needed = 0, uses_anonymous_args = 0
  83              		@ link register save eliminated.
  84              		.loc 6 16 20 is_stmt 0 view .LVU11
  85 0000 7047     		bx	lr
  86              		.cfi_endproc
  87              	.LFE3482:
  89              		.weak	_ZN7daisysp10OscillatorD1Ev
  90              		.thumb_set _ZN7daisysp10OscillatorD1Ev,_ZN7daisysp10OscillatorD2Ev
  91              		.section	.text._ZN5daisy11OledDisplayINS_13SSD130xDriverILj128ELj64ENS_24SSD130x4WireSpiTransportE
  92              		.align	1
  93              		.p2align 2,,3
  94              		.weak	_ZN5daisy11OledDisplayINS_13SSD130xDriverILj128ELj64ENS_24SSD130x4WireSpiTransportEEEED2Ev
  95              		.syntax unified
  96              		.thumb
  97              		.thumb_func
  98              		.fpu fpv5-d16
 100              	_ZN5daisy11OledDisplayINS_13SSD130xDriverILj128ELj64ENS_24SSD130x4WireSpiTransportEEEED2Ev:
 101              	.LVL2:
 102              	.LFB4598:
 103              		.file 7 "../../libdaisy/src/hid/disp/oled_display.h"
   1:../../libdaisy/src/hid/disp/oled_display.h **** #pragma once
   2:../../libdaisy/src/hid/disp/oled_display.h **** #ifndef DSY_OLED_DISPLAY_H
   3:../../libdaisy/src/hid/disp/oled_display.h **** #define DSY_OLED_DISPLAY_H /**< Macro */
   4:../../libdaisy/src/hid/disp/oled_display.h **** 
   5:../../libdaisy/src/hid/disp/oled_display.h **** #include "display.h"
   6:../../libdaisy/src/hid/disp/oled_display.h **** 
   7:../../libdaisy/src/hid/disp/oled_display.h **** namespace daisy
   8:../../libdaisy/src/hid/disp/oled_display.h **** {
   9:../../libdaisy/src/hid/disp/oled_display.h **** /** 
  10:../../libdaisy/src/hid/disp/oled_display.h ****  * This class is for drawing to a monochrome OLED display. 
  11:../../libdaisy/src/hid/disp/oled_display.h **** */
  12:../../libdaisy/src/hid/disp/oled_display.h **** template <typename DisplayDriver>
  13:../../libdaisy/src/hid/disp/oled_display.h **** class OledDisplay : public OneBitGraphicsDisplayImpl<OledDisplay<DisplayDriver>>
  14:../../libdaisy/src/hid/disp/oled_display.h **** {
ARM GAS  C:\Users\VINCIU~1\AppData\Local\Temp\ccI83ocg.s 			page 8


  15:../../libdaisy/src/hid/disp/oled_display.h ****   public:
  16:../../libdaisy/src/hid/disp/oled_display.h ****     OledDisplay() {}
  17:../../libdaisy/src/hid/disp/oled_display.h ****     virtual ~OledDisplay() {}
 104              		.loc 7 17 13 is_stmt 1 view -0
 105              		.cfi_startproc
 106              		@ args = 0, pretend = 0, frame = 0
 107              		@ frame_needed = 0, uses_anonymous_args = 0
 108              		@ link register save eliminated.
 109              	.LBB171:
 110              	.LBI171:
 111              		.file 8 "../../libdaisy/src/hid/disp/display.h"
   1:../../libdaisy/src/hid/disp/display.h **** #pragma once
   2:../../libdaisy/src/hid/disp/display.h **** #ifndef DSY_DISPLAY_H
   3:../../libdaisy/src/hid/disp/display.h **** #define DSY_DISPLAY_H /**< Macro */
   4:../../libdaisy/src/hid/disp/display.h **** #include <cmath>
   5:../../libdaisy/src/hid/disp/display.h **** #include "util/oled_fonts.h"
   6:../../libdaisy/src/hid/disp/display.h **** #include "daisy_core.h"
   7:../../libdaisy/src/hid/disp/display.h **** 
   8:../../libdaisy/src/hid/disp/display.h **** #ifndef deg2rad
   9:../../libdaisy/src/hid/disp/display.h **** #define deg2rad(deg) ((deg)*3.141592 / 180.0)
  10:../../libdaisy/src/hid/disp/display.h **** #endif
  11:../../libdaisy/src/hid/disp/display.h **** 
  12:../../libdaisy/src/hid/disp/display.h **** namespace daisy
  13:../../libdaisy/src/hid/disp/display.h **** {
  14:../../libdaisy/src/hid/disp/display.h **** /** 
  15:../../libdaisy/src/hid/disp/display.h ****  * This interface is used as a base class for all types of 1bit-per-pixel
  16:../../libdaisy/src/hid/disp/display.h ****  * graphics displays.
  17:../../libdaisy/src/hid/disp/display.h **** */
  18:../../libdaisy/src/hid/disp/display.h **** class OneBitGraphicsDisplay
  19:../../libdaisy/src/hid/disp/display.h **** {
  20:../../libdaisy/src/hid/disp/display.h ****   public:
  21:../../libdaisy/src/hid/disp/display.h ****     OneBitGraphicsDisplay() {}
  22:../../libdaisy/src/hid/disp/display.h ****     virtual ~OneBitGraphicsDisplay() {}
  23:../../libdaisy/src/hid/disp/display.h **** 
  24:../../libdaisy/src/hid/disp/display.h ****     virtual uint16_t Height() const = 0;
  25:../../libdaisy/src/hid/disp/display.h ****     virtual uint16_t Width() const  = 0;
  26:../../libdaisy/src/hid/disp/display.h **** 
  27:../../libdaisy/src/hid/disp/display.h ****     size_t CurrentX() { return currentX_; };
  28:../../libdaisy/src/hid/disp/display.h ****     size_t CurrentY() { return currentY_; };
  29:../../libdaisy/src/hid/disp/display.h **** 
  30:../../libdaisy/src/hid/disp/display.h ****     /** 
  31:../../libdaisy/src/hid/disp/display.h ****     Fills the entire display with either on/off.
  32:../../libdaisy/src/hid/disp/display.h ****     \param on Sets on or off.
  33:../../libdaisy/src/hid/disp/display.h ****     */
  34:../../libdaisy/src/hid/disp/display.h ****     virtual void Fill(bool on) = 0;
  35:../../libdaisy/src/hid/disp/display.h **** 
  36:../../libdaisy/src/hid/disp/display.h ****     /**
  37:../../libdaisy/src/hid/disp/display.h ****     Sets the pixel at the specified coordinate to be on/off.
  38:../../libdaisy/src/hid/disp/display.h ****     \param x   x Coordinate
  39:../../libdaisy/src/hid/disp/display.h ****     \param y   y coordinate
  40:../../libdaisy/src/hid/disp/display.h ****     \param on  on or off
  41:../../libdaisy/src/hid/disp/display.h ****     */
  42:../../libdaisy/src/hid/disp/display.h ****     virtual void DrawPixel(uint_fast8_t x, uint_fast8_t y, bool on) = 0;
  43:../../libdaisy/src/hid/disp/display.h **** 
  44:../../libdaisy/src/hid/disp/display.h ****     /**
  45:../../libdaisy/src/hid/disp/display.h ****     Draws a line from (x1, y1) to (y1, y2)
  46:../../libdaisy/src/hid/disp/display.h ****     \param x1  x Coordinate of the starting point
ARM GAS  C:\Users\VINCIU~1\AppData\Local\Temp\ccI83ocg.s 			page 9


  47:../../libdaisy/src/hid/disp/display.h ****     \param y1  y Coordinate of the starting point
  48:../../libdaisy/src/hid/disp/display.h ****     \param x2  x Coordinate of the ending point
  49:../../libdaisy/src/hid/disp/display.h ****     \param y2  y Coordinate of the ending point
  50:../../libdaisy/src/hid/disp/display.h ****     \param on  on or off
  51:../../libdaisy/src/hid/disp/display.h ****     */
  52:../../libdaisy/src/hid/disp/display.h ****     virtual void DrawLine(uint_fast8_t x1,
  53:../../libdaisy/src/hid/disp/display.h ****                           uint_fast8_t y1,
  54:../../libdaisy/src/hid/disp/display.h ****                           uint_fast8_t x2,
  55:../../libdaisy/src/hid/disp/display.h ****                           uint_fast8_t y2,
  56:../../libdaisy/src/hid/disp/display.h ****                           bool         on)
  57:../../libdaisy/src/hid/disp/display.h ****         = 0;
  58:../../libdaisy/src/hid/disp/display.h **** 
  59:../../libdaisy/src/hid/disp/display.h ****     /**
  60:../../libdaisy/src/hid/disp/display.h ****     Draws a rectangle based on two coordinates.
  61:../../libdaisy/src/hid/disp/display.h ****     \param x1 x Coordinate of the first point
  62:../../libdaisy/src/hid/disp/display.h ****     \param y1 y Coordinate of the first point
  63:../../libdaisy/src/hid/disp/display.h ****     \param x2 x Coordinate of the second point
  64:../../libdaisy/src/hid/disp/display.h ****     \param y2 y Coordinate of the second point
  65:../../libdaisy/src/hid/disp/display.h ****     \param on on or off
  66:../../libdaisy/src/hid/disp/display.h ****     */
  67:../../libdaisy/src/hid/disp/display.h ****     virtual void DrawRect(uint_fast8_t x1,
  68:../../libdaisy/src/hid/disp/display.h ****                           uint_fast8_t y1,
  69:../../libdaisy/src/hid/disp/display.h ****                           uint_fast8_t x2,
  70:../../libdaisy/src/hid/disp/display.h ****                           uint_fast8_t y2,
  71:../../libdaisy/src/hid/disp/display.h ****                           bool         on,
  72:../../libdaisy/src/hid/disp/display.h ****                           bool         fill = false)
  73:../../libdaisy/src/hid/disp/display.h ****         = 0;
  74:../../libdaisy/src/hid/disp/display.h **** 
  75:../../libdaisy/src/hid/disp/display.h ****     /**
  76:../../libdaisy/src/hid/disp/display.h ****     Draws an arc around the specified coordinate
  77:../../libdaisy/src/hid/disp/display.h ****     \param x           x Coordinate of the center of the arc
  78:../../libdaisy/src/hid/disp/display.h ****     \param y           y Coordinate of the center of the arc
  79:../../libdaisy/src/hid/disp/display.h ****     \param radius      radius of the arc
  80:../../libdaisy/src/hid/disp/display.h ****     \param start_angle angle where to start the arc
  81:../../libdaisy/src/hid/disp/display.h ****     \param sweep       total angle of the arc
  82:../../libdaisy/src/hid/disp/display.h ****     \param on  on or off
  83:../../libdaisy/src/hid/disp/display.h ****     */
  84:../../libdaisy/src/hid/disp/display.h ****     virtual void DrawArc(uint_fast8_t x,
  85:../../libdaisy/src/hid/disp/display.h ****                          uint_fast8_t y,
  86:../../libdaisy/src/hid/disp/display.h ****                          uint_fast8_t radius,
  87:../../libdaisy/src/hid/disp/display.h ****                          int_fast16_t start_angle,
  88:../../libdaisy/src/hid/disp/display.h ****                          int_fast16_t sweep,
  89:../../libdaisy/src/hid/disp/display.h ****                          bool         on)
  90:../../libdaisy/src/hid/disp/display.h ****         = 0;
  91:../../libdaisy/src/hid/disp/display.h **** 
  92:../../libdaisy/src/hid/disp/display.h ****     /**
  93:../../libdaisy/src/hid/disp/display.h ****     Draws a circle around the specified coordinate
  94:../../libdaisy/src/hid/disp/display.h ****     \param x           x Coordinate of the center of the circle
  95:../../libdaisy/src/hid/disp/display.h ****     \param y           y Coordinate of the center of the circle
  96:../../libdaisy/src/hid/disp/display.h ****     \param radius      radius of the circle
  97:../../libdaisy/src/hid/disp/display.h ****     \param on  on or off
  98:../../libdaisy/src/hid/disp/display.h ****     */
  99:../../libdaisy/src/hid/disp/display.h ****     void
 100:../../libdaisy/src/hid/disp/display.h ****     DrawCircle(uint_fast8_t x, uint_fast8_t y, uint_fast8_t radius, bool on)
 101:../../libdaisy/src/hid/disp/display.h ****     {
 102:../../libdaisy/src/hid/disp/display.h ****         DrawArc(x, y, radius, 0, 360, on);
 103:../../libdaisy/src/hid/disp/display.h ****     };
ARM GAS  C:\Users\VINCIU~1\AppData\Local\Temp\ccI83ocg.s 			page 10


 104:../../libdaisy/src/hid/disp/display.h **** 
 105:../../libdaisy/src/hid/disp/display.h ****     /** 
 106:../../libdaisy/src/hid/disp/display.h ****     Writes the character with the specific FontDef
 107:../../libdaisy/src/hid/disp/display.h ****     to the display buffer at the current Cursor position.
 108:../../libdaisy/src/hid/disp/display.h ****     \param ch character to be written
 109:../../libdaisy/src/hid/disp/display.h ****     \param font font to be written in
 110:../../libdaisy/src/hid/disp/display.h ****     \param on    on or off
 111:../../libdaisy/src/hid/disp/display.h ****     \return &
 112:../../libdaisy/src/hid/disp/display.h ****     */
 113:../../libdaisy/src/hid/disp/display.h ****     virtual char WriteChar(char ch, FontDef font, bool on) = 0;
 114:../../libdaisy/src/hid/disp/display.h **** 
 115:../../libdaisy/src/hid/disp/display.h ****     /** 
 116:../../libdaisy/src/hid/disp/display.h ****     Similar to WriteChar, except it will handle an entire String.
 117:../../libdaisy/src/hid/disp/display.h ****     Wrapping does not happen automatically, so the width
 118:../../libdaisy/src/hid/disp/display.h ****     of the string must be kept within the dimensions of the screen.
 119:../../libdaisy/src/hid/disp/display.h ****     \param str string to be written
 120:../../libdaisy/src/hid/disp/display.h ****     \param font font to use
 121:../../libdaisy/src/hid/disp/display.h ****     \param on  on or off
 122:../../libdaisy/src/hid/disp/display.h ****     \return &
 123:../../libdaisy/src/hid/disp/display.h ****     */
 124:../../libdaisy/src/hid/disp/display.h ****     virtual char WriteString(const char* str, FontDef font, bool on) = 0;
 125:../../libdaisy/src/hid/disp/display.h **** 
 126:../../libdaisy/src/hid/disp/display.h ****     /** 
 127:../../libdaisy/src/hid/disp/display.h ****     Moves the 'Cursor' position used for WriteChar, and WriteStr to the specified coordinate.
 128:../../libdaisy/src/hid/disp/display.h ****     \param x x pos
 129:../../libdaisy/src/hid/disp/display.h ****     \param y y pos
 130:../../libdaisy/src/hid/disp/display.h ****     */
 131:../../libdaisy/src/hid/disp/display.h ****     void SetCursor(uint16_t x, uint16_t y)
 132:../../libdaisy/src/hid/disp/display.h ****     {
 133:../../libdaisy/src/hid/disp/display.h ****         currentX_ = (x >= Width()) ? Width() - 1 : x;
 134:../../libdaisy/src/hid/disp/display.h ****         currentY_ = (y >= Height()) ? Height() - 1 : y;
 135:../../libdaisy/src/hid/disp/display.h ****     }
 136:../../libdaisy/src/hid/disp/display.h **** 
 137:../../libdaisy/src/hid/disp/display.h ****     /** 
 138:../../libdaisy/src/hid/disp/display.h ****     Writes the current display buffer to the OLED device using SPI or I2C depending on 
 139:../../libdaisy/src/hid/disp/display.h ****     how the object was initialized.
 140:../../libdaisy/src/hid/disp/display.h ****     */
 141:../../libdaisy/src/hid/disp/display.h ****     virtual void Update() = 0;
 142:../../libdaisy/src/hid/disp/display.h **** 
 143:../../libdaisy/src/hid/disp/display.h ****   protected:
 144:../../libdaisy/src/hid/disp/display.h ****     uint16_t currentX_;
 145:../../libdaisy/src/hid/disp/display.h ****     uint16_t currentY_;
 146:../../libdaisy/src/hid/disp/display.h **** };
 147:../../libdaisy/src/hid/disp/display.h **** 
 148:../../libdaisy/src/hid/disp/display.h **** /** This class is intended as a intermediary class for your actual implementation of the OneBitGrap
 149:../../libdaisy/src/hid/disp/display.h ****  *  interface. It uses the CRTP design pattern where the template argument is the child class. It p
 150:../../libdaisy/src/hid/disp/display.h ****  *  implementations for most of the functions, except DrawPixel(), Update() and Fill(), which you'l
 151:../../libdaisy/src/hid/disp/display.h ****  *  to provide in your child class.
 152:../../libdaisy/src/hid/disp/display.h ****  *  The main goal of this class is to provide common drawing functions without relying on massive a
 153:../../libdaisy/src/hid/disp/display.h ****  *  virtual function calls that would result in a performance loss. To achieve this, any drawing fu
 154:../../libdaisy/src/hid/disp/display.h ****  *  is implemented here and internally calls other drawing functions (e.g. DrawRect() which interna
 155:../../libdaisy/src/hid/disp/display.h ****  *  DrawPixel() and DrawLine()) makes these calls via the qualified name of these functions to expl
 156:../../libdaisy/src/hid/disp/display.h ****  *  suppress the virtual dispatch mechanism like this:
 157:../../libdaisy/src/hid/disp/display.h ****  * 
 158:../../libdaisy/src/hid/disp/display.h ****  *      ChildType::DrawPixel(...); // no virtual function call; direct call into the child class fu
 159:../../libdaisy/src/hid/disp/display.h ****  *  
 160:../../libdaisy/src/hid/disp/display.h ****  *  To create a custom OneBitGraphicsDisplay implementation, you can 
ARM GAS  C:\Users\VINCIU~1\AppData\Local\Temp\ccI83ocg.s 			page 11


 161:../../libdaisy/src/hid/disp/display.h ****  *  A) inherit from OneBitGraphicsDisplay directly and provide all the drawing functions yourself
 162:../../libdaisy/src/hid/disp/display.h ****  *  B) Inherit from OneBitGraphicsDisplayImpl and only provide DrawPixel(), Fill() and Update()
 163:../../libdaisy/src/hid/disp/display.h ****  *     like this:
 164:../../libdaisy/src/hid/disp/display.h ****  *  
 165:../../libdaisy/src/hid/disp/display.h ****  *      class MyDisplayClass : public OneBitGraphicsDisplayImpl<MyDisplayClass> 
 166:../../libdaisy/src/hid/disp/display.h ****  *      {
 167:../../libdaisy/src/hid/disp/display.h ****  *      public:
 168:../../libdaisy/src/hid/disp/display.h ****  *          void Fill() override { ... };
 169:../../libdaisy/src/hid/disp/display.h ****  *          void DrawPixel(uint_fast8_t x, uint_fast8_t y, bool on) override { ... };
 170:../../libdaisy/src/hid/disp/display.h ****  *          void Update() override { ... }
 171:../../libdaisy/src/hid/disp/display.h ****  *      };
 172:../../libdaisy/src/hid/disp/display.h ****  *  
 173:../../libdaisy/src/hid/disp/display.h ****  */
 174:../../libdaisy/src/hid/disp/display.h **** template <class ChildType>
 175:../../libdaisy/src/hid/disp/display.h **** class OneBitGraphicsDisplayImpl : public OneBitGraphicsDisplay
 176:../../libdaisy/src/hid/disp/display.h **** {
 177:../../libdaisy/src/hid/disp/display.h ****   public:
 178:../../libdaisy/src/hid/disp/display.h ****     OneBitGraphicsDisplayImpl() {}
 179:../../libdaisy/src/hid/disp/display.h ****     virtual ~OneBitGraphicsDisplayImpl() {}
 112              		.loc 8 179 13 view .LVU13
 113              	.LBB172:
 114              	.LBI172:
  22:../../libdaisy/src/hid/disp/display.h **** 
 115              		.loc 8 22 13 view .LVU14
  22:../../libdaisy/src/hid/disp/display.h **** 
 116              		.loc 8 22 13 is_stmt 0 view .LVU15
 117              	.LBE172:
 118              	.LBE171:
 119              		.loc 7 17 29 view .LVU16
 120 0000 7047     		bx	lr
 121              		.cfi_endproc
 122              	.LFE4598:
 124              		.weak	_ZN5daisy11OledDisplayINS_13SSD130xDriverILj128ELj64ENS_24SSD130x4WireSpiTransportEEEED1Ev
 125              		.thumb_set _ZN5daisy11OledDisplayINS_13SSD130xDriverILj128ELj64ENS_24SSD130x4WireSpiTransportEEEED
 126 0002 00BF     		.section	.text._ZNK5daisy11OledDisplayINS_13SSD130xDriverILj128ELj64ENS_24SSD130x4WireSpiTransport
 127              		.align	1
 128              		.p2align 2,,3
 129              		.weak	_ZNK5daisy11OledDisplayINS_13SSD130xDriverILj128ELj64ENS_24SSD130x4WireSpiTransportEEEE6Heig
 130              		.syntax unified
 131              		.thumb
 132              		.thumb_func
 133              		.fpu fpv5-d16
 135              	_ZNK5daisy11OledDisplayINS_13SSD130xDriverILj128ELj64ENS_24SSD130x4WireSpiTransportEEEE6HeightEv:
 136              	.LVL3:
 137              	.LFB4601:
  18:../../libdaisy/src/hid/disp/oled_display.h **** 
  19:../../libdaisy/src/hid/disp/oled_display.h ****     struct Config
  20:../../libdaisy/src/hid/disp/oled_display.h ****     {
  21:../../libdaisy/src/hid/disp/oled_display.h ****         typename DisplayDriver::Config driver_config;
  22:../../libdaisy/src/hid/disp/oled_display.h ****     };
  23:../../libdaisy/src/hid/disp/oled_display.h **** 
  24:../../libdaisy/src/hid/disp/oled_display.h ****     void Init(Config config) { driver_.Init(config.driver_config); }
  25:../../libdaisy/src/hid/disp/oled_display.h **** 
  26:../../libdaisy/src/hid/disp/oled_display.h ****     uint16_t Height() const override { return driver_.Height(); }
 138              		.loc 7 26 14 is_stmt 1 view -0
 139              		.cfi_startproc
 140              		@ args = 0, pretend = 0, frame = 0
ARM GAS  C:\Users\VINCIU~1\AppData\Local\Temp\ccI83ocg.s 			page 12


 141              		@ frame_needed = 0, uses_anonymous_args = 0
 142              		@ link register save eliminated.
 143              		.loc 7 26 65 is_stmt 0 view .LVU18
 144 0000 4020     		movs	r0, #64
 145              	.LVL4:
 146              		.loc 7 26 65 view .LVU19
 147 0002 7047     		bx	lr
 148              		.cfi_endproc
 149              	.LFE4601:
 151              		.section	.text._ZNK5daisy11OledDisplayINS_13SSD130xDriverILj128ELj64ENS_24SSD130x4WireSpiTransport
 152              		.align	1
 153              		.p2align 2,,3
 154              		.weak	_ZNK5daisy11OledDisplayINS_13SSD130xDriverILj128ELj64ENS_24SSD130x4WireSpiTransportEEEE5Widt
 155              		.syntax unified
 156              		.thumb
 157              		.thumb_func
 158              		.fpu fpv5-d16
 160              	_ZNK5daisy11OledDisplayINS_13SSD130xDriverILj128ELj64ENS_24SSD130x4WireSpiTransportEEEE5WidthEv:
 161              	.LVL5:
 162              	.LFB4602:
  27:../../libdaisy/src/hid/disp/oled_display.h ****     uint16_t Width() const override { return driver_.Width(); }
 163              		.loc 7 27 14 is_stmt 1 view -0
 164              		.cfi_startproc
 165              		@ args = 0, pretend = 0, frame = 0
 166              		@ frame_needed = 0, uses_anonymous_args = 0
 167              		@ link register save eliminated.
 168              		.loc 7 27 63 is_stmt 0 view .LVU21
 169 0000 8020     		movs	r0, #128
 170              	.LVL6:
 171              		.loc 7 27 63 view .LVU22
 172 0002 7047     		bx	lr
 173              		.cfi_endproc
 174              	.LFE4602:
 176              		.section	.text._ZN5daisy11OledDisplayINS_13SSD130xDriverILj128ELj64ENS_24SSD130x4WireSpiTransportE
 177              		.align	1
 178              		.p2align 2,,3
 179              		.weak	_ZN5daisy11OledDisplayINS_13SSD130xDriverILj128ELj64ENS_24SSD130x4WireSpiTransportEEEE4FillE
 180              		.syntax unified
 181              		.thumb
 182              		.thumb_func
 183              		.fpu fpv5-d16
 185              	_ZN5daisy11OledDisplayINS_13SSD130xDriverILj128ELj64ENS_24SSD130x4WireSpiTransportEEEE4FillEb:
 186              	.LVL7:
 187              	.LFB4603:
  28:../../libdaisy/src/hid/disp/oled_display.h **** 
  29:../../libdaisy/src/hid/disp/oled_display.h ****     /** 
  30:../../libdaisy/src/hid/disp/oled_display.h ****     Fills the entire display with either on/off.
  31:../../libdaisy/src/hid/disp/oled_display.h ****     \param on Sets on or off.
  32:../../libdaisy/src/hid/disp/oled_display.h ****     */
  33:../../libdaisy/src/hid/disp/oled_display.h ****     void Fill(bool on) override { driver_.Fill(on); }
 188              		.loc 7 33 10 is_stmt 1 view -0
 189              		.cfi_startproc
 190              		@ args = 0, pretend = 0, frame = 0
 191              		@ frame_needed = 0, uses_anonymous_args = 0
 192              		@ link register save eliminated.
 193              	.LBB173:
 194              	.LBI173:
ARM GAS  C:\Users\VINCIU~1\AppData\Local\Temp\ccI83ocg.s 			page 13


 195              		.file 9 "../../libdaisy/src/dev/oled_ssd130x.h"
   1:../../libdaisy/src/dev/oled_ssd130x.h **** #pragma once
   2:../../libdaisy/src/dev/oled_ssd130x.h **** #ifndef SA_OLED_SSD130X_H
   3:../../libdaisy/src/dev/oled_ssd130x.h **** #define SA_OLED_SSD130X_H /**< & */
   4:../../libdaisy/src/dev/oled_ssd130x.h **** 
   5:../../libdaisy/src/dev/oled_ssd130x.h **** #include "per/i2c.h"
   6:../../libdaisy/src/dev/oled_ssd130x.h **** #include "per/spi.h"
   7:../../libdaisy/src/dev/oled_ssd130x.h **** #include "per/gpio.h"
   8:../../libdaisy/src/dev/oled_ssd130x.h **** #include "sys/system.h"
   9:../../libdaisy/src/dev/oled_ssd130x.h **** 
  10:../../libdaisy/src/dev/oled_ssd130x.h **** namespace daisy
  11:../../libdaisy/src/dev/oled_ssd130x.h **** {
  12:../../libdaisy/src/dev/oled_ssd130x.h **** /**
  13:../../libdaisy/src/dev/oled_ssd130x.h ****  * I2C Transport for SSD1306 / SSD1309 OLED display devices
  14:../../libdaisy/src/dev/oled_ssd130x.h ****  */
  15:../../libdaisy/src/dev/oled_ssd130x.h **** class SSD130xI2CTransport
  16:../../libdaisy/src/dev/oled_ssd130x.h **** {
  17:../../libdaisy/src/dev/oled_ssd130x.h ****   public:
  18:../../libdaisy/src/dev/oled_ssd130x.h ****     struct Config
  19:../../libdaisy/src/dev/oled_ssd130x.h ****     {
  20:../../libdaisy/src/dev/oled_ssd130x.h ****         I2CHandle::Config i2c_config;
  21:../../libdaisy/src/dev/oled_ssd130x.h ****         uint8_t           i2c_address;
  22:../../libdaisy/src/dev/oled_ssd130x.h ****         void              Defaults()
  23:../../libdaisy/src/dev/oled_ssd130x.h ****         {
  24:../../libdaisy/src/dev/oled_ssd130x.h ****             i2c_config.periph         = I2CHandle::Config::Peripheral::I2C_1;
  25:../../libdaisy/src/dev/oled_ssd130x.h ****             i2c_config.speed          = I2CHandle::Config::Speed::I2C_1MHZ;
  26:../../libdaisy/src/dev/oled_ssd130x.h ****             i2c_config.mode           = I2CHandle::Config::Mode::I2C_MASTER;
  27:../../libdaisy/src/dev/oled_ssd130x.h ****             i2c_config.pin_config.scl = {DSY_GPIOB, 8};
  28:../../libdaisy/src/dev/oled_ssd130x.h ****             i2c_config.pin_config.sda = {DSY_GPIOB, 9};
  29:../../libdaisy/src/dev/oled_ssd130x.h ****             i2c_address               = 0x3C;
  30:../../libdaisy/src/dev/oled_ssd130x.h ****         }
  31:../../libdaisy/src/dev/oled_ssd130x.h ****     };
  32:../../libdaisy/src/dev/oled_ssd130x.h ****     void Init(const Config& config)
  33:../../libdaisy/src/dev/oled_ssd130x.h ****     {
  34:../../libdaisy/src/dev/oled_ssd130x.h ****         i2c_address_ = config.i2c_address;
  35:../../libdaisy/src/dev/oled_ssd130x.h ****         i2c_.Init(config.i2c_config);
  36:../../libdaisy/src/dev/oled_ssd130x.h ****     };
  37:../../libdaisy/src/dev/oled_ssd130x.h ****     void SendCommand(uint8_t cmd)
  38:../../libdaisy/src/dev/oled_ssd130x.h ****     {
  39:../../libdaisy/src/dev/oled_ssd130x.h ****         uint8_t buf[2] = {0X00, cmd};
  40:../../libdaisy/src/dev/oled_ssd130x.h ****         i2c_.TransmitBlocking(i2c_address_, buf, 2, 1000);
  41:../../libdaisy/src/dev/oled_ssd130x.h ****     };
  42:../../libdaisy/src/dev/oled_ssd130x.h **** 
  43:../../libdaisy/src/dev/oled_ssd130x.h ****     void SendData(uint8_t* buff, size_t size)
  44:../../libdaisy/src/dev/oled_ssd130x.h ****     {
  45:../../libdaisy/src/dev/oled_ssd130x.h ****         for(size_t i = 0; i < size; i++)
  46:../../libdaisy/src/dev/oled_ssd130x.h ****         {
  47:../../libdaisy/src/dev/oled_ssd130x.h ****             uint8_t buf[2] = {0X40, buff[i]};
  48:../../libdaisy/src/dev/oled_ssd130x.h ****             i2c_.TransmitBlocking(i2c_address_, buf, 2, 1000);
  49:../../libdaisy/src/dev/oled_ssd130x.h ****         }
  50:../../libdaisy/src/dev/oled_ssd130x.h ****     };
  51:../../libdaisy/src/dev/oled_ssd130x.h **** 
  52:../../libdaisy/src/dev/oled_ssd130x.h ****   private:
  53:../../libdaisy/src/dev/oled_ssd130x.h ****     daisy::I2CHandle i2c_;
  54:../../libdaisy/src/dev/oled_ssd130x.h ****     uint8_t          i2c_address_;
  55:../../libdaisy/src/dev/oled_ssd130x.h **** };
  56:../../libdaisy/src/dev/oled_ssd130x.h **** 
ARM GAS  C:\Users\VINCIU~1\AppData\Local\Temp\ccI83ocg.s 			page 14


  57:../../libdaisy/src/dev/oled_ssd130x.h **** /**
  58:../../libdaisy/src/dev/oled_ssd130x.h ****  * 4 Wire SPI Transport for SSD1306 / SSD1309 OLED display devices
  59:../../libdaisy/src/dev/oled_ssd130x.h ****  */
  60:../../libdaisy/src/dev/oled_ssd130x.h **** class SSD130x4WireSpiTransport
  61:../../libdaisy/src/dev/oled_ssd130x.h **** {
  62:../../libdaisy/src/dev/oled_ssd130x.h ****   public:
  63:../../libdaisy/src/dev/oled_ssd130x.h ****     struct Config
  64:../../libdaisy/src/dev/oled_ssd130x.h ****     {
  65:../../libdaisy/src/dev/oled_ssd130x.h ****         struct
  66:../../libdaisy/src/dev/oled_ssd130x.h ****         {
  67:../../libdaisy/src/dev/oled_ssd130x.h ****             dsy_gpio_pin dc;    /**< & */
  68:../../libdaisy/src/dev/oled_ssd130x.h ****             dsy_gpio_pin reset; /**< & */
  69:../../libdaisy/src/dev/oled_ssd130x.h ****         } pin_config;
  70:../../libdaisy/src/dev/oled_ssd130x.h ****         void Defaults()
  71:../../libdaisy/src/dev/oled_ssd130x.h ****         {
  72:../../libdaisy/src/dev/oled_ssd130x.h ****             pin_config.dc    = {DSY_GPIOB, 4};
  73:../../libdaisy/src/dev/oled_ssd130x.h ****             pin_config.reset = {DSY_GPIOB, 15};
  74:../../libdaisy/src/dev/oled_ssd130x.h ****         }
  75:../../libdaisy/src/dev/oled_ssd130x.h ****     };
  76:../../libdaisy/src/dev/oled_ssd130x.h ****     void Init(const Config& config)
  77:../../libdaisy/src/dev/oled_ssd130x.h ****     {
  78:../../libdaisy/src/dev/oled_ssd130x.h ****         // Initialize both GPIO
  79:../../libdaisy/src/dev/oled_ssd130x.h ****         pin_dc_.mode = DSY_GPIO_MODE_OUTPUT_PP;
  80:../../libdaisy/src/dev/oled_ssd130x.h ****         pin_dc_.pin  = config.pin_config.dc;
  81:../../libdaisy/src/dev/oled_ssd130x.h ****         dsy_gpio_init(&pin_dc_);
  82:../../libdaisy/src/dev/oled_ssd130x.h ****         pin_reset_.mode = DSY_GPIO_MODE_OUTPUT_PP;
  83:../../libdaisy/src/dev/oled_ssd130x.h ****         pin_reset_.pin  = config.pin_config.reset;
  84:../../libdaisy/src/dev/oled_ssd130x.h ****         dsy_gpio_init(&pin_reset_);
  85:../../libdaisy/src/dev/oled_ssd130x.h ****         // Initialize SPI
  86:../../libdaisy/src/dev/oled_ssd130x.h ****         SpiHandle::Config spi_config;
  87:../../libdaisy/src/dev/oled_ssd130x.h ****         spi_config.periph    = SpiHandle::Config::Peripheral::SPI_1;
  88:../../libdaisy/src/dev/oled_ssd130x.h ****         spi_config.mode      = SpiHandle::Config::Mode::MASTER;
  89:../../libdaisy/src/dev/oled_ssd130x.h ****         spi_config.direction = SpiHandle::Config::Direction::TWO_LINES_TX_ONLY;
  90:../../libdaisy/src/dev/oled_ssd130x.h ****         spi_config.datasize  = 8;
  91:../../libdaisy/src/dev/oled_ssd130x.h ****         spi_config.clock_polarity = SpiHandle::Config::ClockPolarity::LOW;
  92:../../libdaisy/src/dev/oled_ssd130x.h ****         spi_config.clock_phase    = SpiHandle::Config::ClockPhase::ONE_EDGE;
  93:../../libdaisy/src/dev/oled_ssd130x.h ****         spi_config.nss            = SpiHandle::Config::NSS::HARD_OUTPUT;
  94:../../libdaisy/src/dev/oled_ssd130x.h ****         spi_config.baud_prescaler = SpiHandle::Config::BaudPrescaler::PS_8;
  95:../../libdaisy/src/dev/oled_ssd130x.h **** 
  96:../../libdaisy/src/dev/oled_ssd130x.h ****         spi_config.pin_config.sclk = {DSY_GPIOG, 11};
  97:../../libdaisy/src/dev/oled_ssd130x.h ****         spi_config.pin_config.miso = {DSY_GPIOX, 0};
  98:../../libdaisy/src/dev/oled_ssd130x.h ****         spi_config.pin_config.mosi = {DSY_GPIOB, 5};
  99:../../libdaisy/src/dev/oled_ssd130x.h ****         spi_config.pin_config.nss  = {DSY_GPIOG, 10};
 100:../../libdaisy/src/dev/oled_ssd130x.h **** 
 101:../../libdaisy/src/dev/oled_ssd130x.h ****         spi_.Init(spi_config);
 102:../../libdaisy/src/dev/oled_ssd130x.h **** 
 103:../../libdaisy/src/dev/oled_ssd130x.h ****         // Reset and Configure OLED.
 104:../../libdaisy/src/dev/oled_ssd130x.h ****         dsy_gpio_write(&pin_reset_, 0);
 105:../../libdaisy/src/dev/oled_ssd130x.h ****         System::Delay(10);
 106:../../libdaisy/src/dev/oled_ssd130x.h ****         dsy_gpio_write(&pin_reset_, 1);
 107:../../libdaisy/src/dev/oled_ssd130x.h ****         System::Delay(10);
 108:../../libdaisy/src/dev/oled_ssd130x.h ****     };
 109:../../libdaisy/src/dev/oled_ssd130x.h ****     void SendCommand(uint8_t cmd)
 110:../../libdaisy/src/dev/oled_ssd130x.h ****     {
 111:../../libdaisy/src/dev/oled_ssd130x.h ****         dsy_gpio_write(&pin_dc_, 0);
 112:../../libdaisy/src/dev/oled_ssd130x.h ****         spi_.BlockingTransmit(&cmd, 1);
 113:../../libdaisy/src/dev/oled_ssd130x.h ****     };
ARM GAS  C:\Users\VINCIU~1\AppData\Local\Temp\ccI83ocg.s 			page 15


 114:../../libdaisy/src/dev/oled_ssd130x.h **** 
 115:../../libdaisy/src/dev/oled_ssd130x.h ****     void SendData(uint8_t* buff, size_t size)
 116:../../libdaisy/src/dev/oled_ssd130x.h ****     {
 117:../../libdaisy/src/dev/oled_ssd130x.h ****         dsy_gpio_write(&pin_dc_, 1);
 118:../../libdaisy/src/dev/oled_ssd130x.h ****         spi_.BlockingTransmit(buff, size);
 119:../../libdaisy/src/dev/oled_ssd130x.h ****     };
 120:../../libdaisy/src/dev/oled_ssd130x.h **** 
 121:../../libdaisy/src/dev/oled_ssd130x.h ****   private:
 122:../../libdaisy/src/dev/oled_ssd130x.h ****     SpiHandle spi_;
 123:../../libdaisy/src/dev/oled_ssd130x.h ****     dsy_gpio  pin_reset_;
 124:../../libdaisy/src/dev/oled_ssd130x.h ****     dsy_gpio  pin_dc_;
 125:../../libdaisy/src/dev/oled_ssd130x.h **** };
 126:../../libdaisy/src/dev/oled_ssd130x.h **** 
 127:../../libdaisy/src/dev/oled_ssd130x.h **** 
 128:../../libdaisy/src/dev/oled_ssd130x.h **** /**
 129:../../libdaisy/src/dev/oled_ssd130x.h ****  * A driver implementation for the SSD1306/SSD1309
 130:../../libdaisy/src/dev/oled_ssd130x.h ****  */
 131:../../libdaisy/src/dev/oled_ssd130x.h **** template <size_t width, size_t height, typename Transport>
 132:../../libdaisy/src/dev/oled_ssd130x.h **** class SSD130xDriver
 133:../../libdaisy/src/dev/oled_ssd130x.h **** {
 134:../../libdaisy/src/dev/oled_ssd130x.h ****   public:
 135:../../libdaisy/src/dev/oled_ssd130x.h ****     struct Config
 136:../../libdaisy/src/dev/oled_ssd130x.h ****     {
 137:../../libdaisy/src/dev/oled_ssd130x.h ****         typename Transport::Config transport_config;
 138:../../libdaisy/src/dev/oled_ssd130x.h ****     };
 139:../../libdaisy/src/dev/oled_ssd130x.h **** 
 140:../../libdaisy/src/dev/oled_ssd130x.h ****     void Init(Config config)
 141:../../libdaisy/src/dev/oled_ssd130x.h ****     {
 142:../../libdaisy/src/dev/oled_ssd130x.h ****         transport_.Init(config.transport_config);
 143:../../libdaisy/src/dev/oled_ssd130x.h **** 
 144:../../libdaisy/src/dev/oled_ssd130x.h ****         // Init routine...
 145:../../libdaisy/src/dev/oled_ssd130x.h **** 
 146:../../libdaisy/src/dev/oled_ssd130x.h ****         // Display Off
 147:../../libdaisy/src/dev/oled_ssd130x.h ****         transport_.SendCommand(0xaE);
 148:../../libdaisy/src/dev/oled_ssd130x.h ****         // Dimension dependent commands...
 149:../../libdaisy/src/dev/oled_ssd130x.h ****         switch(height)
 150:../../libdaisy/src/dev/oled_ssd130x.h ****         {
 151:../../libdaisy/src/dev/oled_ssd130x.h ****             case 16:
 152:../../libdaisy/src/dev/oled_ssd130x.h ****                 // Display Clock Divide Ratio
 153:../../libdaisy/src/dev/oled_ssd130x.h ****                 transport_.SendCommand(0xD5);
 154:../../libdaisy/src/dev/oled_ssd130x.h ****                 transport_.SendCommand(0x60);
 155:../../libdaisy/src/dev/oled_ssd130x.h ****                 // Multiplex Ratio
 156:../../libdaisy/src/dev/oled_ssd130x.h ****                 transport_.SendCommand(0xA8);
 157:../../libdaisy/src/dev/oled_ssd130x.h ****                 transport_.SendCommand(0x0F);
 158:../../libdaisy/src/dev/oled_ssd130x.h ****                 // COM Pins
 159:../../libdaisy/src/dev/oled_ssd130x.h ****                 transport_.SendCommand(0xDA);
 160:../../libdaisy/src/dev/oled_ssd130x.h ****                 transport_.SendCommand(0x02);
 161:../../libdaisy/src/dev/oled_ssd130x.h ****                 break;
 162:../../libdaisy/src/dev/oled_ssd130x.h ****             case 32:
 163:../../libdaisy/src/dev/oled_ssd130x.h ****                 // Display Clock Divide Ratio
 164:../../libdaisy/src/dev/oled_ssd130x.h ****                 transport_.SendCommand(0xD5);
 165:../../libdaisy/src/dev/oled_ssd130x.h ****                 transport_.SendCommand(0x80);
 166:../../libdaisy/src/dev/oled_ssd130x.h ****                 // Multiplex Ratio
 167:../../libdaisy/src/dev/oled_ssd130x.h ****                 transport_.SendCommand(0xA8);
 168:../../libdaisy/src/dev/oled_ssd130x.h ****                 transport_.SendCommand(0x1F);
 169:../../libdaisy/src/dev/oled_ssd130x.h ****                 // COM Pins
 170:../../libdaisy/src/dev/oled_ssd130x.h ****                 transport_.SendCommand(0xDA);
ARM GAS  C:\Users\VINCIU~1\AppData\Local\Temp\ccI83ocg.s 			page 16


 171:../../libdaisy/src/dev/oled_ssd130x.h ****                 if(width == 64)
 172:../../libdaisy/src/dev/oled_ssd130x.h ****                 {
 173:../../libdaisy/src/dev/oled_ssd130x.h ****                     transport_.SendCommand(0x12);
 174:../../libdaisy/src/dev/oled_ssd130x.h ****                 }
 175:../../libdaisy/src/dev/oled_ssd130x.h ****                 else
 176:../../libdaisy/src/dev/oled_ssd130x.h ****                 {
 177:../../libdaisy/src/dev/oled_ssd130x.h ****                     transport_.SendCommand(0x02);
 178:../../libdaisy/src/dev/oled_ssd130x.h ****                 }
 179:../../libdaisy/src/dev/oled_ssd130x.h **** 
 180:../../libdaisy/src/dev/oled_ssd130x.h ****                 break;
 181:../../libdaisy/src/dev/oled_ssd130x.h ****             case 48:
 182:../../libdaisy/src/dev/oled_ssd130x.h ****                 // Display Clock Divide Ratio
 183:../../libdaisy/src/dev/oled_ssd130x.h ****                 transport_.SendCommand(0xD5);
 184:../../libdaisy/src/dev/oled_ssd130x.h ****                 transport_.SendCommand(0x80);
 185:../../libdaisy/src/dev/oled_ssd130x.h ****                 // Multiplex Ratio
 186:../../libdaisy/src/dev/oled_ssd130x.h ****                 transport_.SendCommand(0xA8);
 187:../../libdaisy/src/dev/oled_ssd130x.h ****                 transport_.SendCommand(0x2F);
 188:../../libdaisy/src/dev/oled_ssd130x.h ****                 // COM Pins
 189:../../libdaisy/src/dev/oled_ssd130x.h ****                 transport_.SendCommand(0xDA);
 190:../../libdaisy/src/dev/oled_ssd130x.h ****                 transport_.SendCommand(0x12);
 191:../../libdaisy/src/dev/oled_ssd130x.h ****                 break;
 192:../../libdaisy/src/dev/oled_ssd130x.h ****             default: // 128
 193:../../libdaisy/src/dev/oled_ssd130x.h ****                 // Display Clock Divide Ratio
 194:../../libdaisy/src/dev/oled_ssd130x.h ****                 transport_.SendCommand(0xD5);
 195:../../libdaisy/src/dev/oled_ssd130x.h ****                 transport_.SendCommand(0x80);
 196:../../libdaisy/src/dev/oled_ssd130x.h ****                 // Multiplex Ratio
 197:../../libdaisy/src/dev/oled_ssd130x.h ****                 transport_.SendCommand(0xA8);
 198:../../libdaisy/src/dev/oled_ssd130x.h ****                 transport_.SendCommand(0x3F);
 199:../../libdaisy/src/dev/oled_ssd130x.h ****                 // COM Pins
 200:../../libdaisy/src/dev/oled_ssd130x.h ****                 transport_.SendCommand(0xDA);
 201:../../libdaisy/src/dev/oled_ssd130x.h ****                 transport_.SendCommand(0x12);
 202:../../libdaisy/src/dev/oled_ssd130x.h ****                 break;
 203:../../libdaisy/src/dev/oled_ssd130x.h ****         }
 204:../../libdaisy/src/dev/oled_ssd130x.h **** 
 205:../../libdaisy/src/dev/oled_ssd130x.h ****         // Display Offset
 206:../../libdaisy/src/dev/oled_ssd130x.h ****         transport_.SendCommand(0xD3);
 207:../../libdaisy/src/dev/oled_ssd130x.h ****         transport_.SendCommand(0x00);
 208:../../libdaisy/src/dev/oled_ssd130x.h ****         // Start Line Address
 209:../../libdaisy/src/dev/oled_ssd130x.h ****         transport_.SendCommand(0x40);
 210:../../libdaisy/src/dev/oled_ssd130x.h ****         // Normal Display
 211:../../libdaisy/src/dev/oled_ssd130x.h ****         transport_.SendCommand(0xA6);
 212:../../libdaisy/src/dev/oled_ssd130x.h ****         // All On Resume
 213:../../libdaisy/src/dev/oled_ssd130x.h ****         transport_.SendCommand(0xA4);
 214:../../libdaisy/src/dev/oled_ssd130x.h ****         // Charge Pump
 215:../../libdaisy/src/dev/oled_ssd130x.h ****         transport_.SendCommand(0x8D);
 216:../../libdaisy/src/dev/oled_ssd130x.h ****         transport_.SendCommand(0x14);
 217:../../libdaisy/src/dev/oled_ssd130x.h ****         // Set Segment Remap
 218:../../libdaisy/src/dev/oled_ssd130x.h ****         transport_.SendCommand(0xA1);
 219:../../libdaisy/src/dev/oled_ssd130x.h ****         // COM Output Scan Direction
 220:../../libdaisy/src/dev/oled_ssd130x.h ****         transport_.SendCommand(0xC8);
 221:../../libdaisy/src/dev/oled_ssd130x.h ****         // Contrast Control
 222:../../libdaisy/src/dev/oled_ssd130x.h ****         transport_.SendCommand(0x81);
 223:../../libdaisy/src/dev/oled_ssd130x.h ****         transport_.SendCommand(0x8F);
 224:../../libdaisy/src/dev/oled_ssd130x.h ****         // Pre Charge
 225:../../libdaisy/src/dev/oled_ssd130x.h ****         transport_.SendCommand(0xD9);
 226:../../libdaisy/src/dev/oled_ssd130x.h ****         transport_.SendCommand(0x25);
 227:../../libdaisy/src/dev/oled_ssd130x.h ****         // VCOM Detect
ARM GAS  C:\Users\VINCIU~1\AppData\Local\Temp\ccI83ocg.s 			page 17


 228:../../libdaisy/src/dev/oled_ssd130x.h ****         transport_.SendCommand(0xDB);
 229:../../libdaisy/src/dev/oled_ssd130x.h ****         transport_.SendCommand(0x34);
 230:../../libdaisy/src/dev/oled_ssd130x.h **** 
 231:../../libdaisy/src/dev/oled_ssd130x.h **** 
 232:../../libdaisy/src/dev/oled_ssd130x.h ****         // Display On
 233:../../libdaisy/src/dev/oled_ssd130x.h ****         transport_.SendCommand(0xAF); //--turn on oled panel
 234:../../libdaisy/src/dev/oled_ssd130x.h ****     };
 235:../../libdaisy/src/dev/oled_ssd130x.h **** 
 236:../../libdaisy/src/dev/oled_ssd130x.h ****     size_t Width() const { return width; };
 237:../../libdaisy/src/dev/oled_ssd130x.h ****     size_t Height() const { return height; };
 238:../../libdaisy/src/dev/oled_ssd130x.h **** 
 239:../../libdaisy/src/dev/oled_ssd130x.h ****     void DrawPixel(uint_fast8_t x, uint_fast8_t y, bool on)
 240:../../libdaisy/src/dev/oled_ssd130x.h ****     {
 241:../../libdaisy/src/dev/oled_ssd130x.h ****         if(x >= width || y >= height)
 242:../../libdaisy/src/dev/oled_ssd130x.h ****             return;
 243:../../libdaisy/src/dev/oled_ssd130x.h ****         if(on)
 244:../../libdaisy/src/dev/oled_ssd130x.h ****             buffer_[x + (y / 8) * width] |= (1 << (y % 8));
 245:../../libdaisy/src/dev/oled_ssd130x.h ****         else
 246:../../libdaisy/src/dev/oled_ssd130x.h ****             buffer_[x + (y / 8) * width] &= ~(1 << (y % 8));
 247:../../libdaisy/src/dev/oled_ssd130x.h ****     }
 248:../../libdaisy/src/dev/oled_ssd130x.h **** 
 249:../../libdaisy/src/dev/oled_ssd130x.h ****     void Fill(bool on)
 196              		.loc 9 249 10 view .LVU24
 197              	.LBB174:
 250:../../libdaisy/src/dev/oled_ssd130x.h ****     {
 251:../../libdaisy/src/dev/oled_ssd130x.h ****         for(size_t i = 0; i < sizeof(buffer_); i++)
 198              		.loc 9 251 29 view .LVU25
 252:../../libdaisy/src/dev/oled_ssd130x.h ****         {
 253:../../libdaisy/src/dev/oled_ssd130x.h ****             buffer_[i] = on ? 0xff : 0x00;
 199              		.loc 9 253 24 is_stmt 0 view .LVU26
 200 0000 4942     		rsbs	r1, r1, #0
 201              	.LVL8:
 202              		.loc 9 253 24 view .LVU27
 203 0002 4FF48062 		mov	r2, #1024
 204 0006 1430     		adds	r0, r0, #20
 205              	.LVL9:
 206              		.loc 9 253 24 view .LVU28
 207 0008 C9B2     		uxtb	r1, r1
 208 000a FFF7FEBF 		b	memset
 209              	.LVL10:
 210              		.loc 9 253 24 view .LVU29
 211              	.LBE174:
 212              	.LBE173:
 213              		.cfi_endproc
 214              	.LFE4603:
 216 000e 00BF     		.section	.text._Z13AudioCallbackPKPKfPPfj,"ax",%progbits
 217              		.align	1
 218              		.p2align 2,,3
 219              		.global	_Z13AudioCallbackPKPKfPPfj
 220              		.syntax unified
 221              		.thumb
 222              		.thumb_func
 223              		.fpu fpv5-d16
 225              	_Z13AudioCallbackPKPKfPPfj:
 226              	.LVL11:
 227              	.LFB4037:
 228              		.file 10 "metamorphic_project.cpp"
ARM GAS  C:\Users\VINCIU~1\AppData\Local\Temp\ccI83ocg.s 			page 18


   1:metamorphic_project.cpp **** //INCLUDES
   2:metamorphic_project.cpp **** #include <stdio.h>
   3:metamorphic_project.cpp **** #include <string.h>
   4:metamorphic_project.cpp **** #include "daisy_seed.h"
   5:metamorphic_project.cpp **** #include "daisysp.h"
   6:metamorphic_project.cpp **** #include "dev/oled_ssd130x.h"
   7:metamorphic_project.cpp **** #include "globalFunc.h"
   8:metamorphic_project.cpp **** #include "menus.h"
   9:metamorphic_project.cpp **** //USING
  10:metamorphic_project.cpp **** using namespace daisy;
  11:metamorphic_project.cpp **** using namespace daisysp;
  12:metamorphic_project.cpp **** using SynthOled = OledDisplay<SSD130x4WireSpi128x64Driver>;
  13:metamorphic_project.cpp **** //VARIABLES
  14:metamorphic_project.cpp **** DaisySeed  hw;
  15:metamorphic_project.cpp **** SynthOled  display;
  16:metamorphic_project.cpp **** Menus      synthMenus;
  17:metamorphic_project.cpp **** Oscillator osc;
  18:metamorphic_project.cpp **** 
  19:metamorphic_project.cpp **** 
  20:metamorphic_project.cpp **** void AudioCallback(AudioHandle::InputBuffer  in,
  21:metamorphic_project.cpp ****                    AudioHandle::OutputBuffer out,
  22:metamorphic_project.cpp ****                    size_t                    size)
  23:metamorphic_project.cpp **** {
 229              		.loc 10 23 1 is_stmt 1 view -0
 230              		.cfi_startproc
 231              		@ args = 0, pretend = 0, frame = 0
 232              		@ frame_needed = 0, uses_anonymous_args = 0
  24:metamorphic_project.cpp ****     float osc_out;
 233              		.loc 10 24 5 view .LVU31
  25:metamorphic_project.cpp ****     for(size_t i = 0; i < size; i++)
 234              		.loc 10 25 5 view .LVU32
 235              	.LBB175:
 236              		.loc 10 25 25 view .LVU33
 237 0000 A2B1     		cbz	r2, .L16
 238              	.LBE175:
  23:metamorphic_project.cpp ****     float osc_out;
 239              		.loc 10 23 1 is_stmt 0 view .LVU34
 240 0002 70B5     		push	{r4, r5, r6, lr}
 241              		.cfi_def_cfa_offset 16
 242              		.cfi_offset 4, -16
 243              		.cfi_offset 5, -12
 244              		.cfi_offset 6, -8
 245              		.cfi_offset 14, -4
 246 0004 0D46     		mov	r5, r1
 247 0006 1646     		mov	r6, r2
 248              	.LBB176:
 249              		.loc 10 25 16 view .LVU35
 250 0008 0024     		movs	r4, #0
 251              	.LVL12:
 252              	.L10:
  26:metamorphic_project.cpp ****     {
  27:metamorphic_project.cpp ****         osc_out = osc.Process();
 253              		.loc 10 27 9 is_stmt 1 discriminator 2 view .LVU36
 254              		.loc 10 27 30 is_stmt 0 discriminator 2 view .LVU37
 255 000a 0948     		ldr	r0, .L19
 256 000c FFF7FEFF 		bl	_ZN7daisysp10Oscillator7ProcessEv
 257              	.LVL13:
ARM GAS  C:\Users\VINCIU~1\AppData\Local\Temp\ccI83ocg.s 			page 19


  28:metamorphic_project.cpp ****         out[0][i] = osc_out;
  29:metamorphic_project.cpp ****         out[1][i] = osc_out ;
 258              		.loc 10 29 19 discriminator 2 view .LVU38
 259 0010 D5E90003 		ldrd	r0, r3, [r5]
 260              	.LVL14:
  28:metamorphic_project.cpp ****         out[0][i] = osc_out;
 261              		.loc 10 28 9 is_stmt 1 discriminator 2 view .LVU39
  28:metamorphic_project.cpp ****         out[0][i] = osc_out;
 262              		.loc 10 28 19 is_stmt 0 discriminator 2 view .LVU40
 263 0014 00EB8400 		add	r0, r0, r4, lsl #2
 264              		.loc 10 29 19 discriminator 2 view .LVU41
 265 0018 03EB8403 		add	r3, r3, r4, lsl #2
  25:metamorphic_project.cpp ****     {
 266              		.loc 10 25 5 discriminator 2 view .LVU42
 267 001c 0134     		adds	r4, r4, #1
 268              	.LVL15:
  28:metamorphic_project.cpp ****         out[0][i] = osc_out;
 269              		.loc 10 28 19 discriminator 2 view .LVU43
 270 001e 80ED000A 		vstr.32	s0, [r0]
 271              		.loc 10 29 9 is_stmt 1 discriminator 2 view .LVU44
  25:metamorphic_project.cpp ****     {
 272              		.loc 10 25 25 is_stmt 0 discriminator 2 view .LVU45
 273 0022 A642     		cmp	r6, r4
 274              		.loc 10 29 19 discriminator 2 view .LVU46
 275 0024 83ED000A 		vstr.32	s0, [r3]
  25:metamorphic_project.cpp ****     {
 276              		.loc 10 25 5 is_stmt 1 discriminator 2 view .LVU47
 277              	.LVL16:
  25:metamorphic_project.cpp ****     {
 278              		.loc 10 25 25 discriminator 2 view .LVU48
 279 0028 EFD1     		bne	.L10
 280              	.LBE176:
  30:metamorphic_project.cpp ****     }
  31:metamorphic_project.cpp **** }
 281              		.loc 10 31 1 is_stmt 0 view .LVU49
 282 002a 70BD     		pop	{r4, r5, r6, pc}
 283              	.LVL17:
 284              	.L16:
 285              		.cfi_def_cfa_offset 0
 286              		.cfi_restore 4
 287              		.cfi_restore 5
 288              		.cfi_restore 6
 289              		.cfi_restore 14
 290              		.loc 10 31 1 view .LVU50
 291 002c 7047     		bx	lr
 292              	.L20:
 293 002e 00BF     		.align	2
 294              	.L19:
 295 0030 00000000 		.word	.LANCHOR0
 296              		.cfi_endproc
 297              	.LFE4037:
 299              		.section	.text._ZN5daisy11OledDisplayINS_13SSD130xDriverILj128ELj64ENS_24SSD130x4WireSpiTransportE
 300              		.align	1
 301              		.p2align 2,,3
 302              		.weak	_ZN5daisy11OledDisplayINS_13SSD130xDriverILj128ELj64ENS_24SSD130x4WireSpiTransportEEEED0Ev
 303              		.syntax unified
 304              		.thumb
ARM GAS  C:\Users\VINCIU~1\AppData\Local\Temp\ccI83ocg.s 			page 20


 305              		.thumb_func
 306              		.fpu fpv5-d16
 308              	_ZN5daisy11OledDisplayINS_13SSD130xDriverILj128ELj64ENS_24SSD130x4WireSpiTransportEEEED0Ev:
 309              	.LVL18:
 310              	.LFB4600:
  17:../../libdaisy/src/hid/disp/oled_display.h **** 
 311              		.loc 7 17 13 is_stmt 1 view -0
 312              		.cfi_startproc
 313              		@ args = 0, pretend = 0, frame = 0
 314              		@ frame_needed = 0, uses_anonymous_args = 0
  17:../../libdaisy/src/hid/disp/oled_display.h **** 
 315              		.loc 7 17 13 is_stmt 0 view .LVU52
 316 0000 10B5     		push	{r4, lr}
 317              		.cfi_def_cfa_offset 8
 318              		.cfi_offset 4, -8
 319              		.cfi_offset 14, -4
  17:../../libdaisy/src/hid/disp/oled_display.h **** 
 320              		.loc 7 17 13 view .LVU53
 321 0002 0446     		mov	r4, r0
 322              	.LVL19:
 323              	.LBB177:
 324              	.LBI177:
  17:../../libdaisy/src/hid/disp/oled_display.h **** 
 325              		.loc 7 17 13 is_stmt 1 view .LVU54
 326              	.LBB178:
 327              	.LBI178:
 328              		.loc 8 179 13 view .LVU55
 329              	.LBB179:
 330              	.LBI179:
  22:../../libdaisy/src/hid/disp/display.h **** 
 331              		.loc 8 22 13 view .LVU56
  22:../../libdaisy/src/hid/disp/display.h **** 
 332              		.loc 8 22 13 is_stmt 0 view .LVU57
 333              	.LBE179:
 334              	.LBE178:
 335              	.LBE177:
  17:../../libdaisy/src/hid/disp/oled_display.h **** 
 336              		.loc 7 17 29 view .LVU58
 337 0004 40F21441 		movw	r1, #1044
 338 0008 FFF7FEFF 		bl	_ZdlPvj
 339              	.LVL20:
  17:../../libdaisy/src/hid/disp/oled_display.h **** 
 340              		.loc 7 17 29 view .LVU59
 341 000c 2046     		mov	r0, r4
 342 000e 10BD     		pop	{r4, pc}
  17:../../libdaisy/src/hid/disp/oled_display.h **** 
 343              		.loc 7 17 29 view .LVU60
 344              		.cfi_endproc
 345              	.LFE4600:
 347              		.section	.text._ZN5daisy11OledDisplayINS_13SSD130xDriverILj128ELj64ENS_24SSD130x4WireSpiTransportE
 348              		.align	1
 349              		.p2align 2,,3
 350              		.weak	_ZN5daisy11OledDisplayINS_13SSD130xDriverILj128ELj64ENS_24SSD130x4WireSpiTransportEEEE6Updat
 351              		.syntax unified
 352              		.thumb
 353              		.thumb_func
 354              		.fpu fpv5-d16
ARM GAS  C:\Users\VINCIU~1\AppData\Local\Temp\ccI83ocg.s 			page 21


 356              	_ZN5daisy11OledDisplayINS_13SSD130xDriverILj128ELj64ENS_24SSD130x4WireSpiTransportEEEE6UpdateEv:
 357              	.LVL21:
 358              	.LFB4610:
  34:../../libdaisy/src/hid/disp/oled_display.h **** 
  35:../../libdaisy/src/hid/disp/oled_display.h ****     /**
  36:../../libdaisy/src/hid/disp/oled_display.h ****     Sets the pixel at the specified coordinate to be on/off.
  37:../../libdaisy/src/hid/disp/oled_display.h ****     \param x   x Coordinate
  38:../../libdaisy/src/hid/disp/oled_display.h ****     \param y   y coordinate
  39:../../libdaisy/src/hid/disp/oled_display.h ****     \param on  on or off
  40:../../libdaisy/src/hid/disp/oled_display.h ****     */
  41:../../libdaisy/src/hid/disp/oled_display.h ****     void DrawPixel(uint_fast8_t x, uint_fast8_t y, bool on) override
  42:../../libdaisy/src/hid/disp/oled_display.h ****     {
  43:../../libdaisy/src/hid/disp/oled_display.h ****         driver_.DrawPixel(x, y, on);
  44:../../libdaisy/src/hid/disp/oled_display.h ****     }
  45:../../libdaisy/src/hid/disp/oled_display.h **** 
  46:../../libdaisy/src/hid/disp/oled_display.h ****     /** 
  47:../../libdaisy/src/hid/disp/oled_display.h ****     Writes the current display buffer to the OLED device using SPI or I2C depending on 
  48:../../libdaisy/src/hid/disp/oled_display.h ****     how the object was initialized.
  49:../../libdaisy/src/hid/disp/oled_display.h ****     */
  50:../../libdaisy/src/hid/disp/oled_display.h ****     void Update() override { driver_.Update(); }
 359              		.loc 7 50 10 is_stmt 1 view -0
 360              		.cfi_startproc
 361              		@ args = 0, pretend = 0, frame = 8
 362              		@ frame_needed = 0, uses_anonymous_args = 0
 363              	.LBB190:
 364              	.LBI190:
 254:../../libdaisy/src/dev/oled_ssd130x.h ****         }
 255:../../libdaisy/src/dev/oled_ssd130x.h ****     };
 256:../../libdaisy/src/dev/oled_ssd130x.h **** 
 257:../../libdaisy/src/dev/oled_ssd130x.h ****     /**
 258:../../libdaisy/src/dev/oled_ssd130x.h ****      * Update the display 
 259:../../libdaisy/src/dev/oled_ssd130x.h ****     */
 260:../../libdaisy/src/dev/oled_ssd130x.h ****     void Update()
 365              		.loc 9 260 10 view .LVU62
 366              	.LBB191:
 261:../../libdaisy/src/dev/oled_ssd130x.h ****     {
 262:../../libdaisy/src/dev/oled_ssd130x.h ****         uint8_t i;
 263:../../libdaisy/src/dev/oled_ssd130x.h ****         uint8_t high_column_addr;
 264:../../libdaisy/src/dev/oled_ssd130x.h ****         switch(height)
 265:../../libdaisy/src/dev/oled_ssd130x.h ****         {
 266:../../libdaisy/src/dev/oled_ssd130x.h ****             case 32: high_column_addr = 0x12; break;
 267:../../libdaisy/src/dev/oled_ssd130x.h **** 
 268:../../libdaisy/src/dev/oled_ssd130x.h ****             default: high_column_addr = 0x10; break;
 269:../../libdaisy/src/dev/oled_ssd130x.h ****         }
 270:../../libdaisy/src/dev/oled_ssd130x.h ****         for(i = 0; i < (height / 8); i++)
 367              		.loc 9 270 22 view .LVU63
 368              	.LBE191:
 369              	.LBE190:
 370              		.loc 7 50 10 is_stmt 0 view .LVU64
 371 0000 2DE9F041 		push	{r4, r5, r6, r7, r8, lr}
 372              		.cfi_def_cfa_offset 24
 373              		.cfi_offset 4, -24
 374              		.cfi_offset 5, -20
 375              		.cfi_offset 6, -16
 376              		.cfi_offset 7, -12
 377              		.cfi_offset 8, -8
 378              		.cfi_offset 14, -4
ARM GAS  C:\Users\VINCIU~1\AppData\Local\Temp\ccI83ocg.s 			page 22


 379              	.LBB213:
 380              	.LBB211:
 381              	.LBB192:
 382              	.LBB193:
 112:../../libdaisy/src/dev/oled_ssd130x.h ****     };
 383              		.loc 9 112 30 view .LVU65
 384 0004 B024     		movs	r4, #176
 385              	.LBE193:
 386              	.LBE192:
 387              	.LBE211:
 388              	.LBE213:
 389              		.loc 7 50 10 view .LVU66
 390 0006 82B0     		sub	sp, sp, #8
 391              		.cfi_def_cfa_offset 32
 392              	.LBB214:
 393              	.LBB212:
 394              	.LBB198:
 395              	.LBB194:
 111:../../libdaisy/src/dev/oled_ssd130x.h ****         spi_.BlockingTransmit(&cmd, 1);
 396              		.loc 9 111 24 view .LVU67
 397 0008 00F10806 		add	r6, r0, #8
 398 000c 00F11005 		add	r5, r0, #16
 399 0010 00F11408 		add	r8, r0, #20
 400              	.LVL22:
 401              	.L24:
 111:../../libdaisy/src/dev/oled_ssd130x.h ****         spi_.BlockingTransmit(&cmd, 1);
 402              		.loc 9 111 24 view .LVU68
 403 0014 0027     		movs	r7, #0
 111:../../libdaisy/src/dev/oled_ssd130x.h ****         spi_.BlockingTransmit(&cmd, 1);
 404              		.loc 9 111 23 view .LVU69
 405 0016 2846     		mov	r0, r5
 406 0018 8DF80740 		strb	r4, [sp, #7]
 407              	.LVL23:
 111:../../libdaisy/src/dev/oled_ssd130x.h ****         spi_.BlockingTransmit(&cmd, 1);
 408              		.loc 9 111 23 view .LVU70
 409              	.LBE194:
 410              	.LBI192:
 109:../../libdaisy/src/dev/oled_ssd130x.h ****     {
 411              		.loc 9 109 10 is_stmt 1 view .LVU71
 412              	.LBB195:
 111:../../libdaisy/src/dev/oled_ssd130x.h ****         spi_.BlockingTransmit(&cmd, 1);
 413              		.loc 9 111 9 view .LVU72
 414              	.LBE195:
 415              	.LBE198:
 416              		.loc 9 270 22 is_stmt 0 view .LVU73
 417 001c 0134     		adds	r4, r4, #1
 418              	.LVL24:
 419              	.LBB199:
 420              	.LBB196:
 111:../../libdaisy/src/dev/oled_ssd130x.h ****         spi_.BlockingTransmit(&cmd, 1);
 421              		.loc 9 111 23 view .LVU74
 422 001e 3946     		mov	r1, r7
 423 0020 FFF7FEFF 		bl	dsy_gpio_write
 424              	.LVL25:
 112:../../libdaisy/src/dev/oled_ssd130x.h ****     };
 425              		.loc 9 112 9 is_stmt 1 view .LVU75
 112:../../libdaisy/src/dev/oled_ssd130x.h ****     };
ARM GAS  C:\Users\VINCIU~1\AppData\Local\Temp\ccI83ocg.s 			page 23


 426              		.loc 9 112 30 is_stmt 0 view .LVU76
 427 0024 6423     		movs	r3, #100
 428 0026 0122     		movs	r2, #1
 429 0028 0DF10701 		add	r1, sp, #7
 430 002c 3046     		mov	r0, r6
 431              	.LBE196:
 432              	.LBE199:
 433              		.loc 9 270 22 view .LVU77
 434 002e E4B2     		uxtb	r4, r4
 435              	.LBB200:
 436              	.LBB197:
 112:../../libdaisy/src/dev/oled_ssd130x.h ****     };
 437              		.loc 9 112 30 view .LVU78
 438 0030 FFF7FEFF 		bl	_ZN5daisy9SpiHandle16BlockingTransmitEPhjm
 439              	.LVL26:
 112:../../libdaisy/src/dev/oled_ssd130x.h ****     };
 440              		.loc 9 112 30 view .LVU79
 441              	.LBE197:
 442              	.LBE200:
 443              	.LBB201:
 444              	.LBB202:
 111:../../libdaisy/src/dev/oled_ssd130x.h ****         spi_.BlockingTransmit(&cmd, 1);
 445              		.loc 9 111 23 view .LVU80
 446 0034 3946     		mov	r1, r7
 447 0036 2846     		mov	r0, r5
 448 0038 8DF80770 		strb	r7, [sp, #7]
 449              	.LVL27:
 111:../../libdaisy/src/dev/oled_ssd130x.h ****         spi_.BlockingTransmit(&cmd, 1);
 450              		.loc 9 111 23 view .LVU81
 451              	.LBE202:
 452              	.LBI201:
 109:../../libdaisy/src/dev/oled_ssd130x.h ****     {
 453              		.loc 9 109 10 is_stmt 1 view .LVU82
 454              	.LBB203:
 111:../../libdaisy/src/dev/oled_ssd130x.h ****         spi_.BlockingTransmit(&cmd, 1);
 455              		.loc 9 111 9 view .LVU83
 111:../../libdaisy/src/dev/oled_ssd130x.h ****         spi_.BlockingTransmit(&cmd, 1);
 456              		.loc 9 111 23 is_stmt 0 view .LVU84
 457 003c FFF7FEFF 		bl	dsy_gpio_write
 458              	.LVL28:
 112:../../libdaisy/src/dev/oled_ssd130x.h ****     };
 459              		.loc 9 112 9 is_stmt 1 view .LVU85
 112:../../libdaisy/src/dev/oled_ssd130x.h ****     };
 460              		.loc 9 112 30 is_stmt 0 view .LVU86
 461 0040 0122     		movs	r2, #1
 462 0042 6423     		movs	r3, #100
 463 0044 0DF10701 		add	r1, sp, #7
 464 0048 3046     		mov	r0, r6
 465 004a FFF7FEFF 		bl	_ZN5daisy9SpiHandle16BlockingTransmitEPhjm
 466              	.LVL29:
 112:../../libdaisy/src/dev/oled_ssd130x.h ****     };
 467              		.loc 9 112 30 view .LVU87
 468 004e 1023     		movs	r3, #16
 469              	.LBE203:
 470              	.LBE201:
 471              	.LBB204:
 472              	.LBB205:
ARM GAS  C:\Users\VINCIU~1\AppData\Local\Temp\ccI83ocg.s 			page 24


 111:../../libdaisy/src/dev/oled_ssd130x.h ****         spi_.BlockingTransmit(&cmd, 1);
 473              		.loc 9 111 23 view .LVU88
 474 0050 3946     		mov	r1, r7
 475 0052 2846     		mov	r0, r5
 476 0054 8DF80730 		strb	r3, [sp, #7]
 477              	.LVL30:
 111:../../libdaisy/src/dev/oled_ssd130x.h ****         spi_.BlockingTransmit(&cmd, 1);
 478              		.loc 9 111 23 view .LVU89
 479              	.LBE205:
 480              	.LBI204:
 109:../../libdaisy/src/dev/oled_ssd130x.h ****     {
 481              		.loc 9 109 10 is_stmt 1 view .LVU90
 482              	.LBB206:
 111:../../libdaisy/src/dev/oled_ssd130x.h ****         spi_.BlockingTransmit(&cmd, 1);
 483              		.loc 9 111 9 view .LVU91
 111:../../libdaisy/src/dev/oled_ssd130x.h ****         spi_.BlockingTransmit(&cmd, 1);
 484              		.loc 9 111 23 is_stmt 0 view .LVU92
 485 0058 FFF7FEFF 		bl	dsy_gpio_write
 486              	.LVL31:
 112:../../libdaisy/src/dev/oled_ssd130x.h ****     };
 487              		.loc 9 112 9 is_stmt 1 view .LVU93
 112:../../libdaisy/src/dev/oled_ssd130x.h ****     };
 488              		.loc 9 112 30 is_stmt 0 view .LVU94
 489 005c 6423     		movs	r3, #100
 490 005e 0122     		movs	r2, #1
 491 0060 0DF10701 		add	r1, sp, #7
 492 0064 3046     		mov	r0, r6
 493 0066 FFF7FEFF 		bl	_ZN5daisy9SpiHandle16BlockingTransmitEPhjm
 494              	.LVL32:
 112:../../libdaisy/src/dev/oled_ssd130x.h ****     };
 495              		.loc 9 112 30 view .LVU95
 496              	.LBE206:
 497              	.LBE204:
 498              	.LBB207:
 499              	.LBI207:
 115:../../libdaisy/src/dev/oled_ssd130x.h ****     {
 500              		.loc 9 115 10 is_stmt 1 view .LVU96
 501              	.LBB208:
 117:../../libdaisy/src/dev/oled_ssd130x.h ****         spi_.BlockingTransmit(buff, size);
 502              		.loc 9 117 9 view .LVU97
 117:../../libdaisy/src/dev/oled_ssd130x.h ****         spi_.BlockingTransmit(buff, size);
 503              		.loc 9 117 23 is_stmt 0 view .LVU98
 504 006a 0121     		movs	r1, #1
 505 006c 2846     		mov	r0, r5
 506 006e FFF7FEFF 		bl	dsy_gpio_write
 507              	.LVL33:
 118:../../libdaisy/src/dev/oled_ssd130x.h ****     };
 508              		.loc 9 118 9 is_stmt 1 view .LVU99
 118:../../libdaisy/src/dev/oled_ssd130x.h ****     };
 509              		.loc 9 118 30 is_stmt 0 view .LVU100
 510 0072 8022     		movs	r2, #128
 511 0074 4146     		mov	r1, r8
 512 0076 6423     		movs	r3, #100
 513 0078 3046     		mov	r0, r6
 514              	.LBE208:
 515              	.LBE207:
 516              		.loc 9 270 22 view .LVU101
ARM GAS  C:\Users\VINCIU~1\AppData\Local\Temp\ccI83ocg.s 			page 25


 517 007a 9044     		add	r8, r8, r2
 518              	.LVL34:
 519              	.LBB210:
 520              	.LBB209:
 118:../../libdaisy/src/dev/oled_ssd130x.h ****     };
 521              		.loc 9 118 30 view .LVU102
 522 007c FFF7FEFF 		bl	_ZN5daisy9SpiHandle16BlockingTransmitEPhjm
 523              	.LVL35:
 118:../../libdaisy/src/dev/oled_ssd130x.h ****     };
 524              		.loc 9 118 30 view .LVU103
 525              	.LBE209:
 526              	.LBE210:
 527              		.loc 9 270 9 is_stmt 1 view .LVU104
 528              		.loc 9 270 22 view .LVU105
 529 0080 B82C     		cmp	r4, #184
 530 0082 C7D1     		bne	.L24
 531              	.LBE212:
 532              	.LBE214:
 533              		.loc 7 50 48 is_stmt 0 view .LVU106
 534 0084 02B0     		add	sp, sp, #8
 535              		.cfi_def_cfa_offset 24
 536              		@ sp needed
 537 0086 BDE8F081 		pop	{r4, r5, r6, r7, r8, pc}
 538              		.loc 7 50 48 view .LVU107
 539              		.cfi_endproc
 540              	.LFE4610:
 542 008a 00BF     		.section	.text._ZN5daisy25OneBitGraphicsDisplayImplINS_11OledDisplayINS_13SSD130xDriverILj128ELj64
 543              		.align	1
 544              		.p2align 2,,3
 545              		.weak	_ZN5daisy25OneBitGraphicsDisplayImplINS_11OledDisplayINS_13SSD130xDriverILj128ELj64ENS_24SSD
 546              		.syntax unified
 547              		.thumb
 548              		.thumb_func
 549              		.fpu fpv5-d16
 551              	_ZN5daisy25OneBitGraphicsDisplayImplINS_11OledDisplayINS_13SSD130xDriverILj128ELj64ENS_24SSD130x4Wi
 552              	.LVL36:
 553              	.LFB4608:
 180:../../libdaisy/src/hid/disp/display.h **** 
 181:../../libdaisy/src/hid/disp/display.h ****     void DrawLine(uint_fast8_t x1,
 182:../../libdaisy/src/hid/disp/display.h ****                   uint_fast8_t y1,
 183:../../libdaisy/src/hid/disp/display.h ****                   uint_fast8_t x2,
 184:../../libdaisy/src/hid/disp/display.h ****                   uint_fast8_t y2,
 185:../../libdaisy/src/hid/disp/display.h ****                   bool         on) override
 186:../../libdaisy/src/hid/disp/display.h ****     {
 187:../../libdaisy/src/hid/disp/display.h ****         int_fast16_t deltaX = abs((int_fast16_t)x2 - (int_fast16_t)x1);
 188:../../libdaisy/src/hid/disp/display.h ****         int_fast16_t deltaY = abs((int_fast16_t)y2 - (int_fast16_t)y1);
 189:../../libdaisy/src/hid/disp/display.h ****         int_fast16_t signX  = ((x1 < x2) ? 1 : -1);
 190:../../libdaisy/src/hid/disp/display.h ****         int_fast16_t signY  = ((y1 < y2) ? 1 : -1);
 191:../../libdaisy/src/hid/disp/display.h ****         int_fast16_t error  = deltaX - deltaY;
 192:../../libdaisy/src/hid/disp/display.h ****         int_fast16_t error2;
 193:../../libdaisy/src/hid/disp/display.h **** 
 194:../../libdaisy/src/hid/disp/display.h ****         // If we write "ChildType::DrawPixel(x2, y2, on);", we end up with
 195:../../libdaisy/src/hid/disp/display.h ****         // all sorts of weird compiler errors when the Child class is a template
 196:../../libdaisy/src/hid/disp/display.h ****         // class. The only way around this is to use this very verbose syntax:
 197:../../libdaisy/src/hid/disp/display.h ****         ((ChildType*)(this))->ChildType::DrawPixel(x2, y2, on);
 198:../../libdaisy/src/hid/disp/display.h **** 
 199:../../libdaisy/src/hid/disp/display.h ****         while((x1 != x2) || (y1 != y2))
ARM GAS  C:\Users\VINCIU~1\AppData\Local\Temp\ccI83ocg.s 			page 26


 200:../../libdaisy/src/hid/disp/display.h ****         {
 201:../../libdaisy/src/hid/disp/display.h ****             ((ChildType*)(this))->ChildType::DrawPixel(x1, y1, on);
 202:../../libdaisy/src/hid/disp/display.h ****             error2 = error * 2;
 203:../../libdaisy/src/hid/disp/display.h ****             if(error2 > -deltaY)
 204:../../libdaisy/src/hid/disp/display.h ****             {
 205:../../libdaisy/src/hid/disp/display.h ****                 error -= deltaY;
 206:../../libdaisy/src/hid/disp/display.h ****                 x1 += signX;
 207:../../libdaisy/src/hid/disp/display.h ****             }
 208:../../libdaisy/src/hid/disp/display.h **** 
 209:../../libdaisy/src/hid/disp/display.h ****             if(error2 < deltaX)
 210:../../libdaisy/src/hid/disp/display.h ****             {
 211:../../libdaisy/src/hid/disp/display.h ****                 error += deltaX;
 212:../../libdaisy/src/hid/disp/display.h ****                 y1 += signY;
 213:../../libdaisy/src/hid/disp/display.h ****             }
 214:../../libdaisy/src/hid/disp/display.h ****         }
 215:../../libdaisy/src/hid/disp/display.h ****     }
 216:../../libdaisy/src/hid/disp/display.h **** 
 217:../../libdaisy/src/hid/disp/display.h ****     void DrawRect(uint_fast8_t x1,
 218:../../libdaisy/src/hid/disp/display.h ****                   uint_fast8_t y1,
 219:../../libdaisy/src/hid/disp/display.h ****                   uint_fast8_t x2,
 220:../../libdaisy/src/hid/disp/display.h ****                   uint_fast8_t y2,
 221:../../libdaisy/src/hid/disp/display.h ****                   bool         on,
 222:../../libdaisy/src/hid/disp/display.h ****                   bool         fill = false) override
 223:../../libdaisy/src/hid/disp/display.h ****     {
 224:../../libdaisy/src/hid/disp/display.h ****         if(fill)
 225:../../libdaisy/src/hid/disp/display.h ****         {
 226:../../libdaisy/src/hid/disp/display.h ****             for(uint_fast8_t x = x1; x <= x2; x++)
 227:../../libdaisy/src/hid/disp/display.h ****             {
 228:../../libdaisy/src/hid/disp/display.h ****                 for(uint_fast8_t y = y1; y <= y2; y++)
 229:../../libdaisy/src/hid/disp/display.h ****                 {
 230:../../libdaisy/src/hid/disp/display.h ****                     ((ChildType*)(this))->ChildType::DrawPixel(x, y, on);
 231:../../libdaisy/src/hid/disp/display.h ****                 }
 232:../../libdaisy/src/hid/disp/display.h ****             }
 233:../../libdaisy/src/hid/disp/display.h ****         }
 234:../../libdaisy/src/hid/disp/display.h ****         else
 235:../../libdaisy/src/hid/disp/display.h ****         {
 236:../../libdaisy/src/hid/disp/display.h ****             ((ChildType*)(this))->ChildType::DrawLine(x1, y1, x2, y1, on);
 237:../../libdaisy/src/hid/disp/display.h ****             ((ChildType*)(this))->ChildType::DrawLine(x2, y1, x2, y2, on);
 238:../../libdaisy/src/hid/disp/display.h ****             ((ChildType*)(this))->ChildType::DrawLine(x2, y2, x1, y2, on);
 239:../../libdaisy/src/hid/disp/display.h ****             ((ChildType*)(this))->ChildType::DrawLine(x1, y2, x1, y1, on);
 240:../../libdaisy/src/hid/disp/display.h ****         }
 241:../../libdaisy/src/hid/disp/display.h ****     }
 242:../../libdaisy/src/hid/disp/display.h **** 
 243:../../libdaisy/src/hid/disp/display.h ****     void DrawArc(uint_fast8_t x,
 244:../../libdaisy/src/hid/disp/display.h ****                  uint_fast8_t y,
 245:../../libdaisy/src/hid/disp/display.h ****                  uint_fast8_t radius,
 246:../../libdaisy/src/hid/disp/display.h ****                  int_fast16_t start_angle,
 247:../../libdaisy/src/hid/disp/display.h ****                  int_fast16_t sweep,
 248:../../libdaisy/src/hid/disp/display.h ****                  bool         on) override
 249:../../libdaisy/src/hid/disp/display.h ****     {
 250:../../libdaisy/src/hid/disp/display.h ****         // Values to calculate the circle
 251:../../libdaisy/src/hid/disp/display.h ****         int_fast16_t t_x, t_y, err, e2;
 252:../../libdaisy/src/hid/disp/display.h **** 
 253:../../libdaisy/src/hid/disp/display.h ****         // Temporary values to speed up comparisons
 254:../../libdaisy/src/hid/disp/display.h ****         float t_sxy, t_syx, t_sxny, t_synx;
 255:../../libdaisy/src/hid/disp/display.h ****         float t_exy, t_eyx, t_exny, t_eynx;
 256:../../libdaisy/src/hid/disp/display.h **** 
ARM GAS  C:\Users\VINCIU~1\AppData\Local\Temp\ccI83ocg.s 			page 27


 257:../../libdaisy/src/hid/disp/display.h ****         float start_angle_rad, end_angle_rad;
 258:../../libdaisy/src/hid/disp/display.h ****         float start_x, start_y, end_x, end_y;
 259:../../libdaisy/src/hid/disp/display.h **** 
 260:../../libdaisy/src/hid/disp/display.h ****         bool d1, d2, d3, d4;
 261:../../libdaisy/src/hid/disp/display.h **** 
 262:../../libdaisy/src/hid/disp/display.h ****         d1 = d2 = d3 = d4 = true;
 263:../../libdaisy/src/hid/disp/display.h **** 
 264:../../libdaisy/src/hid/disp/display.h ****         bool circle = false;
 265:../../libdaisy/src/hid/disp/display.h **** 
 266:../../libdaisy/src/hid/disp/display.h ****         if(sweep < 0)
 267:../../libdaisy/src/hid/disp/display.h ****         {
 268:../../libdaisy/src/hid/disp/display.h ****             start_angle += sweep;
 269:../../libdaisy/src/hid/disp/display.h ****             sweep = -sweep;
 270:../../libdaisy/src/hid/disp/display.h ****         }
 271:../../libdaisy/src/hid/disp/display.h **** 
 272:../../libdaisy/src/hid/disp/display.h ****         start_angle_rad = deg2rad(start_angle);
 273:../../libdaisy/src/hid/disp/display.h ****         end_angle_rad   = deg2rad(start_angle + sweep);
 274:../../libdaisy/src/hid/disp/display.h **** 
 275:../../libdaisy/src/hid/disp/display.h ****         start_x = cos(start_angle_rad) * radius;
 276:../../libdaisy/src/hid/disp/display.h ****         start_y = -sin(start_angle_rad) * radius;
 277:../../libdaisy/src/hid/disp/display.h ****         end_x   = cos(end_angle_rad) * radius;
 278:../../libdaisy/src/hid/disp/display.h ****         end_y   = -sin(end_angle_rad) * radius;
 279:../../libdaisy/src/hid/disp/display.h **** 
 280:../../libdaisy/src/hid/disp/display.h ****         // Check if start and endpoint are very near
 281:../../libdaisy/src/hid/disp/display.h ****         if((end_x - start_x) * (end_x - start_x)
 282:../../libdaisy/src/hid/disp/display.h ****                + (end_y - start_y) * (end_y - start_y)
 283:../../libdaisy/src/hid/disp/display.h ****            < 2.0f)
 284:../../libdaisy/src/hid/disp/display.h ****         {
 285:../../libdaisy/src/hid/disp/display.h ****             if(sweep > 180)
 286:../../libdaisy/src/hid/disp/display.h ****                 circle = true;
 287:../../libdaisy/src/hid/disp/display.h ****             else
 288:../../libdaisy/src/hid/disp/display.h ****                 // Nothing to draw
 289:../../libdaisy/src/hid/disp/display.h ****                 return;
 290:../../libdaisy/src/hid/disp/display.h ****         }
 291:../../libdaisy/src/hid/disp/display.h **** 
 292:../../libdaisy/src/hid/disp/display.h ****         t_x = -radius;
 293:../../libdaisy/src/hid/disp/display.h ****         t_y = 0;
 294:../../libdaisy/src/hid/disp/display.h ****         err = 2 - 2 * radius;
 295:../../libdaisy/src/hid/disp/display.h **** 
 296:../../libdaisy/src/hid/disp/display.h ****         do
 297:../../libdaisy/src/hid/disp/display.h ****         {
 298:../../libdaisy/src/hid/disp/display.h ****             if(!circle)
 299:../../libdaisy/src/hid/disp/display.h ****             {
 300:../../libdaisy/src/hid/disp/display.h ****                 t_sxy  = start_x * t_y;
 301:../../libdaisy/src/hid/disp/display.h ****                 t_syx  = start_y * t_x;
 302:../../libdaisy/src/hid/disp/display.h ****                 t_sxny = start_x * -t_y;
 303:../../libdaisy/src/hid/disp/display.h ****                 t_synx = start_y * -t_x;
 304:../../libdaisy/src/hid/disp/display.h ****                 t_exy  = end_x * t_y;
 305:../../libdaisy/src/hid/disp/display.h ****                 t_eyx  = end_y * t_x;
 306:../../libdaisy/src/hid/disp/display.h ****                 t_exny = end_x * -t_y;
 307:../../libdaisy/src/hid/disp/display.h ****                 t_eynx = end_y * -t_x;
 308:../../libdaisy/src/hid/disp/display.h **** 
 309:../../libdaisy/src/hid/disp/display.h ****                 if(sweep > 180)
 310:../../libdaisy/src/hid/disp/display.h ****                 {
 311:../../libdaisy/src/hid/disp/display.h ****                     d1 = (t_sxy - t_synx < 0 || t_exy - t_eynx > 0);
 312:../../libdaisy/src/hid/disp/display.h ****                     d2 = (t_sxy - t_syx < 0 || t_exy - t_eyx > 0);
 313:../../libdaisy/src/hid/disp/display.h ****                     d3 = (t_sxny - t_syx < 0 || t_exny - t_eyx > 0);
ARM GAS  C:\Users\VINCIU~1\AppData\Local\Temp\ccI83ocg.s 			page 28


 314:../../libdaisy/src/hid/disp/display.h ****                     d4 = (t_sxny - t_synx < 0 || t_exny - t_eynx > 0);
 315:../../libdaisy/src/hid/disp/display.h ****                 }
 316:../../libdaisy/src/hid/disp/display.h ****                 else
 317:../../libdaisy/src/hid/disp/display.h ****                 {
 318:../../libdaisy/src/hid/disp/display.h ****                     d1 = (t_sxy - t_synx < 0 && t_exy - t_eynx > 0);
 319:../../libdaisy/src/hid/disp/display.h ****                     d2 = (t_sxy - t_syx < 0 && t_exy - t_eyx > 0);
 320:../../libdaisy/src/hid/disp/display.h ****                     d3 = (t_sxny - t_syx < 0 && t_exny - t_eyx > 0);
 321:../../libdaisy/src/hid/disp/display.h ****                     d4 = (t_sxny - t_synx < 0 && t_exny - t_eynx > 0);
 322:../../libdaisy/src/hid/disp/display.h ****                 }
 323:../../libdaisy/src/hid/disp/display.h ****             }
 324:../../libdaisy/src/hid/disp/display.h **** 
 325:../../libdaisy/src/hid/disp/display.h ****             if(d1)
 326:../../libdaisy/src/hid/disp/display.h ****                 ((ChildType*)(this))
 327:../../libdaisy/src/hid/disp/display.h ****                     ->ChildType::DrawPixel(x - t_x, y + t_y, on);
 328:../../libdaisy/src/hid/disp/display.h ****             if(d2)
 329:../../libdaisy/src/hid/disp/display.h ****                 ((ChildType*)(this))
 330:../../libdaisy/src/hid/disp/display.h ****                     ->ChildType::DrawPixel(x + t_x, y + t_y, on);
 331:../../libdaisy/src/hid/disp/display.h ****             if(d3)
 332:../../libdaisy/src/hid/disp/display.h ****                 ((ChildType*)(this))
 333:../../libdaisy/src/hid/disp/display.h ****                     ->ChildType::DrawPixel(x + t_x, y - t_y, on);
 334:../../libdaisy/src/hid/disp/display.h ****             if(d4)
 335:../../libdaisy/src/hid/disp/display.h ****                 ((ChildType*)(this))
 336:../../libdaisy/src/hid/disp/display.h ****                     ->ChildType::DrawPixel(x - t_x, y - t_y, on);
 337:../../libdaisy/src/hid/disp/display.h **** 
 338:../../libdaisy/src/hid/disp/display.h ****             e2 = err;
 339:../../libdaisy/src/hid/disp/display.h ****             if(e2 <= t_y)
 340:../../libdaisy/src/hid/disp/display.h ****             {
 341:../../libdaisy/src/hid/disp/display.h ****                 t_y++;
 342:../../libdaisy/src/hid/disp/display.h ****                 err = err + (t_y * 2 + 1);
 343:../../libdaisy/src/hid/disp/display.h ****                 if(-t_x == t_y && e2 <= t_x)
 344:../../libdaisy/src/hid/disp/display.h ****                 {
 345:../../libdaisy/src/hid/disp/display.h ****                     e2 = 0;
 346:../../libdaisy/src/hid/disp/display.h ****                 }
 347:../../libdaisy/src/hid/disp/display.h ****             }
 348:../../libdaisy/src/hid/disp/display.h ****             if(e2 > t_x)
 349:../../libdaisy/src/hid/disp/display.h ****             {
 350:../../libdaisy/src/hid/disp/display.h ****                 t_x++;
 351:../../libdaisy/src/hid/disp/display.h ****                 err = err + (t_x * 2 + 1);
 352:../../libdaisy/src/hid/disp/display.h ****             }
 353:../../libdaisy/src/hid/disp/display.h ****         } while(t_x <= 0);
 354:../../libdaisy/src/hid/disp/display.h ****     }
 355:../../libdaisy/src/hid/disp/display.h **** 
 356:../../libdaisy/src/hid/disp/display.h ****     char WriteChar(char ch, FontDef font, bool on) override
 554              		.loc 8 356 10 is_stmt 1 view -0
 555              		.cfi_startproc
 556              		@ args = 4, pretend = 0, frame = 16
 557              		@ frame_needed = 0, uses_anonymous_args = 0
 558              		.loc 8 356 10 is_stmt 0 view .LVU109
 559 0000 2DE9F04F 		push	{r4, r5, r6, r7, r8, r9, r10, fp, lr}
 560              		.cfi_def_cfa_offset 36
 561              		.cfi_offset 4, -36
 562              		.cfi_offset 5, -32
 563              		.cfi_offset 6, -28
 564              		.cfi_offset 7, -24
 565              		.cfi_offset 8, -20
 566              		.cfi_offset 9, -16
 567              		.cfi_offset 10, -12
ARM GAS  C:\Users\VINCIU~1\AppData\Local\Temp\ccI83ocg.s 			page 29


 568              		.cfi_offset 11, -8
 569              		.cfi_offset 14, -4
 570 0004 85B0     		sub	sp, sp, #20
 571              		.cfi_def_cfa_offset 56
 572              	.LVL37:
 357:../../libdaisy/src/hid/disp/display.h ****     {
 358:../../libdaisy/src/hid/disp/display.h ****         uint32_t i, b, j;
 359:../../libdaisy/src/hid/disp/display.h **** 
 360:../../libdaisy/src/hid/disp/display.h ****         // Check if character is valid
 361:../../libdaisy/src/hid/disp/display.h ****         if(ch < 32 || ch > 126)
 573              		.loc 8 361 20 view .LVU110
 574 0006 A1F12005 		sub	r5, r1, #32
 356:../../libdaisy/src/hid/disp/display.h ****     {
 575              		.loc 8 356 10 view .LVU111
 576 000a 04AC     		add	r4, sp, #16
 577 000c 9DF83870 		ldrb	r7, [sp, #56]	@ zero_extendqisi2
 578 0010 0091     		str	r1, [sp]
 579 0012 04E90C00 		stmdb	r4, {r2, r3}
 580              	.LVL38:
 581              		.loc 8 361 9 view .LVU112
 582 0016 EBB2     		uxtb	r3, r5
 583 0018 5E2B     		cmp	r3, #94
 584 001a 00F29580 		bhi	.L31
 362:../../libdaisy/src/hid/disp/display.h ****             return 0;
 363:../../libdaisy/src/hid/disp/display.h **** 
 364:../../libdaisy/src/hid/disp/display.h ****         // Check remaining space on current line
 365:../../libdaisy/src/hid/disp/display.h ****         if(Width() < (currentX_ + font.FontWidth)
 585              		.loc 8 365 17 view .LVU113
 586 001e 0368     		ldr	r3, [r0]
 587 0020 8046     		mov	r8, r0
 588 0022 5D4A     		ldr	r2, .L66
 589 0024 DB68     		ldr	r3, [r3, #12]
 590 0026 9DF80840 		ldrb	r4, [sp, #8]	@ zero_extendqisi2
 591 002a 9342     		cmp	r3, r2
 592 002c 9DF80960 		ldrb	r6, [sp, #9]	@ zero_extendqisi2
 593 0030 40F09480 		bne	.L58
 594 0034 8020     		movs	r0, #128
 595              	.LVL39:
 596              	.L30:
 597              		.loc 8 365 23 view .LVU114
 598 0036 B8F80430 		ldrh	r3, [r8, #4]
 599              		.loc 8 365 33 view .LVU115
 600 003a 2344     		add	r3, r3, r4
 366:../../libdaisy/src/hid/disp/display.h ****            || Height() < (currentY_ + font.FontHeight))
 601              		.loc 8 366 12 view .LVU116
 602 003c 8342     		cmp	r3, r0
 603 003e 00F38380 		bgt	.L31
 604              		.loc 8 366 21 discriminator 2 view .LVU117
 605 0042 D8F80030 		ldr	r3, [r8]
 606 0046 554A     		ldr	r2, .L66+4
 607 0048 9B68     		ldr	r3, [r3, #8]
 608 004a 9342     		cmp	r3, r2
 609 004c 40F08880 		bne	.L59
 610              		.loc 8 366 21 view .LVU118
 611 0050 4020     		movs	r0, #64
 612              	.L32:
 613              		.loc 8 366 27 discriminator 2 view .LVU119
ARM GAS  C:\Users\VINCIU~1\AppData\Local\Temp\ccI83ocg.s 			page 30


 614 0052 B8F80620 		ldrh	r2, [r8, #6]
 615              		.loc 8 366 37 discriminator 2 view .LVU120
 616 0056 9319     		adds	r3, r2, r6
 617              		.loc 8 366 27 discriminator 2 view .LVU121
 618 0058 0192     		str	r2, [sp, #4]
 619              		.loc 8 366 12 discriminator 2 view .LVU122
 620 005a 8342     		cmp	r3, r0
 621 005c 74DC     		bgt	.L31
 622              	.LVL40:
 367:../../libdaisy/src/hid/disp/display.h ****         {
 368:../../libdaisy/src/hid/disp/display.h ****             // Not enough space on current line
 369:../../libdaisy/src/hid/disp/display.h ****             return 0;
 370:../../libdaisy/src/hid/disp/display.h ****         }
 371:../../libdaisy/src/hid/disp/display.h **** 
 372:../../libdaisy/src/hid/disp/display.h ****         // Use the font to write
 373:../../libdaisy/src/hid/disp/display.h ****         for(i = 0; i < font.FontHeight; i++)
 623              		.loc 8 373 22 is_stmt 1 view .LVU123
 624 005e 002E     		cmp	r6, #0
 625 0060 00F08980 		beq	.L33
 374:../../libdaisy/src/hid/disp/display.h ****         {
 375:../../libdaisy/src/hid/disp/display.h ****             b = font.data[(ch - 32) * font.FontHeight + i];
 626              		.loc 8 375 37 is_stmt 0 view .LVU124
 627 0064 06FB05F5 		mul	r5, r6, r5
 628 0068 6FF00040 		mvn	r0, #-2147483648
 629              		.loc 8 375 22 view .LVU125
 630 006c 039B     		ldr	r3, [sp, #12]
 631 006e 9646     		mov	lr, r2
 632 0070 2844     		add	r0, r0, r5
 633 0072 2E44     		add	r6, r6, r5
 376:../../libdaisy/src/hid/disp/display.h ****             for(j = 0; j < font.FontWidth; j++)
 377:../../libdaisy/src/hid/disp/display.h ****             {
 378:../../libdaisy/src/hid/disp/display.h ****                 if((b << j) & 0x8000)
 379:../../libdaisy/src/hid/disp/display.h ****                 {
 380:../../libdaisy/src/hid/disp/display.h ****                     ((ChildType*)(this))
 381:../../libdaisy/src/hid/disp/display.h ****                         ->ChildType::DrawPixel(
 382:../../libdaisy/src/hid/disp/display.h ****                             currentX_ + j, (currentY_ + i), on);
 383:../../libdaisy/src/hid/disp/display.h ****                 }
 384:../../libdaisy/src/hid/disp/display.h ****                 else
 385:../../libdaisy/src/hid/disp/display.h ****                 {
 386:../../libdaisy/src/hid/disp/display.h ****                     ((ChildType*)(this))
 387:../../libdaisy/src/hid/disp/display.h ****                         ->ChildType::DrawPixel(
 388:../../libdaisy/src/hid/disp/display.h ****                             currentX_ + j, (currentY_ + i), !on);
 389:../../libdaisy/src/hid/disp/display.h ****                 }
 390:../../libdaisy/src/hid/disp/display.h ****             }
 391:../../libdaisy/src/hid/disp/display.h ****         }
 392:../../libdaisy/src/hid/disp/display.h **** 
 393:../../libdaisy/src/hid/disp/display.h ****         // The current space is now taken
 394:../../libdaisy/src/hid/disp/display.h ****         SetCursor(currentX_ + font.FontWidth, currentY_);
 634              		.loc 8 394 19 view .LVU126
 635 0074 B8F804A0 		ldrh	r10, [r8, #4]
 636 0078 03EB4000 		add	r0, r3, r0, lsl #1
 637 007c 023B     		subs	r3, r3, #2
 638 007e 03EB460B 		add	fp, r3, r6, lsl #1
 639              	.LVL41:
 640              	.L36:
 375:../../libdaisy/src/hid/disp/display.h ****             for(j = 0; j < font.FontWidth; j++)
 641              		.loc 8 375 15 view .LVU127
ARM GAS  C:\Users\VINCIU~1\AppData\Local\Temp\ccI83ocg.s 			page 31


 642 0082 30F8026F 		ldrh	r6, [r0, #2]!
 643              	.LVL42:
 376:../../libdaisy/src/hid/disp/display.h ****             for(j = 0; j < font.FontWidth; j++)
 644              		.loc 8 376 26 is_stmt 1 view .LVU128
 645 0086 BCB3     		cbz	r4, .L41
 646              	.LBB241:
 647              	.LBB242:
 648              	.LBB243:
 649              	.LBB244:
 650              	.LBB245:
 246:../../libdaisy/src/dev/oled_ssd130x.h ****     }
 651              		.loc 9 246 55 is_stmt 0 view .LVU129
 652 0088 0EF00703 		and	r3, lr, #7
 246:../../libdaisy/src/dev/oled_ssd130x.h ****     }
 653              		.loc 9 246 49 view .LVU130
 654 008c 4FF0010C 		mov	ip, #1
 246:../../libdaisy/src/dev/oled_ssd130x.h ****     }
 655              		.loc 9 246 28 view .LVU131
 656 0090 4FEADE02 		lsr	r2, lr, #3
 657 0094 5146     		mov	r1, r10
 246:../../libdaisy/src/dev/oled_ssd130x.h ****     }
 658              		.loc 9 246 49 view .LVU132
 659 0096 0CFA03FC 		lsl	ip, ip, r3
 660 009a 0AF11403 		add	r3, r10, #20
 246:../../libdaisy/src/dev/oled_ssd130x.h ****     }
 661              		.loc 9 246 42 view .LVU133
 662 009e 4FFA8CFC 		sxtb	ip, ip
 663 00a2 03EBC212 		add	r2, r3, r2, lsl #7
 664              	.LBE245:
 665              	.LBE244:
 666              	.LBE243:
 667              	.LBE242:
 668              	.LBE241:
 376:../../libdaisy/src/hid/disp/display.h ****             for(j = 0; j < font.FontWidth; j++)
 669              		.loc 8 376 19 view .LVU134
 670 00a6 0023     		movs	r3, #0
 671              	.LBB263:
 672              	.LBB258:
 673              	.LBB253:
 674              	.LBB249:
 675              	.LBB246:
 246:../../libdaisy/src/dev/oled_ssd130x.h ****     }
 676              		.loc 9 246 42 view .LVU135
 677 00a8 6FEA0C09 		mvn	r9, ip
 678 00ac 4244     		add	r2, r2, r8
 679 00ae 0EE0     		b	.L42
 680              	.LVL43:
 681              	.L60:
 246:../../libdaisy/src/dev/oled_ssd130x.h ****     }
 682              		.loc 9 246 42 view .LVU136
 683              	.LBE246:
 684              	.LBE249:
 685              	.LBE253:
 686              	.LBE258:
 687              	.LBE263:
 688              	.LBB264:
 689              	.LBI264:
ARM GAS  C:\Users\VINCIU~1\AppData\Local\Temp\ccI83ocg.s 			page 32


  41:../../libdaisy/src/hid/disp/oled_display.h ****     {
 690              		.loc 7 41 10 is_stmt 1 view .LVU137
 691              	.LBB265:
 692              	.LBI265:
 239:../../libdaisy/src/dev/oled_ssd130x.h ****     {
 693              		.loc 9 239 10 view .LVU138
 694              	.LBB266:
 241:../../libdaisy/src/dev/oled_ssd130x.h ****             return;
 695              		.loc 9 241 9 is_stmt 0 view .LVU139
 696 00b0 7F29     		cmp	r1, #127
 697 00b2 07D8     		bhi	.L38
 698 00b4 BEF13F0F 		cmp	lr, #63
 699 00b8 04D8     		bhi	.L38
 244:../../libdaisy/src/dev/oled_ssd130x.h ****         else
 700              		.loc 9 244 42 view .LVU140
 701 00ba 1578     		ldrb	r5, [r2]	@ zero_extendqisi2
 243:../../libdaisy/src/dev/oled_ssd130x.h ****             buffer_[x + (y / 8) * width] |= (1 << (y % 8));
 702              		.loc 9 243 9 view .LVU141
 703 00bc 9FB1     		cbz	r7, .L40
 704              	.L57:
 243:../../libdaisy/src/dev/oled_ssd130x.h ****             buffer_[x + (y / 8) * width] |= (1 << (y % 8));
 705              		.loc 9 243 9 view .LVU142
 706              	.LBE266:
 707              	.LBE265:
 708              	.LBE264:
 709              	.LBB267:
 710              	.LBB259:
 711              	.LBB254:
 244:../../libdaisy/src/dev/oled_ssd130x.h ****         else
 712              		.loc 9 244 42 view .LVU143
 713 00be 4CEA0505 		orr	r5, ip, r5
 714 00c2 1570     		strb	r5, [r2]
 715              	.L38:
 716              	.LBE254:
 717              	.LBE259:
 718              	.LBE267:
 376:../../libdaisy/src/hid/disp/display.h ****             {
 719              		.loc 8 376 13 is_stmt 1 discriminator 2 view .LVU144
 720 00c4 0133     		adds	r3, r3, #1
 721              	.LVL44:
 376:../../libdaisy/src/hid/disp/display.h ****             {
 722              		.loc 8 376 26 discriminator 2 view .LVU145
 723 00c6 0132     		adds	r2, r2, #1
 724 00c8 0131     		adds	r1, r1, #1
 725 00ca 9C42     		cmp	r4, r3
 726 00cc 14D0     		beq	.L41
 727              	.LVL45:
 728              	.L42:
 378:../../libdaisy/src/hid/disp/display.h ****                 {
 729              		.loc 8 378 23 is_stmt 0 view .LVU146
 730 00ce 06FA03F5 		lsl	r5, r6, r3
 378:../../libdaisy/src/hid/disp/display.h ****                 {
 731              		.loc 8 378 17 view .LVU147
 732 00d2 2D04     		lsls	r5, r5, #16
 733 00d4 ECD4     		bmi	.L60
 734              	.LVL46:
 735              	.LBB268:
ARM GAS  C:\Users\VINCIU~1\AppData\Local\Temp\ccI83ocg.s 			page 33


 736              	.LBI241:
  41:../../libdaisy/src/hid/disp/oled_display.h ****     {
 737              		.loc 7 41 10 is_stmt 1 view .LVU148
 738              	.LBB260:
 739              	.LBI242:
 239:../../libdaisy/src/dev/oled_ssd130x.h ****     {
 740              		.loc 9 239 10 view .LVU149
 741              	.LBB255:
 241:../../libdaisy/src/dev/oled_ssd130x.h ****             return;
 742              		.loc 9 241 9 is_stmt 0 view .LVU150
 743 00d6 7F29     		cmp	r1, #127
 744 00d8 F4D8     		bhi	.L38
 745 00da BEF13F0F 		cmp	lr, #63
 746 00de F1D8     		bhi	.L38
 244:../../libdaisy/src/dev/oled_ssd130x.h ****         else
 747              		.loc 9 244 42 view .LVU151
 748 00e0 1578     		ldrb	r5, [r2]	@ zero_extendqisi2
 243:../../libdaisy/src/dev/oled_ssd130x.h ****             buffer_[x + (y / 8) * width] |= (1 << (y % 8));
 749              		.loc 9 243 9 view .LVU152
 750 00e2 002F     		cmp	r7, #0
 751 00e4 EBD0     		beq	.L57
 752              	.L40:
 753              	.LVL47:
 754              	.LBB250:
 755              	.LBI244:
 239:../../libdaisy/src/dev/oled_ssd130x.h ****     {
 756              		.loc 9 239 10 is_stmt 1 view .LVU153
 239:../../libdaisy/src/dev/oled_ssd130x.h ****     {
 757              		.loc 9 239 10 is_stmt 0 view .LVU154
 758              	.LBE250:
 759              	.LBE255:
 760              	.LBE260:
 761              	.LBE268:
 376:../../libdaisy/src/hid/disp/display.h ****             {
 762              		.loc 8 376 13 view .LVU155
 763 00e6 0133     		adds	r3, r3, #1
 764              	.LVL48:
 765              	.LBB269:
 766              	.LBB261:
 767              	.LBB256:
 768              	.LBB251:
 769              	.LBB247:
 246:../../libdaisy/src/dev/oled_ssd130x.h ****     }
 770              		.loc 9 246 42 view .LVU156
 771 00e8 09EA0505 		and	r5, r9, r5
 772              	.LBE247:
 773              	.LBE251:
 774              	.LBE256:
 775              	.LBE261:
 776              	.LBE269:
 376:../../libdaisy/src/hid/disp/display.h ****             {
 777              		.loc 8 376 26 view .LVU157
 778 00ec 0132     		adds	r2, r2, #1
 779 00ee 0131     		adds	r1, r1, #1
 780 00f0 9C42     		cmp	r4, r3
 781              	.LBB270:
 782              	.LBB262:
ARM GAS  C:\Users\VINCIU~1\AppData\Local\Temp\ccI83ocg.s 			page 34


 783              	.LBB257:
 784              	.LBB252:
 785              	.LBB248:
 246:../../libdaisy/src/dev/oled_ssd130x.h ****     }
 786              		.loc 9 246 42 view .LVU158
 787 00f2 02F8015C 		strb	r5, [r2, #-1]
 246:../../libdaisy/src/dev/oled_ssd130x.h ****     }
 788              		.loc 9 246 42 view .LVU159
 789              	.LBE248:
 790              	.LBE252:
 791              	.LBE257:
 792              	.LBE262:
 793              	.LBE270:
 376:../../libdaisy/src/hid/disp/display.h ****             {
 794              		.loc 8 376 13 is_stmt 1 view .LVU160
 795              	.LVL49:
 376:../../libdaisy/src/hid/disp/display.h ****             {
 796              		.loc 8 376 26 view .LVU161
 797 00f6 EAD1     		bne	.L42
 798              	.LVL50:
 799              	.L41:
 373:../../libdaisy/src/hid/disp/display.h ****         {
 800              		.loc 8 373 9 view .LVU162
 373:../../libdaisy/src/hid/disp/display.h ****         {
 801              		.loc 8 373 22 view .LVU163
 802 00f8 5845     		cmp	r0, fp
 803 00fa 0EF1010E 		add	lr, lr, #1
 804 00fe C0D1     		bne	.L36
 805              	.LVL51:
 806              	.L35:
 807              	.LBB271:
 808              	.LBB272:
 133:../../libdaisy/src/hid/disp/display.h ****         currentY_ = (y >= Height()) ? Height() - 1 : y;
 809              		.loc 8 133 33 is_stmt 0 view .LVU164
 810 0100 D8F80030 		ldr	r3, [r8]
 811              	.LBE272:
 812              	.LBE271:
 813              		.loc 8 394 18 view .LVU165
 814 0104 5444     		add	r4, r4, r10
 815 0106 2449     		ldr	r1, .L66
 816              	.LBB278:
 817              	.LBB273:
 133:../../libdaisy/src/hid/disp/display.h ****         currentY_ = (y >= Height()) ? Height() - 1 : y;
 818              		.loc 8 133 33 view .LVU166
 819 0108 DA68     		ldr	r2, [r3, #12]
 820              	.LBE273:
 821              	.LBE278:
 822              		.loc 8 394 18 view .LVU167
 823 010a A4B2     		uxth	r4, r4
 824              	.LVL52:
 825              	.LBB279:
 826              	.LBI271:
 131:../../libdaisy/src/hid/disp/display.h ****     {
 827              		.loc 8 131 10 is_stmt 1 view .LVU168
 828              	.LBB274:
 133:../../libdaisy/src/hid/disp/display.h ****         currentY_ = (y >= Height()) ? Height() - 1 : y;
 829              		.loc 8 133 9 view .LVU169
ARM GAS  C:\Users\VINCIU~1\AppData\Local\Temp\ccI83ocg.s 			page 35


 830 010c 8A42     		cmp	r2, r1
 831 010e 2DD1     		bne	.L61
 133:../../libdaisy/src/hid/disp/display.h ****         currentY_ = (y >= Height()) ? Height() - 1 : y;
 832              		.loc 8 133 33 is_stmt 0 view .LVU170
 833 0110 8020     		movs	r0, #128
 834              	.L43:
 133:../../libdaisy/src/hid/disp/display.h ****         currentY_ = (y >= Height()) ? Height() - 1 : y;
 835              		.loc 8 133 19 view .LVU171
 836 0112 8442     		cmp	r4, r0
 837 0114 1CD2     		bcs	.L62
 838              	.LVL53:
 839              	.L44:
 134:../../libdaisy/src/hid/disp/display.h ****     }
 840              		.loc 8 134 34 view .LVU172
 841 0116 9B68     		ldr	r3, [r3, #8]
 842 0118 204A     		ldr	r2, .L66+4
 133:../../libdaisy/src/hid/disp/display.h ****         currentY_ = (y >= Height()) ? Height() - 1 : y;
 843              		.loc 8 133 19 view .LVU173
 844 011a A8F80440 		strh	r4, [r8, #4]	@ movhi
 134:../../libdaisy/src/hid/disp/display.h ****     }
 845              		.loc 8 134 9 is_stmt 1 view .LVU174
 846 011e 9342     		cmp	r3, r2
 847 0120 21D1     		bne	.L63
 134:../../libdaisy/src/hid/disp/display.h ****     }
 848              		.loc 8 134 34 is_stmt 0 view .LVU175
 849 0122 4020     		movs	r0, #64
 850              	.L46:
 134:../../libdaisy/src/hid/disp/display.h ****     }
 851              		.loc 8 134 19 view .LVU176
 852 0124 019B     		ldr	r3, [sp, #4]
 853 0126 8342     		cmp	r3, r0
 854 0128 07D3     		bcc	.L47
 134:../../libdaisy/src/hid/disp/display.h ****     }
 855              		.loc 8 134 46 view .LVU177
 856 012a D8F80030 		ldr	r3, [r8]
 857 012e 1B4A     		ldr	r2, .L66+4
 858 0130 9B68     		ldr	r3, [r3, #8]
 859 0132 9342     		cmp	r3, r2
 860 0134 29D1     		bne	.L64
 861 0136 3F23     		movs	r3, #63
 862 0138 0193     		str	r3, [sp, #4]
 863              	.LVL54:
 864              	.L47:
 134:../../libdaisy/src/hid/disp/display.h ****     }
 865              		.loc 8 134 19 view .LVU178
 866 013a DDE90003 		ldrd	r0, r3, [sp]
 867 013e A8F80630 		strh	r3, [r8, #6]	@ movhi
 868              	.LVL55:
 134:../../libdaisy/src/hid/disp/display.h ****     }
 869              		.loc 8 134 19 view .LVU179
 870              	.LBE274:
 871              	.LBE279:
 395:../../libdaisy/src/hid/disp/display.h **** 
 396:../../libdaisy/src/hid/disp/display.h ****         // Return written char for validation
 397:../../libdaisy/src/hid/disp/display.h ****         return ch;
 398:../../libdaisy/src/hid/disp/display.h ****     }
 872              		.loc 8 398 5 view .LVU180
ARM GAS  C:\Users\VINCIU~1\AppData\Local\Temp\ccI83ocg.s 			page 36


 873 0142 05B0     		add	sp, sp, #20
 874              		.cfi_remember_state
 875              		.cfi_def_cfa_offset 36
 876              		@ sp needed
 877 0144 BDE8F08F 		pop	{r4, r5, r6, r7, r8, r9, r10, fp, pc}
 878              	.LVL56:
 879              	.L31:
 880              		.cfi_restore_state
 362:../../libdaisy/src/hid/disp/display.h **** 
 881              		.loc 8 362 20 view .LVU181
 882 0148 0020     		movs	r0, #0
 883              		.loc 8 398 5 view .LVU182
 884 014a 05B0     		add	sp, sp, #20
 885              		.cfi_remember_state
 886              		.cfi_def_cfa_offset 36
 887              		@ sp needed
 888 014c BDE8F08F 		pop	{r4, r5, r6, r7, r8, r9, r10, fp, pc}
 889              	.LVL57:
 890              	.L62:
 891              		.cfi_restore_state
 892              	.LBB280:
 893              	.LBB275:
 133:../../libdaisy/src/hid/disp/display.h ****         currentY_ = (y >= Height()) ? Height() - 1 : y;
 894              		.loc 8 133 44 view .LVU183
 895 0150 DA68     		ldr	r2, [r3, #12]
 896 0152 1149     		ldr	r1, .L66
 897 0154 8A42     		cmp	r2, r1
 898 0156 11D1     		bne	.L65
 899 0158 7F24     		movs	r4, #127
 900              	.LVL58:
 133:../../libdaisy/src/hid/disp/display.h ****         currentY_ = (y >= Height()) ? Height() - 1 : y;
 901              		.loc 8 133 44 view .LVU184
 902 015a DCE7     		b	.L44
 903              	.LVL59:
 904              	.L58:
 133:../../libdaisy/src/hid/disp/display.h ****         currentY_ = (y >= Height()) ? Height() - 1 : y;
 905              		.loc 8 133 44 view .LVU185
 906              	.LBE275:
 907              	.LBE280:
 365:../../libdaisy/src/hid/disp/display.h ****            || Height() < (currentY_ + font.FontHeight))
 908              		.loc 8 365 17 view .LVU186
 909 015c 9847     		blx	r3
 910              	.LVL60:
 365:../../libdaisy/src/hid/disp/display.h ****            || Height() < (currentY_ + font.FontHeight))
 911              		.loc 8 365 17 view .LVU187
 912 015e 6AE7     		b	.L30
 913              	.L59:
 366:../../libdaisy/src/hid/disp/display.h ****         {
 914              		.loc 8 366 21 discriminator 2 view .LVU188
 915 0160 4046     		mov	r0, r8
 916 0162 9847     		blx	r3
 917              	.LVL61:
 918 0164 75E7     		b	.L32
 919              	.LVL62:
 920              	.L63:
 921              	.LBB281:
 922              	.LBB276:
ARM GAS  C:\Users\VINCIU~1\AppData\Local\Temp\ccI83ocg.s 			page 37


 134:../../libdaisy/src/hid/disp/display.h ****     }
 923              		.loc 8 134 33 view .LVU189
 924 0166 4046     		mov	r0, r8
 925 0168 9847     		blx	r3
 926              	.LVL63:
 927 016a DBE7     		b	.L46
 928              	.LVL64:
 929              	.L61:
 133:../../libdaisy/src/hid/disp/display.h ****         currentY_ = (y >= Height()) ? Height() - 1 : y;
 930              		.loc 8 133 32 view .LVU190
 931 016c 4046     		mov	r0, r8
 932 016e 9047     		blx	r2
 933              	.LVL65:
 133:../../libdaisy/src/hid/disp/display.h ****         currentY_ = (y >= Height()) ? Height() - 1 : y;
 934              		.loc 8 133 44 view .LVU191
 935 0170 D8F80030 		ldr	r3, [r8]
 936 0174 CDE7     		b	.L43
 937              	.LVL66:
 938              	.L33:
 133:../../libdaisy/src/hid/disp/display.h ****         currentY_ = (y >= Height()) ? Height() - 1 : y;
 939              		.loc 8 133 44 view .LVU192
 940              	.LBE276:
 941              	.LBE281:
 394:../../libdaisy/src/hid/disp/display.h **** 
 942              		.loc 8 394 19 view .LVU193
 943 0176 B8F804A0 		ldrh	r10, [r8, #4]
 944 017a C1E7     		b	.L35
 945              	.LVL67:
 946              	.L65:
 947              	.LBB282:
 948              	.LBB277:
 133:../../libdaisy/src/hid/disp/display.h ****         currentY_ = (y >= Height()) ? Height() - 1 : y;
 949              		.loc 8 133 43 view .LVU194
 950 017c 4046     		mov	r0, r8
 951 017e 9047     		blx	r2
 952              	.LVL68:
 133:../../libdaisy/src/hid/disp/display.h ****         currentY_ = (y >= Height()) ? Height() - 1 : y;
 953              		.loc 8 133 19 view .LVU195
 954 0180 0138     		subs	r0, r0, #1
 134:../../libdaisy/src/hid/disp/display.h ****     }
 955              		.loc 8 134 34 view .LVU196
 956 0182 D8F80030 		ldr	r3, [r8]
 133:../../libdaisy/src/hid/disp/display.h ****         currentY_ = (y >= Height()) ? Height() - 1 : y;
 957              		.loc 8 133 19 view .LVU197
 958 0186 84B2     		uxth	r4, r0
 959              	.LVL69:
 133:../../libdaisy/src/hid/disp/display.h ****         currentY_ = (y >= Height()) ? Height() - 1 : y;
 960              		.loc 8 133 19 view .LVU198
 961 0188 C5E7     		b	.L44
 962              	.L64:
 134:../../libdaisy/src/hid/disp/display.h ****     }
 963              		.loc 8 134 45 view .LVU199
 964 018a 4046     		mov	r0, r8
 965 018c 9847     		blx	r3
 966              	.LVL70:
 134:../../libdaisy/src/hid/disp/display.h ****     }
 967              		.loc 8 134 19 view .LVU200
ARM GAS  C:\Users\VINCIU~1\AppData\Local\Temp\ccI83ocg.s 			page 38


 968 018e 0138     		subs	r0, r0, #1
 969 0190 83B2     		uxth	r3, r0
 970 0192 0193     		str	r3, [sp, #4]
 971              	.LVL71:
 134:../../libdaisy/src/hid/disp/display.h ****     }
 972              		.loc 8 134 19 view .LVU201
 973 0194 D1E7     		b	.L47
 974              	.L67:
 975 0196 00BF     		.align	2
 976              	.L66:
 977 0198 00000000 		.word	_ZNK5daisy11OledDisplayINS_13SSD130xDriverILj128ELj64ENS_24SSD130x4WireSpiTransportEEEE5Widt
 978 019c 00000000 		.word	_ZNK5daisy11OledDisplayINS_13SSD130xDriverILj128ELj64ENS_24SSD130x4WireSpiTransportEEEE6Heig
 979              	.LBE277:
 980              	.LBE282:
 981              		.cfi_endproc
 982              	.LFE4608:
 984              		.section	.text._ZN5daisy25OneBitGraphicsDisplayImplINS_11OledDisplayINS_13SSD130xDriverILj128ELj64
 985              		.align	1
 986              		.p2align 2,,3
 987              		.weak	_ZN5daisy25OneBitGraphicsDisplayImplINS_11OledDisplayINS_13SSD130xDriverILj128ELj64ENS_24SSD
 988              		.syntax unified
 989              		.thumb
 990              		.thumb_func
 991              		.fpu fpv5-d16
 993              	_ZN5daisy25OneBitGraphicsDisplayImplINS_11OledDisplayINS_13SSD130xDriverILj128ELj64ENS_24SSD130x4Wi
 994              	.LVL72:
 995              	.LFB4609:
 399:../../libdaisy/src/hid/disp/display.h **** 
 400:../../libdaisy/src/hid/disp/display.h ****     char WriteString(const char* str, FontDef font, bool on) override
 996              		.loc 8 400 10 is_stmt 1 view -0
 997              		.cfi_startproc
 998              		@ args = 4, pretend = 0, frame = 8
 999              		@ frame_needed = 0, uses_anonymous_args = 0
 1000              		.loc 8 400 10 is_stmt 0 view .LVU203
 1001 0000 F0B5     		push	{r4, r5, r6, r7, lr}
 1002              		.cfi_def_cfa_offset 20
 1003              		.cfi_offset 4, -20
 1004              		.cfi_offset 5, -16
 1005              		.cfi_offset 6, -12
 1006              		.cfi_offset 7, -8
 1007              		.cfi_offset 14, -4
 1008 0002 85B0     		sub	sp, sp, #20
 1009              		.cfi_def_cfa_offset 40
 1010              		.loc 8 400 10 view .LVU204
 1011 0004 0C46     		mov	r4, r1
 401:../../libdaisy/src/hid/disp/display.h ****     {
 402:../../libdaisy/src/hid/disp/display.h ****         // Write until null-byte
 403:../../libdaisy/src/hid/disp/display.h ****         while(*str)
 1012              		.loc 8 403 9 is_stmt 1 view .LVU205
 1013 0006 0978     		ldrb	r1, [r1]	@ zero_extendqisi2
 1014              	.LVL73:
 400:../../libdaisy/src/hid/disp/display.h ****     {
 1015              		.loc 8 400 10 is_stmt 0 view .LVU206
 1016 0008 02AD     		add	r5, sp, #8
 1017 000a 9DF82870 		ldrb	r7, [sp, #40]	@ zero_extendqisi2
 1018 000e 85E80C00 		stm	r5, {r2, r3}
 1019              		.loc 8 403 9 view .LVU207
ARM GAS  C:\Users\VINCIU~1\AppData\Local\Temp\ccI83ocg.s 			page 39


 1020 0012 81B1     		cbz	r1, .L71
 1021 0014 0646     		mov	r6, r0
 1022 0016 02E0     		b	.L72
 1023              	.LVL74:
 1024              	.L78:
 1025              		.loc 8 403 9 view .LVU208
 1026 0018 14F8011F 		ldrb	r1, [r4, #1]!	@ zero_extendqisi2
 1027              	.LVL75:
 1028              		.loc 8 403 9 view .LVU209
 1029 001c 59B1     		cbz	r1, .L71
 1030              	.LVL76:
 1031              	.L72:
 404:../../libdaisy/src/hid/disp/display.h ****         {
 405:../../libdaisy/src/hid/disp/display.h ****             if(((ChildType*)(this))->ChildType::WriteChar(*str, font, on)
 1032              		.loc 8 405 58 view .LVU210
 1033 001e 3046     		mov	r0, r6
 1034 0020 95E80C00 		ldm	r5, {r2, r3}
 1035 0024 0097     		str	r7, [sp]
 1036 0026 FFF7FEFF 		bl	_ZN5daisy25OneBitGraphicsDisplayImplINS_11OledDisplayINS_13SSD130xDriverILj128ELj64ENS_24SSD130
 1037              	.LVL77:
 403:../../libdaisy/src/hid/disp/display.h ****         {
 1038              		.loc 8 403 9 is_stmt 1 view .LVU211
 406:../../libdaisy/src/hid/disp/display.h ****                != *str)
 1039              		.loc 8 406 16 is_stmt 0 view .LVU212
 1040 002a 2378     		ldrb	r3, [r4]	@ zero_extendqisi2
 405:../../libdaisy/src/hid/disp/display.h ****                != *str)
 1041              		.loc 8 405 13 view .LVU213
 1042 002c 9842     		cmp	r0, r3
 1043 002e F3D0     		beq	.L78
 407:../../libdaisy/src/hid/disp/display.h ****             {
 408:../../libdaisy/src/hid/disp/display.h ****                 // Char could not be written
 409:../../libdaisy/src/hid/disp/display.h ****                 return *str;
 410:../../libdaisy/src/hid/disp/display.h ****             }
 411:../../libdaisy/src/hid/disp/display.h **** 
 412:../../libdaisy/src/hid/disp/display.h ****             // Next char
 413:../../libdaisy/src/hid/disp/display.h ****             str++;
 414:../../libdaisy/src/hid/disp/display.h ****         }
 415:../../libdaisy/src/hid/disp/display.h **** 
 416:../../libdaisy/src/hid/disp/display.h ****         // Everything ok
 417:../../libdaisy/src/hid/disp/display.h ****         return *str;
 418:../../libdaisy/src/hid/disp/display.h ****     }
 1044              		.loc 8 418 5 view .LVU214
 1045 0030 1846     		mov	r0, r3
 1046 0032 05B0     		add	sp, sp, #20
 1047              		.cfi_remember_state
 1048              		.cfi_def_cfa_offset 20
 1049              		@ sp needed
 1050 0034 F0BD     		pop	{r4, r5, r6, r7, pc}
 1051              	.LVL78:
 1052              	.L71:
 1053              		.cfi_restore_state
 400:../../libdaisy/src/hid/disp/display.h ****     {
 1054              		.loc 8 400 10 view .LVU215
 1055 0036 0023     		movs	r3, #0
 1056              		.loc 8 418 5 view .LVU216
 1057 0038 1846     		mov	r0, r3
 1058 003a 05B0     		add	sp, sp, #20
ARM GAS  C:\Users\VINCIU~1\AppData\Local\Temp\ccI83ocg.s 			page 40


 1059              		.cfi_def_cfa_offset 20
 1060              		@ sp needed
 1061 003c F0BD     		pop	{r4, r5, r6, r7, pc}
 1062              		.loc 8 418 5 view .LVU217
 1063              		.cfi_endproc
 1064              	.LFE4609:
 1066 003e 00BF     		.section	.text._ZN5daisy11OledDisplayINS_13SSD130xDriverILj128ELj64ENS_24SSD130x4WireSpiTransportE
 1067              		.align	1
 1068              		.p2align 2,,3
 1069              		.weak	_ZN5daisy11OledDisplayINS_13SSD130xDriverILj128ELj64ENS_24SSD130x4WireSpiTransportEEEE9DrawP
 1070              		.syntax unified
 1071              		.thumb
 1072              		.thumb_func
 1073              		.fpu fpv5-d16
 1075              	_ZN5daisy11OledDisplayINS_13SSD130xDriverILj128ELj64ENS_24SSD130x4WireSpiTransportEEEE9DrawPixelEjj
 1076              	.LVL79:
 1077              	.LFB4604:
  41:../../libdaisy/src/hid/disp/oled_display.h ****     {
 1078              		.loc 7 41 10 is_stmt 1 view -0
 1079              		.cfi_startproc
 1080              		@ args = 0, pretend = 0, frame = 0
 1081              		@ frame_needed = 0, uses_anonymous_args = 0
 1082              		@ link register save eliminated.
 1083              	.LBB287:
 1084              	.LBI287:
 239:../../libdaisy/src/dev/oled_ssd130x.h ****     {
 1085              		.loc 9 239 10 view .LVU219
 1086              	.LBB288:
 241:../../libdaisy/src/dev/oled_ssd130x.h ****             return;
 1087              		.loc 9 241 9 is_stmt 0 view .LVU220
 1088 0000 7F29     		cmp	r1, #127
 1089 0002 1ED8     		bhi	.L79
 1090 0004 3F2A     		cmp	r2, #63
 1091 0006 1CD8     		bhi	.L79
 243:../../libdaisy/src/dev/oled_ssd130x.h ****             buffer_[x + (y / 8) * width] |= (1 << (y % 8));
 1092              		.loc 9 243 9 view .LVU221
 1093 0008 6BB1     		cbz	r3, .L81
 244:../../libdaisy/src/dev/oled_ssd130x.h ****         else
 1094              		.loc 9 244 28 view .LVU222
 1095 000a D308     		lsrs	r3, r2, #3
 1096              	.LVL80:
 244:../../libdaisy/src/dev/oled_ssd130x.h ****         else
 1097              		.loc 9 244 48 view .LVU223
 1098 000c 4FF0010C 		mov	ip, #1
 244:../../libdaisy/src/dev/oled_ssd130x.h ****         else
 1099              		.loc 9 244 54 view .LVU224
 1100 0010 02F00702 		and	r2, r2, #7
 1101              	.LVL81:
 244:../../libdaisy/src/dev/oled_ssd130x.h ****         else
 1102              		.loc 9 244 42 view .LVU225
 1103 0014 01EBC313 		add	r3, r1, r3, lsl #7
 244:../../libdaisy/src/dev/oled_ssd130x.h ****         else
 1104              		.loc 9 244 48 view .LVU226
 1105 0018 0CFA02F2 		lsl	r2, ip, r2
 244:../../libdaisy/src/dev/oled_ssd130x.h ****         else
 1106              		.loc 9 244 42 view .LVU227
 1107 001c C118     		adds	r1, r0, r3
ARM GAS  C:\Users\VINCIU~1\AppData\Local\Temp\ccI83ocg.s 			page 41


 1108              	.LVL82:
 244:../../libdaisy/src/dev/oled_ssd130x.h ****         else
 1109              		.loc 9 244 42 view .LVU228
 1110 001e 0B7D     		ldrb	r3, [r1, #20]	@ zero_extendqisi2
 1111 0020 1A43     		orrs	r2, r2, r3
 1112 0022 0A75     		strb	r2, [r1, #20]
 1113 0024 7047     		bx	lr
 1114              	.LVL83:
 1115              	.L81:
 1116              	.LBB289:
 1117              	.LBI289:
 239:../../libdaisy/src/dev/oled_ssd130x.h ****     {
 1118              		.loc 9 239 10 is_stmt 1 view .LVU229
 1119              	.LBB290:
 246:../../libdaisy/src/dev/oled_ssd130x.h ****     }
 1120              		.loc 9 246 28 is_stmt 0 view .LVU230
 1121 0026 D308     		lsrs	r3, r2, #3
 1122              	.LVL84:
 246:../../libdaisy/src/dev/oled_ssd130x.h ****     }
 1123              		.loc 9 246 49 view .LVU231
 1124 0028 4FF0010C 		mov	ip, #1
 246:../../libdaisy/src/dev/oled_ssd130x.h ****     }
 1125              		.loc 9 246 55 view .LVU232
 1126 002c 02F00702 		and	r2, r2, #7
 1127              	.LVL85:
 246:../../libdaisy/src/dev/oled_ssd130x.h ****     }
 1128              		.loc 9 246 42 view .LVU233
 1129 0030 01EBC313 		add	r3, r1, r3, lsl #7
 246:../../libdaisy/src/dev/oled_ssd130x.h ****     }
 1130              		.loc 9 246 49 view .LVU234
 1131 0034 0CFA02FC 		lsl	ip, ip, r2
 246:../../libdaisy/src/dev/oled_ssd130x.h ****     }
 1132              		.loc 9 246 42 view .LVU235
 1133 0038 C118     		adds	r1, r0, r3
 1134              	.LVL86:
 246:../../libdaisy/src/dev/oled_ssd130x.h ****     }
 1135              		.loc 9 246 42 view .LVU236
 1136 003a 0A7D     		ldrb	r2, [r1, #20]	@ zero_extendqisi2
 1137 003c 22EA0C02 		bic	r2, r2, ip
 1138 0040 0A75     		strb	r2, [r1, #20]
 1139              	.LVL87:
 1140              	.L79:
 246:../../libdaisy/src/dev/oled_ssd130x.h ****     }
 1141              		.loc 9 246 42 view .LVU237
 1142              	.LBE290:
 1143              	.LBE289:
 1144              	.LBE288:
 1145              	.LBE287:
  44:../../libdaisy/src/hid/disp/oled_display.h **** 
 1146              		.loc 7 44 5 view .LVU238
 1147 0042 7047     		bx	lr
 1148              		.cfi_endproc
 1149              	.LFE4604:
 1151              		.section	.text._ZN5daisy25OneBitGraphicsDisplayImplINS_11OledDisplayINS_13SSD130xDriverILj128ELj64
 1152              		.align	1
 1153              		.p2align 2,,3
 1154              		.weak	_ZN5daisy25OneBitGraphicsDisplayImplINS_11OledDisplayINS_13SSD130xDriverILj128ELj64ENS_24SSD
ARM GAS  C:\Users\VINCIU~1\AppData\Local\Temp\ccI83ocg.s 			page 42


 1155              		.syntax unified
 1156              		.thumb
 1157              		.thumb_func
 1158              		.fpu fpv5-d16
 1160              	_ZN5daisy25OneBitGraphicsDisplayImplINS_11OledDisplayINS_13SSD130xDriverILj128ELj64ENS_24SSD130x4Wi
 1161              	.LVL88:
 1162              	.LFB4605:
 181:../../libdaisy/src/hid/disp/display.h ****                   uint_fast8_t y1,
 1163              		.loc 8 181 10 is_stmt 1 view -0
 1164              		.cfi_startproc
 1165              		@ args = 8, pretend = 0, frame = 8
 1166              		@ frame_needed = 0, uses_anonymous_args = 0
 181:../../libdaisy/src/hid/disp/display.h ****                   uint_fast8_t y1,
 1167              		.loc 8 181 10 is_stmt 0 view .LVU240
 1168 0000 2DE9F04F 		push	{r4, r5, r6, r7, r8, r9, r10, fp, lr}
 1169              		.cfi_def_cfa_offset 36
 1170              		.cfi_offset 4, -36
 1171              		.cfi_offset 5, -32
 1172              		.cfi_offset 6, -28
 1173              		.cfi_offset 7, -24
 1174              		.cfi_offset 8, -20
 1175              		.cfi_offset 9, -16
 1176              		.cfi_offset 10, -12
 1177              		.cfi_offset 11, -8
 1178              		.cfi_offset 14, -4
 1179 0004 83B0     		sub	sp, sp, #12
 1180              		.cfi_def_cfa_offset 48
 187:../../libdaisy/src/hid/disp/display.h ****         int_fast16_t deltaY = abs((int_fast16_t)y2 - (int_fast16_t)y1);
 1181              		.loc 8 187 52 view .LVU241
 1182 0006 5C1A     		subs	r4, r3, r1
 181:../../libdaisy/src/hid/disp/display.h ****                   uint_fast8_t y1,
 1183              		.loc 8 181 10 view .LVU242
 1184 0008 0C9E     		ldr	r6, [sp, #48]
 187:../../libdaisy/src/hid/disp/display.h ****         int_fast16_t deltaY = abs((int_fast16_t)y2 - (int_fast16_t)y1);
 1185              		.loc 8 187 22 view .LVU243
 1186 000a 002C     		cmp	r4, #0
 181:../../libdaisy/src/hid/disp/display.h ****                   uint_fast8_t y1,
 1187              		.loc 8 181 10 view .LVU244
 1188 000c 9DF83490 		ldrb	r9, [sp, #52]	@ zero_extendqisi2
 188:../../libdaisy/src/hid/disp/display.h ****         int_fast16_t signX  = ((x1 < x2) ? 1 : -1);
 1189              		.loc 8 188 52 view .LVU245
 1190 0010 A6EB0208 		sub	r8, r6, r2
 187:../../libdaisy/src/hid/disp/display.h ****         int_fast16_t deltaY = abs((int_fast16_t)y2 - (int_fast16_t)y1);
 1191              		.loc 8 187 22 view .LVU246
 1192 0014 B8BF     		it	lt
 1193 0016 6442     		rsblt	r4, r4, #0
 1194              	.LVL89:
 188:../../libdaisy/src/hid/disp/display.h ****         int_fast16_t signX  = ((x1 < x2) ? 1 : -1);
 1195              		.loc 8 188 22 view .LVU247
 1196 0018 B8F1000F 		cmp	r8, #0
 1197 001c B8BF     		it	lt
 1198 001e C8F10008 		rsblt	r8, r8, #0
 1199              	.LVL90:
 189:../../libdaisy/src/hid/disp/display.h ****         int_fast16_t signY  = ((y1 < y2) ? 1 : -1);
 1200              		.loc 8 189 42 view .LVU248
 1201 0022 8B42     		cmp	r3, r1
 1202 0024 8CBF     		ite	hi
ARM GAS  C:\Users\VINCIU~1\AppData\Local\Temp\ccI83ocg.s 			page 43


 1203 0026 4FF0010A 		movhi	r10, #1
 1204 002a 4FF0FF3A 		movls	r10, #-1
 1205              	.LVL91:
 190:../../libdaisy/src/hid/disp/display.h ****         int_fast16_t error  = deltaX - deltaY;
 1206              		.loc 8 190 42 view .LVU249
 1207 002e 9642     		cmp	r6, r2
 191:../../libdaisy/src/hid/disp/display.h ****         int_fast16_t error2;
 1208              		.loc 8 191 22 view .LVU250
 1209 0030 A4EB080C 		sub	ip, r4, r8
 190:../../libdaisy/src/hid/disp/display.h ****         int_fast16_t error  = deltaX - deltaY;
 1210              		.loc 8 190 42 view .LVU251
 1211 0034 51D8     		bhi	.L84
 1212              	.LVL92:
 1213              	.LBB307:
 1214              	.LBI307:
  41:../../libdaisy/src/hid/disp/oled_display.h ****     {
 1215              		.loc 7 41 10 is_stmt 1 discriminator 4 view .LVU252
 1216              	.LBB308:
 1217              	.LBI308:
 239:../../libdaisy/src/dev/oled_ssd130x.h ****     {
 1218              		.loc 9 239 10 discriminator 4 view .LVU253
 1219              	.LBE308:
 1220              	.LBE307:
 190:../../libdaisy/src/hid/disp/display.h ****         int_fast16_t error  = deltaX - deltaY;
 1221              		.loc 8 190 42 is_stmt 0 discriminator 4 view .LVU254
 1222 0036 4FF0FF35 		mov	r5, #-1
 1223              	.LBB324:
 1224              	.LBB318:
 1225              	.LBB309:
 241:../../libdaisy/src/dev/oled_ssd130x.h ****             return;
 1226              		.loc 9 241 9 discriminator 4 view .LVU255
 1227 003a 7F2B     		cmp	r3, #127
 1228              	.LBE309:
 1229              	.LBE318:
 1230              	.LBE324:
 190:../../libdaisy/src/hid/disp/display.h ****         int_fast16_t error  = deltaX - deltaY;
 1231              		.loc 8 190 42 discriminator 4 view .LVU256
 1232 003c 0195     		str	r5, [sp, #4]
 1233              	.LBB325:
 1234              	.LBB319:
 1235              	.LBB314:
 241:../../libdaisy/src/dev/oled_ssd130x.h ****             return;
 1236              		.loc 9 241 9 discriminator 4 view .LVU257
 1237 003e 12D8     		bhi	.L85
 1238 0040 3F2E     		cmp	r6, #63
 1239 0042 10D8     		bhi	.L85
 1240              	.LVL93:
 1241              	.L96:
 244:../../libdaisy/src/dev/oled_ssd130x.h ****         else
 1242              		.loc 9 244 28 view .LVU258
 1243 0044 F508     		lsrs	r5, r6, #3
 244:../../libdaisy/src/dev/oled_ssd130x.h ****         else
 1244              		.loc 9 244 54 view .LVU259
 1245 0046 06F0070E 		and	lr, r6, #7
 244:../../libdaisy/src/dev/oled_ssd130x.h ****         else
 1246              		.loc 9 244 48 view .LVU260
 1247 004a 0127     		movs	r7, #1
ARM GAS  C:\Users\VINCIU~1\AppData\Local\Temp\ccI83ocg.s 			page 44


 244:../../libdaisy/src/dev/oled_ssd130x.h ****         else
 1248              		.loc 9 244 42 view .LVU261
 1249 004c 03EBC515 		add	r5, r3, r5, lsl #7
 1250 0050 0544     		add	r5, r5, r0
 243:../../libdaisy/src/dev/oled_ssd130x.h ****             buffer_[x + (y / 8) * width] |= (1 << (y % 8));
 1251              		.loc 9 243 9 view .LVU262
 1252 0052 B9F1000F 		cmp	r9, #0
 1253 0056 47D0     		beq	.L86
 244:../../libdaisy/src/dev/oled_ssd130x.h ****         else
 1254              		.loc 9 244 48 view .LVU263
 1255 0058 07FA0EF7 		lsl	r7, r7, lr
 244:../../libdaisy/src/dev/oled_ssd130x.h ****         else
 1256              		.loc 9 244 42 view .LVU264
 1257 005c 95F814E0 		ldrb	lr, [r5, #20]	@ zero_extendqisi2
 1258 0060 47EA0E07 		orr	r7, r7, lr
 1259 0064 2F75     		strb	r7, [r5, #20]
 1260              	.LVL94:
 1261              	.L85:
 244:../../libdaisy/src/dev/oled_ssd130x.h ****         else
 1262              		.loc 9 244 42 view .LVU265
 1263              	.LBE314:
 1264              	.LBE319:
 1265              	.LBE325:
 199:../../libdaisy/src/hid/disp/display.h ****         {
 1266              		.loc 8 199 26 is_stmt 1 view .LVU266
 1267 0066 9642     		cmp	r6, r2
 1268 0068 01D1     		bne	.L89
 1269              	.L108:
 199:../../libdaisy/src/hid/disp/display.h ****         {
 1270              		.loc 8 199 26 is_stmt 0 view .LVU267
 1271 006a 8B42     		cmp	r3, r1
 1272 006c 29D0     		beq	.L82
 1273              	.L89:
 1274              	.LVL95:
 203:../../libdaisy/src/hid/disp/display.h ****             {
 1275              		.loc 8 203 23 view .LVU268
 1276 006e C8F10007 		rsb	r7, r8, #0
 1277              	.L91:
 1278              	.LVL96:
 1279              	.LBB326:
 1280              	.LBI326:
  41:../../libdaisy/src/hid/disp/oled_display.h ****     {
 1281              		.loc 7 41 10 is_stmt 1 view .LVU269
 1282              	.LBB327:
 1283              	.LBI327:
 239:../../libdaisy/src/dev/oled_ssd130x.h ****     {
 1284              		.loc 9 239 10 view .LVU270
 1285              	.LBB328:
 241:../../libdaisy/src/dev/oled_ssd130x.h ****             return;
 1286              		.loc 9 241 9 is_stmt 0 view .LVU271
 1287 0072 7F29     		cmp	r1, #127
 1288 0074 14D8     		bhi	.L92
 1289 0076 3F2A     		cmp	r2, #63
 1290 0078 12D8     		bhi	.L92
 244:../../libdaisy/src/dev/oled_ssd130x.h ****         else
 1291              		.loc 9 244 28 view .LVU272
 1292 007a D508     		lsrs	r5, r2, #3
ARM GAS  C:\Users\VINCIU~1\AppData\Local\Temp\ccI83ocg.s 			page 45


 244:../../libdaisy/src/dev/oled_ssd130x.h ****         else
 1293              		.loc 9 244 54 view .LVU273
 1294 007c 02F0070B 		and	fp, r2, #7
 244:../../libdaisy/src/dev/oled_ssd130x.h ****         else
 1295              		.loc 9 244 48 view .LVU274
 1296 0080 4FF0010E 		mov	lr, #1
 244:../../libdaisy/src/dev/oled_ssd130x.h ****         else
 1297              		.loc 9 244 42 view .LVU275
 1298 0084 01EBC515 		add	r5, r1, r5, lsl #7
 1299 0088 0544     		add	r5, r5, r0
 243:../../libdaisy/src/dev/oled_ssd130x.h ****             buffer_[x + (y / 8) * width] |= (1 << (y % 8));
 1300              		.loc 9 243 9 view .LVU276
 1301 008a B9F1000F 		cmp	r9, #0
 1302 008e 1BD0     		beq	.L93
 244:../../libdaisy/src/dev/oled_ssd130x.h ****         else
 1303              		.loc 9 244 48 view .LVU277
 1304 0090 0EFA0BFE 		lsl	lr, lr, fp
 244:../../libdaisy/src/dev/oled_ssd130x.h ****         else
 1305              		.loc 9 244 42 view .LVU278
 1306 0094 95F814B0 		ldrb	fp, [r5, #20]	@ zero_extendqisi2
 1307 0098 4EEA0B0E 		orr	lr, lr, fp
 1308 009c 85F814E0 		strb	lr, [r5, #20]
 1309              	.L92:
 1310              	.LVL97:
 244:../../libdaisy/src/dev/oled_ssd130x.h ****         else
 1311              		.loc 9 244 42 view .LVU279
 1312              	.LBE328:
 1313              	.LBE327:
 1314              	.LBE326:
 203:../../libdaisy/src/hid/disp/display.h ****             {
 1315              		.loc 8 203 13 view .LVU280
 1316 00a0 B7EB4C0F 		cmp	r7, ip, lsl #1
 202:../../libdaisy/src/hid/disp/display.h ****             if(error2 > -deltaY)
 1317              		.loc 8 202 20 view .LVU281
 1318 00a4 4FEA4C05 		lsl	r5, ip, #1
 1319              	.LVL98:
 203:../../libdaisy/src/hid/disp/display.h ****             {
 1320              		.loc 8 203 13 view .LVU282
 1321 00a8 02DA     		bge	.L94
 205:../../libdaisy/src/hid/disp/display.h ****                 x1 += signX;
 1322              		.loc 8 205 23 view .LVU283
 1323 00aa ACEB080C 		sub	ip, ip, r8
 1324              	.LVL99:
 206:../../libdaisy/src/hid/disp/display.h ****             }
 1325              		.loc 8 206 20 view .LVU284
 1326 00ae 5144     		add	r1, r1, r10
 1327              	.LVL100:
 1328              	.L94:
 209:../../libdaisy/src/hid/disp/display.h ****             {
 1329              		.loc 8 209 13 view .LVU285
 1330 00b0 AC42     		cmp	r4, r5
 1331 00b2 02DD     		ble	.L95
 212:../../libdaisy/src/hid/disp/display.h ****             }
 1332              		.loc 8 212 20 view .LVU286
 1333 00b4 019D     		ldr	r5, [sp, #4]
 1334              	.LVL101:
 211:../../libdaisy/src/hid/disp/display.h ****                 y1 += signY;
ARM GAS  C:\Users\VINCIU~1\AppData\Local\Temp\ccI83ocg.s 			page 46


 1335              		.loc 8 211 23 view .LVU287
 1336 00b6 A444     		add	ip, ip, r4
 1337              	.LVL102:
 212:../../libdaisy/src/hid/disp/display.h ****             }
 1338              		.loc 8 212 20 view .LVU288
 1339 00b8 2A44     		add	r2, r2, r5
 1340              	.LVL103:
 1341              	.L95:
 199:../../libdaisy/src/hid/disp/display.h ****         {
 1342              		.loc 8 199 26 is_stmt 1 view .LVU289
 1343 00ba 9942     		cmp	r1, r3
 1344 00bc D9D1     		bne	.L91
 199:../../libdaisy/src/hid/disp/display.h ****         {
 1345              		.loc 8 199 26 is_stmt 0 view .LVU290
 1346 00be 9642     		cmp	r6, r2
 1347 00c0 D7D1     		bne	.L91
 1348              	.L82:
 215:../../libdaisy/src/hid/disp/display.h **** 
 1349              		.loc 8 215 5 view .LVU291
 1350 00c2 03B0     		add	sp, sp, #12
 1351              		.cfi_remember_state
 1352              		.cfi_def_cfa_offset 36
 1353              		@ sp needed
 1354 00c4 BDE8F08F 		pop	{r4, r5, r6, r7, r8, r9, r10, fp, pc}
 1355              	.LVL104:
 1356              	.L93:
 1357              		.cfi_restore_state
 1358              	.LBB333:
 1359              	.LBB332:
 1360              	.LBB331:
 1361              	.LBB329:
 1362              	.LBI329:
 239:../../libdaisy/src/dev/oled_ssd130x.h ****     {
 1363              		.loc 9 239 10 is_stmt 1 view .LVU292
 1364              	.LBB330:
 246:../../libdaisy/src/dev/oled_ssd130x.h ****     }
 1365              		.loc 9 246 49 is_stmt 0 view .LVU293
 1366 00c8 0EFA0BFB 		lsl	fp, lr, fp
 246:../../libdaisy/src/dev/oled_ssd130x.h ****     }
 1367              		.loc 9 246 42 view .LVU294
 1368 00cc 95F814E0 		ldrb	lr, [r5, #20]	@ zero_extendqisi2
 1369 00d0 2EEA0B0E 		bic	lr, lr, fp
 1370 00d4 85F814E0 		strb	lr, [r5, #20]
 1371 00d8 E2E7     		b	.L92
 1372              	.LVL105:
 1373              	.L84:
 246:../../libdaisy/src/dev/oled_ssd130x.h ****     }
 1374              		.loc 9 246 42 view .LVU295
 1375              	.LBE330:
 1376              	.LBE329:
 1377              	.LBE331:
 1378              	.LBE332:
 1379              	.LBE333:
 1380              	.LBB334:
  41:../../libdaisy/src/hid/disp/oled_display.h ****     {
 1381              		.loc 7 41 10 is_stmt 1 view .LVU296
 1382              	.LBB320:
ARM GAS  C:\Users\VINCIU~1\AppData\Local\Temp\ccI83ocg.s 			page 47


 239:../../libdaisy/src/dev/oled_ssd130x.h ****     {
 1383              		.loc 9 239 10 view .LVU297
 1384              	.LBE320:
 1385              	.LBE334:
 190:../../libdaisy/src/hid/disp/display.h ****         int_fast16_t error  = deltaX - deltaY;
 1386              		.loc 8 190 42 is_stmt 0 view .LVU298
 1387 00da 0125     		movs	r5, #1
 1388              	.LBB335:
 1389              	.LBB321:
 1390              	.LBB315:
 241:../../libdaisy/src/dev/oled_ssd130x.h ****             return;
 1391              		.loc 9 241 9 view .LVU299
 1392 00dc 7F2B     		cmp	r3, #127
 1393              	.LBE315:
 1394              	.LBE321:
 1395              	.LBE335:
 190:../../libdaisy/src/hid/disp/display.h ****         int_fast16_t error  = deltaX - deltaY;
 1396              		.loc 8 190 42 view .LVU300
 1397 00de 0195     		str	r5, [sp, #4]
 1398              	.LBB336:
 1399              	.LBB322:
 1400              	.LBB316:
 241:../../libdaisy/src/dev/oled_ssd130x.h ****             return;
 1401              		.loc 9 241 9 view .LVU301
 1402 00e0 C5D8     		bhi	.L89
 1403 00e2 3F2E     		cmp	r6, #63
 1404 00e4 AED9     		bls	.L96
 1405 00e6 C2E7     		b	.L89
 1406              	.LVL106:
 1407              	.L86:
 1408              	.LBB310:
 1409              	.LBI310:
 239:../../libdaisy/src/dev/oled_ssd130x.h ****     {
 1410              		.loc 9 239 10 is_stmt 1 view .LVU302
 1411              	.LBB311:
 246:../../libdaisy/src/dev/oled_ssd130x.h ****     }
 1412              		.loc 9 246 49 is_stmt 0 view .LVU303
 1413 00e8 07FA0EFE 		lsl	lr, r7, lr
 246:../../libdaisy/src/dev/oled_ssd130x.h ****     }
 1414              		.loc 9 246 42 view .LVU304
 1415 00ec 2F7D     		ldrb	r7, [r5, #20]	@ zero_extendqisi2
 1416              	.LBE311:
 1417              	.LBE310:
 1418              	.LBE316:
 1419              	.LBE322:
 1420              	.LBE336:
 199:../../libdaisy/src/hid/disp/display.h ****         {
 1421              		.loc 8 199 26 view .LVU305
 1422 00ee 9642     		cmp	r6, r2
 1423              	.LBB337:
 1424              	.LBB323:
 1425              	.LBB317:
 1426              	.LBB313:
 1427              	.LBB312:
 246:../../libdaisy/src/dev/oled_ssd130x.h ****     }
 1428              		.loc 9 246 42 view .LVU306
 1429 00f0 27EA0E07 		bic	r7, r7, lr
ARM GAS  C:\Users\VINCIU~1\AppData\Local\Temp\ccI83ocg.s 			page 48


 1430 00f4 2F75     		strb	r7, [r5, #20]
 1431              	.LVL107:
 246:../../libdaisy/src/dev/oled_ssd130x.h ****     }
 1432              		.loc 9 246 42 view .LVU307
 1433              	.LBE312:
 1434              	.LBE313:
 1435              	.LBE317:
 1436              	.LBE323:
 1437              	.LBE337:
 199:../../libdaisy/src/hid/disp/display.h ****         {
 1438              		.loc 8 199 26 is_stmt 1 view .LVU308
 1439 00f6 B8D0     		beq	.L108
 1440 00f8 B9E7     		b	.L89
 1441              		.cfi_endproc
 1442              	.LFE4605:
 1444 00fa 00BF     		.section	.text._ZN5daisy25OneBitGraphicsDisplayImplINS_11OledDisplayINS_13SSD130xDriverILj128ELj64
 1445              		.align	1
 1446              		.p2align 2,,3
 1447              		.weak	_ZN5daisy25OneBitGraphicsDisplayImplINS_11OledDisplayINS_13SSD130xDriverILj128ELj64ENS_24SSD
 1448              		.syntax unified
 1449              		.thumb
 1450              		.thumb_func
 1451              		.fpu fpv5-d16
 1453              	_ZN5daisy25OneBitGraphicsDisplayImplINS_11OledDisplayINS_13SSD130xDriverILj128ELj64ENS_24SSD130x4Wi
 1454              	.LVL108:
 1455              	.LFB4607:
 243:../../libdaisy/src/hid/disp/display.h ****                  uint_fast8_t y,
 1456              		.loc 8 243 10 view -0
 1457              		.cfi_startproc
 1458              		@ args = 12, pretend = 0, frame = 8
 1459              		@ frame_needed = 0, uses_anonymous_args = 0
 243:../../libdaisy/src/hid/disp/display.h ****                  uint_fast8_t y,
 1460              		.loc 8 243 10 is_stmt 0 view .LVU310
 1461 0000 2DE9F04F 		push	{r4, r5, r6, r7, r8, r9, r10, fp, lr}
 1462              		.cfi_def_cfa_offset 36
 1463              		.cfi_offset 4, -36
 1464              		.cfi_offset 5, -32
 1465              		.cfi_offset 6, -28
 1466              		.cfi_offset 7, -24
 1467              		.cfi_offset 8, -20
 1468              		.cfi_offset 9, -16
 1469              		.cfi_offset 10, -12
 1470              		.cfi_offset 11, -8
 1471              		.cfi_offset 14, -4
 1472 0004 2DED068B 		vpush.64	{d8, d9, d10}
 1473              		.cfi_def_cfa_offset 60
 1474              		.cfi_offset 80, -60
 1475              		.cfi_offset 81, -56
 1476              		.cfi_offset 82, -52
 1477              		.cfi_offset 83, -48
 1478              		.cfi_offset 84, -44
 1479              		.cfi_offset 85, -40
 1480 0008 83B0     		sub	sp, sp, #12
 1481              		.cfi_def_cfa_offset 72
 243:../../libdaisy/src/hid/disp/display.h ****                  uint_fast8_t y,
 1482              		.loc 8 243 10 view .LVU311
 1483 000a 1F46     		mov	r7, r3
ARM GAS  C:\Users\VINCIU~1\AppData\Local\Temp\ccI83ocg.s 			page 49


 1484 000c 8046     		mov	r8, r0
 1485 000e 0D46     		mov	r5, r1
 1486 0010 9DF85030 		ldrb	r3, [sp, #80]	@ zero_extendqisi2
 1487              	.LVL109:
 243:../../libdaisy/src/hid/disp/display.h ****                  uint_fast8_t y,
 1488              		.loc 8 243 10 view .LVU312
 1489 0014 1646     		mov	r6, r2
 1490 0016 0193     		str	r3, [sp, #4]
 266:../../libdaisy/src/hid/disp/display.h ****         {
 1491              		.loc 8 266 9 view .LVU313
 1492 0018 139B     		ldr	r3, [sp, #76]
 1493 001a 002B     		cmp	r3, #0
 1494 001c C0F22182 		blt	.L110
 273:../../libdaisy/src/hid/disp/display.h **** 
 1495              		.loc 8 273 27 view .LVU314
 1496 0020 129A     		ldr	r2, [sp, #72]
 1497              	.LVL110:
 273:../../libdaisy/src/hid/disp/display.h **** 
 1498              		.loc 8 273 27 view .LVU315
 1499 0022 1344     		add	r3, r3, r2
 1500 0024 06EE103A 		vmov	s12, r3	@ int
 1501              	.LVL111:
 1502              	.L111:
 272:../../libdaisy/src/hid/disp/display.h ****         end_angle_rad   = deg2rad(start_angle + sweep);
 1503              		.loc 8 272 27 view .LVU316
 1504 0028 DDED127A 		vldr.32	s15, [sp, #72]	@ int
 273:../../libdaisy/src/hid/disp/display.h **** 
 1505              		.loc 8 273 27 view .LVU317
 1506 002c B8EEC66B 		vcvt.f64.s32	d6, s12
 272:../../libdaisy/src/hid/disp/display.h ****         end_angle_rad   = deg2rad(start_angle + sweep);
 1507              		.loc 8 272 27 view .LVU318
 1508 0030 9FEDCD4B 		vldr.64	d4, .L186
 1509 0034 B8EEE77B 		vcvt.f64.s32	d7, s15
 1510 0038 9FEDCD5B 		vldr.64	d5, .L186+8
 1511 003c 27EE047B 		vmul.f64	d7, d7, d4
 273:../../libdaisy/src/hid/disp/display.h **** 
 1512              		.loc 8 273 27 view .LVU319
 1513 0040 26EE046B 		vmul.f64	d6, d6, d4
 272:../../libdaisy/src/hid/disp/display.h ****         end_angle_rad   = deg2rad(start_angle + sweep);
 1514              		.loc 8 272 27 view .LVU320
 1515 0044 87EE050B 		vdiv.f64	d0, d7, d5
 273:../../libdaisy/src/hid/disp/display.h **** 
 1516              		.loc 8 273 27 view .LVU321
 1517 0048 86EE05AB 		vdiv.f64	d10, d6, d5
 272:../../libdaisy/src/hid/disp/display.h ****         end_angle_rad   = deg2rad(start_angle + sweep);
 1518              		.loc 8 272 25 view .LVU322
 1519 004c F7EEC08B 		vcvt.f32.f64	s17, d0
 1520              	.LVL112:
 1521              	.LBB370:
 1522              	.LBB371:
 1523              		.file 11 "c:\\users\\vin\355cius\\documents\\daisytoolchain-0.3.1\\windows\\arm-none-eabi\\include
   1:c:\users\vincius\documents\daisytoolchain-0.3.1\windows\arm-none-eabi\include\c++\10.2.1\cmath **** // -*- C++ -*- C forwarding header.
   2:c:\users\vincius\documents\daisytoolchain-0.3.1\windows\arm-none-eabi\include\c++\10.2.1\cmath **** 
   3:c:\users\vincius\documents\daisytoolchain-0.3.1\windows\arm-none-eabi\include\c++\10.2.1\cmath **** // Copyright (C) 1997-2020 Free Software Foundation, Inc.
   4:c:\users\vincius\documents\daisytoolchain-0.3.1\windows\arm-none-eabi\include\c++\10.2.1\cmath **** //
   5:c:\users\vincius\documents\daisytoolchain-0.3.1\windows\arm-none-eabi\include\c++\10.2.1\cmath **** // This file is part of the GNU ISO C++ Library.  This library is free
   6:c:\users\vincius\documents\daisytoolchain-0.3.1\windows\arm-none-eabi\include\c++\10.2.1\cmath **** // software; you can redistribute it and/or modify it under the
ARM GAS  C:\Users\VINCIU~1\AppData\Local\Temp\ccI83ocg.s 			page 50


   7:c:\users\vincius\documents\daisytoolchain-0.3.1\windows\arm-none-eabi\include\c++\10.2.1\cmath **** // terms of the GNU General Public License as published by the
   8:c:\users\vincius\documents\daisytoolchain-0.3.1\windows\arm-none-eabi\include\c++\10.2.1\cmath **** // Free Software Foundation; either version 3, or (at your option)
   9:c:\users\vincius\documents\daisytoolchain-0.3.1\windows\arm-none-eabi\include\c++\10.2.1\cmath **** // any later version.
  10:c:\users\vincius\documents\daisytoolchain-0.3.1\windows\arm-none-eabi\include\c++\10.2.1\cmath **** 
  11:c:\users\vincius\documents\daisytoolchain-0.3.1\windows\arm-none-eabi\include\c++\10.2.1\cmath **** // This library is distributed in the hope that it will be useful,
  12:c:\users\vincius\documents\daisytoolchain-0.3.1\windows\arm-none-eabi\include\c++\10.2.1\cmath **** // but WITHOUT ANY WARRANTY; without even the implied warranty of
  13:c:\users\vincius\documents\daisytoolchain-0.3.1\windows\arm-none-eabi\include\c++\10.2.1\cmath **** // MERCHANTABILITY or FITNESS FOR A PARTICULAR PURPOSE.  See the
  14:c:\users\vincius\documents\daisytoolchain-0.3.1\windows\arm-none-eabi\include\c++\10.2.1\cmath **** // GNU General Public License for more details.
  15:c:\users\vincius\documents\daisytoolchain-0.3.1\windows\arm-none-eabi\include\c++\10.2.1\cmath **** 
  16:c:\users\vincius\documents\daisytoolchain-0.3.1\windows\arm-none-eabi\include\c++\10.2.1\cmath **** // Under Section 7 of GPL version 3, you are granted additional
  17:c:\users\vincius\documents\daisytoolchain-0.3.1\windows\arm-none-eabi\include\c++\10.2.1\cmath **** // permissions described in the GCC Runtime Library Exception, version
  18:c:\users\vincius\documents\daisytoolchain-0.3.1\windows\arm-none-eabi\include\c++\10.2.1\cmath **** // 3.1, as published by the Free Software Foundation.
  19:c:\users\vincius\documents\daisytoolchain-0.3.1\windows\arm-none-eabi\include\c++\10.2.1\cmath **** 
  20:c:\users\vincius\documents\daisytoolchain-0.3.1\windows\arm-none-eabi\include\c++\10.2.1\cmath **** // You should have received a copy of the GNU General Public License and
  21:c:\users\vincius\documents\daisytoolchain-0.3.1\windows\arm-none-eabi\include\c++\10.2.1\cmath **** // a copy of the GCC Runtime Library Exception along with this program;
  22:c:\users\vincius\documents\daisytoolchain-0.3.1\windows\arm-none-eabi\include\c++\10.2.1\cmath **** // see the files COPYING3 and COPYING.RUNTIME respectively.  If not, see
  23:c:\users\vincius\documents\daisytoolchain-0.3.1\windows\arm-none-eabi\include\c++\10.2.1\cmath **** // <http://www.gnu.org/licenses/>.
  24:c:\users\vincius\documents\daisytoolchain-0.3.1\windows\arm-none-eabi\include\c++\10.2.1\cmath **** 
  25:c:\users\vincius\documents\daisytoolchain-0.3.1\windows\arm-none-eabi\include\c++\10.2.1\cmath **** /** @file include/cmath
  26:c:\users\vincius\documents\daisytoolchain-0.3.1\windows\arm-none-eabi\include\c++\10.2.1\cmath ****  *  This is a Standard C++ Library file.  You should @c \#include this file
  27:c:\users\vincius\documents\daisytoolchain-0.3.1\windows\arm-none-eabi\include\c++\10.2.1\cmath ****  *  in your programs, rather than any of the @a *.h implementation files.
  28:c:\users\vincius\documents\daisytoolchain-0.3.1\windows\arm-none-eabi\include\c++\10.2.1\cmath ****  *
  29:c:\users\vincius\documents\daisytoolchain-0.3.1\windows\arm-none-eabi\include\c++\10.2.1\cmath ****  *  This is the C++ version of the Standard C Library header @c math.h,
  30:c:\users\vincius\documents\daisytoolchain-0.3.1\windows\arm-none-eabi\include\c++\10.2.1\cmath ****  *  and its contents are (mostly) the same as that header, but are all
  31:c:\users\vincius\documents\daisytoolchain-0.3.1\windows\arm-none-eabi\include\c++\10.2.1\cmath ****  *  contained in the namespace @c std (except for names which are defined
  32:c:\users\vincius\documents\daisytoolchain-0.3.1\windows\arm-none-eabi\include\c++\10.2.1\cmath ****  *  as macros in C).
  33:c:\users\vincius\documents\daisytoolchain-0.3.1\windows\arm-none-eabi\include\c++\10.2.1\cmath ****  */
  34:c:\users\vincius\documents\daisytoolchain-0.3.1\windows\arm-none-eabi\include\c++\10.2.1\cmath **** 
  35:c:\users\vincius\documents\daisytoolchain-0.3.1\windows\arm-none-eabi\include\c++\10.2.1\cmath **** //
  36:c:\users\vincius\documents\daisytoolchain-0.3.1\windows\arm-none-eabi\include\c++\10.2.1\cmath **** // ISO C++ 14882: 26.5  C library
  37:c:\users\vincius\documents\daisytoolchain-0.3.1\windows\arm-none-eabi\include\c++\10.2.1\cmath **** //
  38:c:\users\vincius\documents\daisytoolchain-0.3.1\windows\arm-none-eabi\include\c++\10.2.1\cmath **** 
  39:c:\users\vincius\documents\daisytoolchain-0.3.1\windows\arm-none-eabi\include\c++\10.2.1\cmath **** #pragma GCC system_header
  40:c:\users\vincius\documents\daisytoolchain-0.3.1\windows\arm-none-eabi\include\c++\10.2.1\cmath **** 
  41:c:\users\vincius\documents\daisytoolchain-0.3.1\windows\arm-none-eabi\include\c++\10.2.1\cmath **** #include <bits/c++config.h>
  42:c:\users\vincius\documents\daisytoolchain-0.3.1\windows\arm-none-eabi\include\c++\10.2.1\cmath **** #include <bits/cpp_type_traits.h>
  43:c:\users\vincius\documents\daisytoolchain-0.3.1\windows\arm-none-eabi\include\c++\10.2.1\cmath **** #include <ext/type_traits.h>
  44:c:\users\vincius\documents\daisytoolchain-0.3.1\windows\arm-none-eabi\include\c++\10.2.1\cmath **** #define _GLIBCXX_INCLUDE_NEXT_C_HEADERS
  45:c:\users\vincius\documents\daisytoolchain-0.3.1\windows\arm-none-eabi\include\c++\10.2.1\cmath **** #include_next <math.h>
  46:c:\users\vincius\documents\daisytoolchain-0.3.1\windows\arm-none-eabi\include\c++\10.2.1\cmath **** #undef _GLIBCXX_INCLUDE_NEXT_C_HEADERS
  47:c:\users\vincius\documents\daisytoolchain-0.3.1\windows\arm-none-eabi\include\c++\10.2.1\cmath **** #include <bits/std_abs.h>
  48:c:\users\vincius\documents\daisytoolchain-0.3.1\windows\arm-none-eabi\include\c++\10.2.1\cmath **** 
  49:c:\users\vincius\documents\daisytoolchain-0.3.1\windows\arm-none-eabi\include\c++\10.2.1\cmath **** #ifndef _GLIBCXX_CMATH
  50:c:\users\vincius\documents\daisytoolchain-0.3.1\windows\arm-none-eabi\include\c++\10.2.1\cmath **** #define _GLIBCXX_CMATH 1
  51:c:\users\vincius\documents\daisytoolchain-0.3.1\windows\arm-none-eabi\include\c++\10.2.1\cmath **** 
  52:c:\users\vincius\documents\daisytoolchain-0.3.1\windows\arm-none-eabi\include\c++\10.2.1\cmath **** // Get rid of those macros defined in <math.h> in lieu of real functions.
  53:c:\users\vincius\documents\daisytoolchain-0.3.1\windows\arm-none-eabi\include\c++\10.2.1\cmath **** #undef div
  54:c:\users\vincius\documents\daisytoolchain-0.3.1\windows\arm-none-eabi\include\c++\10.2.1\cmath **** #undef acos
  55:c:\users\vincius\documents\daisytoolchain-0.3.1\windows\arm-none-eabi\include\c++\10.2.1\cmath **** #undef asin
  56:c:\users\vincius\documents\daisytoolchain-0.3.1\windows\arm-none-eabi\include\c++\10.2.1\cmath **** #undef atan
  57:c:\users\vincius\documents\daisytoolchain-0.3.1\windows\arm-none-eabi\include\c++\10.2.1\cmath **** #undef atan2
  58:c:\users\vincius\documents\daisytoolchain-0.3.1\windows\arm-none-eabi\include\c++\10.2.1\cmath **** #undef ceil
  59:c:\users\vincius\documents\daisytoolchain-0.3.1\windows\arm-none-eabi\include\c++\10.2.1\cmath **** #undef cos
  60:c:\users\vincius\documents\daisytoolchain-0.3.1\windows\arm-none-eabi\include\c++\10.2.1\cmath **** #undef cosh
  61:c:\users\vincius\documents\daisytoolchain-0.3.1\windows\arm-none-eabi\include\c++\10.2.1\cmath **** #undef exp
  62:c:\users\vincius\documents\daisytoolchain-0.3.1\windows\arm-none-eabi\include\c++\10.2.1\cmath **** #undef fabs
  63:c:\users\vincius\documents\daisytoolchain-0.3.1\windows\arm-none-eabi\include\c++\10.2.1\cmath **** #undef floor
ARM GAS  C:\Users\VINCIU~1\AppData\Local\Temp\ccI83ocg.s 			page 51


  64:c:\users\vincius\documents\daisytoolchain-0.3.1\windows\arm-none-eabi\include\c++\10.2.1\cmath **** #undef fmod
  65:c:\users\vincius\documents\daisytoolchain-0.3.1\windows\arm-none-eabi\include\c++\10.2.1\cmath **** #undef frexp
  66:c:\users\vincius\documents\daisytoolchain-0.3.1\windows\arm-none-eabi\include\c++\10.2.1\cmath **** #undef ldexp
  67:c:\users\vincius\documents\daisytoolchain-0.3.1\windows\arm-none-eabi\include\c++\10.2.1\cmath **** #undef log
  68:c:\users\vincius\documents\daisytoolchain-0.3.1\windows\arm-none-eabi\include\c++\10.2.1\cmath **** #undef log10
  69:c:\users\vincius\documents\daisytoolchain-0.3.1\windows\arm-none-eabi\include\c++\10.2.1\cmath **** #undef modf
  70:c:\users\vincius\documents\daisytoolchain-0.3.1\windows\arm-none-eabi\include\c++\10.2.1\cmath **** #undef pow
  71:c:\users\vincius\documents\daisytoolchain-0.3.1\windows\arm-none-eabi\include\c++\10.2.1\cmath **** #undef sin
  72:c:\users\vincius\documents\daisytoolchain-0.3.1\windows\arm-none-eabi\include\c++\10.2.1\cmath **** #undef sinh
  73:c:\users\vincius\documents\daisytoolchain-0.3.1\windows\arm-none-eabi\include\c++\10.2.1\cmath **** #undef sqrt
  74:c:\users\vincius\documents\daisytoolchain-0.3.1\windows\arm-none-eabi\include\c++\10.2.1\cmath **** #undef tan
  75:c:\users\vincius\documents\daisytoolchain-0.3.1\windows\arm-none-eabi\include\c++\10.2.1\cmath **** #undef tanh
  76:c:\users\vincius\documents\daisytoolchain-0.3.1\windows\arm-none-eabi\include\c++\10.2.1\cmath **** 
  77:c:\users\vincius\documents\daisytoolchain-0.3.1\windows\arm-none-eabi\include\c++\10.2.1\cmath **** extern "C++"
  78:c:\users\vincius\documents\daisytoolchain-0.3.1\windows\arm-none-eabi\include\c++\10.2.1\cmath **** {
  79:c:\users\vincius\documents\daisytoolchain-0.3.1\windows\arm-none-eabi\include\c++\10.2.1\cmath **** namespace std _GLIBCXX_VISIBILITY(default)
  80:c:\users\vincius\documents\daisytoolchain-0.3.1\windows\arm-none-eabi\include\c++\10.2.1\cmath **** {
  81:c:\users\vincius\documents\daisytoolchain-0.3.1\windows\arm-none-eabi\include\c++\10.2.1\cmath **** _GLIBCXX_BEGIN_NAMESPACE_VERSION
  82:c:\users\vincius\documents\daisytoolchain-0.3.1\windows\arm-none-eabi\include\c++\10.2.1\cmath **** 
  83:c:\users\vincius\documents\daisytoolchain-0.3.1\windows\arm-none-eabi\include\c++\10.2.1\cmath ****   using ::acos;
  84:c:\users\vincius\documents\daisytoolchain-0.3.1\windows\arm-none-eabi\include\c++\10.2.1\cmath **** 
  85:c:\users\vincius\documents\daisytoolchain-0.3.1\windows\arm-none-eabi\include\c++\10.2.1\cmath **** #ifndef __CORRECT_ISO_CPP_MATH_H_PROTO
  86:c:\users\vincius\documents\daisytoolchain-0.3.1\windows\arm-none-eabi\include\c++\10.2.1\cmath ****   inline _GLIBCXX_CONSTEXPR float
  87:c:\users\vincius\documents\daisytoolchain-0.3.1\windows\arm-none-eabi\include\c++\10.2.1\cmath ****   acos(float __x)
  88:c:\users\vincius\documents\daisytoolchain-0.3.1\windows\arm-none-eabi\include\c++\10.2.1\cmath ****   { return __builtin_acosf(__x); }
  89:c:\users\vincius\documents\daisytoolchain-0.3.1\windows\arm-none-eabi\include\c++\10.2.1\cmath **** 
  90:c:\users\vincius\documents\daisytoolchain-0.3.1\windows\arm-none-eabi\include\c++\10.2.1\cmath ****   inline _GLIBCXX_CONSTEXPR long double
  91:c:\users\vincius\documents\daisytoolchain-0.3.1\windows\arm-none-eabi\include\c++\10.2.1\cmath ****   acos(long double __x)
  92:c:\users\vincius\documents\daisytoolchain-0.3.1\windows\arm-none-eabi\include\c++\10.2.1\cmath ****   { return __builtin_acosl(__x); }
  93:c:\users\vincius\documents\daisytoolchain-0.3.1\windows\arm-none-eabi\include\c++\10.2.1\cmath **** #endif
  94:c:\users\vincius\documents\daisytoolchain-0.3.1\windows\arm-none-eabi\include\c++\10.2.1\cmath **** 
  95:c:\users\vincius\documents\daisytoolchain-0.3.1\windows\arm-none-eabi\include\c++\10.2.1\cmath ****   template<typename _Tp>
  96:c:\users\vincius\documents\daisytoolchain-0.3.1\windows\arm-none-eabi\include\c++\10.2.1\cmath ****     inline _GLIBCXX_CONSTEXPR
  97:c:\users\vincius\documents\daisytoolchain-0.3.1\windows\arm-none-eabi\include\c++\10.2.1\cmath ****     typename __gnu_cxx::__enable_if<__is_integer<_Tp>::__value, 
  98:c:\users\vincius\documents\daisytoolchain-0.3.1\windows\arm-none-eabi\include\c++\10.2.1\cmath ****                                     double>::__type
  99:c:\users\vincius\documents\daisytoolchain-0.3.1\windows\arm-none-eabi\include\c++\10.2.1\cmath ****     acos(_Tp __x)
 100:c:\users\vincius\documents\daisytoolchain-0.3.1\windows\arm-none-eabi\include\c++\10.2.1\cmath ****     { return __builtin_acos(__x); }
 101:c:\users\vincius\documents\daisytoolchain-0.3.1\windows\arm-none-eabi\include\c++\10.2.1\cmath **** 
 102:c:\users\vincius\documents\daisytoolchain-0.3.1\windows\arm-none-eabi\include\c++\10.2.1\cmath ****   using ::asin;
 103:c:\users\vincius\documents\daisytoolchain-0.3.1\windows\arm-none-eabi\include\c++\10.2.1\cmath **** 
 104:c:\users\vincius\documents\daisytoolchain-0.3.1\windows\arm-none-eabi\include\c++\10.2.1\cmath **** #ifndef __CORRECT_ISO_CPP_MATH_H_PROTO
 105:c:\users\vincius\documents\daisytoolchain-0.3.1\windows\arm-none-eabi\include\c++\10.2.1\cmath ****   inline _GLIBCXX_CONSTEXPR float
 106:c:\users\vincius\documents\daisytoolchain-0.3.1\windows\arm-none-eabi\include\c++\10.2.1\cmath ****   asin(float __x)
 107:c:\users\vincius\documents\daisytoolchain-0.3.1\windows\arm-none-eabi\include\c++\10.2.1\cmath ****   { return __builtin_asinf(__x); }
 108:c:\users\vincius\documents\daisytoolchain-0.3.1\windows\arm-none-eabi\include\c++\10.2.1\cmath **** 
 109:c:\users\vincius\documents\daisytoolchain-0.3.1\windows\arm-none-eabi\include\c++\10.2.1\cmath ****   inline _GLIBCXX_CONSTEXPR long double
 110:c:\users\vincius\documents\daisytoolchain-0.3.1\windows\arm-none-eabi\include\c++\10.2.1\cmath ****   asin(long double __x)
 111:c:\users\vincius\documents\daisytoolchain-0.3.1\windows\arm-none-eabi\include\c++\10.2.1\cmath ****   { return __builtin_asinl(__x); }
 112:c:\users\vincius\documents\daisytoolchain-0.3.1\windows\arm-none-eabi\include\c++\10.2.1\cmath **** #endif
 113:c:\users\vincius\documents\daisytoolchain-0.3.1\windows\arm-none-eabi\include\c++\10.2.1\cmath **** 
 114:c:\users\vincius\documents\daisytoolchain-0.3.1\windows\arm-none-eabi\include\c++\10.2.1\cmath ****   template<typename _Tp>
 115:c:\users\vincius\documents\daisytoolchain-0.3.1\windows\arm-none-eabi\include\c++\10.2.1\cmath ****     inline _GLIBCXX_CONSTEXPR
 116:c:\users\vincius\documents\daisytoolchain-0.3.1\windows\arm-none-eabi\include\c++\10.2.1\cmath ****     typename __gnu_cxx::__enable_if<__is_integer<_Tp>::__value,
 117:c:\users\vincius\documents\daisytoolchain-0.3.1\windows\arm-none-eabi\include\c++\10.2.1\cmath ****                                     double>::__type
 118:c:\users\vincius\documents\daisytoolchain-0.3.1\windows\arm-none-eabi\include\c++\10.2.1\cmath ****     asin(_Tp __x)
 119:c:\users\vincius\documents\daisytoolchain-0.3.1\windows\arm-none-eabi\include\c++\10.2.1\cmath ****     { return __builtin_asin(__x); }
 120:c:\users\vincius\documents\daisytoolchain-0.3.1\windows\arm-none-eabi\include\c++\10.2.1\cmath **** 
ARM GAS  C:\Users\VINCIU~1\AppData\Local\Temp\ccI83ocg.s 			page 52


 121:c:\users\vincius\documents\daisytoolchain-0.3.1\windows\arm-none-eabi\include\c++\10.2.1\cmath ****   using ::atan;
 122:c:\users\vincius\documents\daisytoolchain-0.3.1\windows\arm-none-eabi\include\c++\10.2.1\cmath **** 
 123:c:\users\vincius\documents\daisytoolchain-0.3.1\windows\arm-none-eabi\include\c++\10.2.1\cmath **** #ifndef __CORRECT_ISO_CPP_MATH_H_PROTO
 124:c:\users\vincius\documents\daisytoolchain-0.3.1\windows\arm-none-eabi\include\c++\10.2.1\cmath ****   inline _GLIBCXX_CONSTEXPR float
 125:c:\users\vincius\documents\daisytoolchain-0.3.1\windows\arm-none-eabi\include\c++\10.2.1\cmath ****   atan(float __x)
 126:c:\users\vincius\documents\daisytoolchain-0.3.1\windows\arm-none-eabi\include\c++\10.2.1\cmath ****   { return __builtin_atanf(__x); }
 127:c:\users\vincius\documents\daisytoolchain-0.3.1\windows\arm-none-eabi\include\c++\10.2.1\cmath **** 
 128:c:\users\vincius\documents\daisytoolchain-0.3.1\windows\arm-none-eabi\include\c++\10.2.1\cmath ****   inline _GLIBCXX_CONSTEXPR long double
 129:c:\users\vincius\documents\daisytoolchain-0.3.1\windows\arm-none-eabi\include\c++\10.2.1\cmath ****   atan(long double __x)
 130:c:\users\vincius\documents\daisytoolchain-0.3.1\windows\arm-none-eabi\include\c++\10.2.1\cmath ****   { return __builtin_atanl(__x); }
 131:c:\users\vincius\documents\daisytoolchain-0.3.1\windows\arm-none-eabi\include\c++\10.2.1\cmath **** #endif
 132:c:\users\vincius\documents\daisytoolchain-0.3.1\windows\arm-none-eabi\include\c++\10.2.1\cmath **** 
 133:c:\users\vincius\documents\daisytoolchain-0.3.1\windows\arm-none-eabi\include\c++\10.2.1\cmath ****   template<typename _Tp>
 134:c:\users\vincius\documents\daisytoolchain-0.3.1\windows\arm-none-eabi\include\c++\10.2.1\cmath ****     inline _GLIBCXX_CONSTEXPR
 135:c:\users\vincius\documents\daisytoolchain-0.3.1\windows\arm-none-eabi\include\c++\10.2.1\cmath ****     typename __gnu_cxx::__enable_if<__is_integer<_Tp>::__value,
 136:c:\users\vincius\documents\daisytoolchain-0.3.1\windows\arm-none-eabi\include\c++\10.2.1\cmath ****                                     double>::__type
 137:c:\users\vincius\documents\daisytoolchain-0.3.1\windows\arm-none-eabi\include\c++\10.2.1\cmath ****     atan(_Tp __x)
 138:c:\users\vincius\documents\daisytoolchain-0.3.1\windows\arm-none-eabi\include\c++\10.2.1\cmath ****     { return __builtin_atan(__x); }
 139:c:\users\vincius\documents\daisytoolchain-0.3.1\windows\arm-none-eabi\include\c++\10.2.1\cmath **** 
 140:c:\users\vincius\documents\daisytoolchain-0.3.1\windows\arm-none-eabi\include\c++\10.2.1\cmath ****   using ::atan2;
 141:c:\users\vincius\documents\daisytoolchain-0.3.1\windows\arm-none-eabi\include\c++\10.2.1\cmath **** 
 142:c:\users\vincius\documents\daisytoolchain-0.3.1\windows\arm-none-eabi\include\c++\10.2.1\cmath **** #ifndef __CORRECT_ISO_CPP_MATH_H_PROTO
 143:c:\users\vincius\documents\daisytoolchain-0.3.1\windows\arm-none-eabi\include\c++\10.2.1\cmath ****   inline _GLIBCXX_CONSTEXPR float
 144:c:\users\vincius\documents\daisytoolchain-0.3.1\windows\arm-none-eabi\include\c++\10.2.1\cmath ****   atan2(float __y, float __x)
 145:c:\users\vincius\documents\daisytoolchain-0.3.1\windows\arm-none-eabi\include\c++\10.2.1\cmath ****   { return __builtin_atan2f(__y, __x); }
 146:c:\users\vincius\documents\daisytoolchain-0.3.1\windows\arm-none-eabi\include\c++\10.2.1\cmath **** 
 147:c:\users\vincius\documents\daisytoolchain-0.3.1\windows\arm-none-eabi\include\c++\10.2.1\cmath ****   inline _GLIBCXX_CONSTEXPR long double
 148:c:\users\vincius\documents\daisytoolchain-0.3.1\windows\arm-none-eabi\include\c++\10.2.1\cmath ****   atan2(long double __y, long double __x)
 149:c:\users\vincius\documents\daisytoolchain-0.3.1\windows\arm-none-eabi\include\c++\10.2.1\cmath ****   { return __builtin_atan2l(__y, __x); }
 150:c:\users\vincius\documents\daisytoolchain-0.3.1\windows\arm-none-eabi\include\c++\10.2.1\cmath **** #endif
 151:c:\users\vincius\documents\daisytoolchain-0.3.1\windows\arm-none-eabi\include\c++\10.2.1\cmath **** 
 152:c:\users\vincius\documents\daisytoolchain-0.3.1\windows\arm-none-eabi\include\c++\10.2.1\cmath ****   template<typename _Tp, typename _Up>
 153:c:\users\vincius\documents\daisytoolchain-0.3.1\windows\arm-none-eabi\include\c++\10.2.1\cmath ****     inline _GLIBCXX_CONSTEXPR
 154:c:\users\vincius\documents\daisytoolchain-0.3.1\windows\arm-none-eabi\include\c++\10.2.1\cmath ****     typename __gnu_cxx::__promote_2<_Tp, _Up>::__type
 155:c:\users\vincius\documents\daisytoolchain-0.3.1\windows\arm-none-eabi\include\c++\10.2.1\cmath ****     atan2(_Tp __y, _Up __x)
 156:c:\users\vincius\documents\daisytoolchain-0.3.1\windows\arm-none-eabi\include\c++\10.2.1\cmath ****     {
 157:c:\users\vincius\documents\daisytoolchain-0.3.1\windows\arm-none-eabi\include\c++\10.2.1\cmath ****       typedef typename __gnu_cxx::__promote_2<_Tp, _Up>::__type __type;
 158:c:\users\vincius\documents\daisytoolchain-0.3.1\windows\arm-none-eabi\include\c++\10.2.1\cmath ****       return atan2(__type(__y), __type(__x));
 159:c:\users\vincius\documents\daisytoolchain-0.3.1\windows\arm-none-eabi\include\c++\10.2.1\cmath ****     }
 160:c:\users\vincius\documents\daisytoolchain-0.3.1\windows\arm-none-eabi\include\c++\10.2.1\cmath **** 
 161:c:\users\vincius\documents\daisytoolchain-0.3.1\windows\arm-none-eabi\include\c++\10.2.1\cmath ****   using ::ceil;
 162:c:\users\vincius\documents\daisytoolchain-0.3.1\windows\arm-none-eabi\include\c++\10.2.1\cmath **** 
 163:c:\users\vincius\documents\daisytoolchain-0.3.1\windows\arm-none-eabi\include\c++\10.2.1\cmath **** #ifndef __CORRECT_ISO_CPP_MATH_H_PROTO
 164:c:\users\vincius\documents\daisytoolchain-0.3.1\windows\arm-none-eabi\include\c++\10.2.1\cmath ****   inline _GLIBCXX_CONSTEXPR float
 165:c:\users\vincius\documents\daisytoolchain-0.3.1\windows\arm-none-eabi\include\c++\10.2.1\cmath ****   ceil(float __x)
 166:c:\users\vincius\documents\daisytoolchain-0.3.1\windows\arm-none-eabi\include\c++\10.2.1\cmath ****   { return __builtin_ceilf(__x); }
 167:c:\users\vincius\documents\daisytoolchain-0.3.1\windows\arm-none-eabi\include\c++\10.2.1\cmath **** 
 168:c:\users\vincius\documents\daisytoolchain-0.3.1\windows\arm-none-eabi\include\c++\10.2.1\cmath ****   inline _GLIBCXX_CONSTEXPR long double
 169:c:\users\vincius\documents\daisytoolchain-0.3.1\windows\arm-none-eabi\include\c++\10.2.1\cmath ****   ceil(long double __x)
 170:c:\users\vincius\documents\daisytoolchain-0.3.1\windows\arm-none-eabi\include\c++\10.2.1\cmath ****   { return __builtin_ceill(__x); }
 171:c:\users\vincius\documents\daisytoolchain-0.3.1\windows\arm-none-eabi\include\c++\10.2.1\cmath **** #endif
 172:c:\users\vincius\documents\daisytoolchain-0.3.1\windows\arm-none-eabi\include\c++\10.2.1\cmath **** 
 173:c:\users\vincius\documents\daisytoolchain-0.3.1\windows\arm-none-eabi\include\c++\10.2.1\cmath ****   template<typename _Tp>
 174:c:\users\vincius\documents\daisytoolchain-0.3.1\windows\arm-none-eabi\include\c++\10.2.1\cmath ****     inline _GLIBCXX_CONSTEXPR
 175:c:\users\vincius\documents\daisytoolchain-0.3.1\windows\arm-none-eabi\include\c++\10.2.1\cmath ****     typename __gnu_cxx::__enable_if<__is_integer<_Tp>::__value, 
 176:c:\users\vincius\documents\daisytoolchain-0.3.1\windows\arm-none-eabi\include\c++\10.2.1\cmath ****                                     double>::__type
 177:c:\users\vincius\documents\daisytoolchain-0.3.1\windows\arm-none-eabi\include\c++\10.2.1\cmath ****     ceil(_Tp __x)
ARM GAS  C:\Users\VINCIU~1\AppData\Local\Temp\ccI83ocg.s 			page 53


 178:c:\users\vincius\documents\daisytoolchain-0.3.1\windows\arm-none-eabi\include\c++\10.2.1\cmath ****     { return __builtin_ceil(__x); }
 179:c:\users\vincius\documents\daisytoolchain-0.3.1\windows\arm-none-eabi\include\c++\10.2.1\cmath **** 
 180:c:\users\vincius\documents\daisytoolchain-0.3.1\windows\arm-none-eabi\include\c++\10.2.1\cmath ****   using ::cos;
 181:c:\users\vincius\documents\daisytoolchain-0.3.1\windows\arm-none-eabi\include\c++\10.2.1\cmath **** 
 182:c:\users\vincius\documents\daisytoolchain-0.3.1\windows\arm-none-eabi\include\c++\10.2.1\cmath **** #ifndef __CORRECT_ISO_CPP_MATH_H_PROTO
 183:c:\users\vincius\documents\daisytoolchain-0.3.1\windows\arm-none-eabi\include\c++\10.2.1\cmath ****   inline _GLIBCXX_CONSTEXPR float
 184:c:\users\vincius\documents\daisytoolchain-0.3.1\windows\arm-none-eabi\include\c++\10.2.1\cmath ****   cos(float __x)
 185:c:\users\vincius\documents\daisytoolchain-0.3.1\windows\arm-none-eabi\include\c++\10.2.1\cmath ****   { return __builtin_cosf(__x); }
 1524              		.loc 11 185 26 view .LVU323
 1525 0050 B0EE680A 		vmov.f32	s0, s17
 1526 0054 FFF7FEFF 		bl	cosf
 1527              	.LVL113:
 1528              		.loc 11 185 26 view .LVU324
 1529              	.LBE371:
 1530              	.LBE370:
 275:../../libdaisy/src/hid/disp/display.h ****         start_y = -sin(start_angle_rad) * radius;
 1531              		.loc 8 275 17 view .LVU325
 1532 0058 07EE907A 		vmov	s15, r7	@ int
 273:../../libdaisy/src/hid/disp/display.h **** 
 1533              		.loc 8 273 25 view .LVU326
 1534 005c B7EECAAB 		vcvt.f32.f64	s20, d10
 1535              	.LVL114:
 1536              	.LBB374:
 1537              	.LBI370:
 184:c:\users\vincius\documents\daisytoolchain-0.3.1\windows\arm-none-eabi\include\c++\10.2.1\cmath ****   { return __builtin_cosf(__x); }
 1538              		.loc 11 184 3 is_stmt 1 view .LVU327
 1539              	.LBB372:
 1540              		.loc 11 185 5 view .LVU328
 1541              		.loc 11 185 5 is_stmt 0 view .LVU329
 1542              	.LBE372:
 1543              	.LBE374:
 275:../../libdaisy/src/hid/disp/display.h ****         start_y = -sin(start_angle_rad) * radius;
 1544              		.loc 8 275 17 view .LVU330
 1545 0060 F8EE679A 		vcvt.f32.u32	s19, s15
 1546              	.LBB375:
 1547              	.LBB373:
 1548              		.loc 11 185 26 view .LVU331
 1549 0064 B0EE408A 		vmov.f32	s16, s0
 1550              	.LBE373:
 1551              	.LBE375:
 1552              	.LBB376:
 1553              	.LBB377:
 186:c:\users\vincius\documents\daisytoolchain-0.3.1\windows\arm-none-eabi\include\c++\10.2.1\cmath **** 
 187:c:\users\vincius\documents\daisytoolchain-0.3.1\windows\arm-none-eabi\include\c++\10.2.1\cmath ****   inline _GLIBCXX_CONSTEXPR long double
 188:c:\users\vincius\documents\daisytoolchain-0.3.1\windows\arm-none-eabi\include\c++\10.2.1\cmath ****   cos(long double __x)
 189:c:\users\vincius\documents\daisytoolchain-0.3.1\windows\arm-none-eabi\include\c++\10.2.1\cmath ****   { return __builtin_cosl(__x); }
 190:c:\users\vincius\documents\daisytoolchain-0.3.1\windows\arm-none-eabi\include\c++\10.2.1\cmath **** #endif
 191:c:\users\vincius\documents\daisytoolchain-0.3.1\windows\arm-none-eabi\include\c++\10.2.1\cmath **** 
 192:c:\users\vincius\documents\daisytoolchain-0.3.1\windows\arm-none-eabi\include\c++\10.2.1\cmath ****   template<typename _Tp>
 193:c:\users\vincius\documents\daisytoolchain-0.3.1\windows\arm-none-eabi\include\c++\10.2.1\cmath ****     inline _GLIBCXX_CONSTEXPR
 194:c:\users\vincius\documents\daisytoolchain-0.3.1\windows\arm-none-eabi\include\c++\10.2.1\cmath ****     typename __gnu_cxx::__enable_if<__is_integer<_Tp>::__value,
 195:c:\users\vincius\documents\daisytoolchain-0.3.1\windows\arm-none-eabi\include\c++\10.2.1\cmath ****                                     double>::__type
 196:c:\users\vincius\documents\daisytoolchain-0.3.1\windows\arm-none-eabi\include\c++\10.2.1\cmath ****     cos(_Tp __x)
 197:c:\users\vincius\documents\daisytoolchain-0.3.1\windows\arm-none-eabi\include\c++\10.2.1\cmath ****     { return __builtin_cos(__x); }
 198:c:\users\vincius\documents\daisytoolchain-0.3.1\windows\arm-none-eabi\include\c++\10.2.1\cmath **** 
 199:c:\users\vincius\documents\daisytoolchain-0.3.1\windows\arm-none-eabi\include\c++\10.2.1\cmath ****   using ::cosh;
 200:c:\users\vincius\documents\daisytoolchain-0.3.1\windows\arm-none-eabi\include\c++\10.2.1\cmath **** 
ARM GAS  C:\Users\VINCIU~1\AppData\Local\Temp\ccI83ocg.s 			page 54


 201:c:\users\vincius\documents\daisytoolchain-0.3.1\windows\arm-none-eabi\include\c++\10.2.1\cmath **** #ifndef __CORRECT_ISO_CPP_MATH_H_PROTO
 202:c:\users\vincius\documents\daisytoolchain-0.3.1\windows\arm-none-eabi\include\c++\10.2.1\cmath ****   inline _GLIBCXX_CONSTEXPR float
 203:c:\users\vincius\documents\daisytoolchain-0.3.1\windows\arm-none-eabi\include\c++\10.2.1\cmath ****   cosh(float __x)
 204:c:\users\vincius\documents\daisytoolchain-0.3.1\windows\arm-none-eabi\include\c++\10.2.1\cmath ****   { return __builtin_coshf(__x); }
 205:c:\users\vincius\documents\daisytoolchain-0.3.1\windows\arm-none-eabi\include\c++\10.2.1\cmath **** 
 206:c:\users\vincius\documents\daisytoolchain-0.3.1\windows\arm-none-eabi\include\c++\10.2.1\cmath ****   inline _GLIBCXX_CONSTEXPR long double
 207:c:\users\vincius\documents\daisytoolchain-0.3.1\windows\arm-none-eabi\include\c++\10.2.1\cmath ****   cosh(long double __x)
 208:c:\users\vincius\documents\daisytoolchain-0.3.1\windows\arm-none-eabi\include\c++\10.2.1\cmath ****   { return __builtin_coshl(__x); }
 209:c:\users\vincius\documents\daisytoolchain-0.3.1\windows\arm-none-eabi\include\c++\10.2.1\cmath **** #endif
 210:c:\users\vincius\documents\daisytoolchain-0.3.1\windows\arm-none-eabi\include\c++\10.2.1\cmath **** 
 211:c:\users\vincius\documents\daisytoolchain-0.3.1\windows\arm-none-eabi\include\c++\10.2.1\cmath ****   template<typename _Tp>
 212:c:\users\vincius\documents\daisytoolchain-0.3.1\windows\arm-none-eabi\include\c++\10.2.1\cmath ****     inline _GLIBCXX_CONSTEXPR
 213:c:\users\vincius\documents\daisytoolchain-0.3.1\windows\arm-none-eabi\include\c++\10.2.1\cmath ****     typename __gnu_cxx::__enable_if<__is_integer<_Tp>::__value,
 214:c:\users\vincius\documents\daisytoolchain-0.3.1\windows\arm-none-eabi\include\c++\10.2.1\cmath ****                                     double>::__type
 215:c:\users\vincius\documents\daisytoolchain-0.3.1\windows\arm-none-eabi\include\c++\10.2.1\cmath ****     cosh(_Tp __x)
 216:c:\users\vincius\documents\daisytoolchain-0.3.1\windows\arm-none-eabi\include\c++\10.2.1\cmath ****     { return __builtin_cosh(__x); }
 217:c:\users\vincius\documents\daisytoolchain-0.3.1\windows\arm-none-eabi\include\c++\10.2.1\cmath **** 
 218:c:\users\vincius\documents\daisytoolchain-0.3.1\windows\arm-none-eabi\include\c++\10.2.1\cmath ****   using ::exp;
 219:c:\users\vincius\documents\daisytoolchain-0.3.1\windows\arm-none-eabi\include\c++\10.2.1\cmath **** 
 220:c:\users\vincius\documents\daisytoolchain-0.3.1\windows\arm-none-eabi\include\c++\10.2.1\cmath **** #ifndef __CORRECT_ISO_CPP_MATH_H_PROTO
 221:c:\users\vincius\documents\daisytoolchain-0.3.1\windows\arm-none-eabi\include\c++\10.2.1\cmath ****   inline _GLIBCXX_CONSTEXPR float
 222:c:\users\vincius\documents\daisytoolchain-0.3.1\windows\arm-none-eabi\include\c++\10.2.1\cmath ****   exp(float __x)
 223:c:\users\vincius\documents\daisytoolchain-0.3.1\windows\arm-none-eabi\include\c++\10.2.1\cmath ****   { return __builtin_expf(__x); }
 224:c:\users\vincius\documents\daisytoolchain-0.3.1\windows\arm-none-eabi\include\c++\10.2.1\cmath **** 
 225:c:\users\vincius\documents\daisytoolchain-0.3.1\windows\arm-none-eabi\include\c++\10.2.1\cmath ****   inline _GLIBCXX_CONSTEXPR long double
 226:c:\users\vincius\documents\daisytoolchain-0.3.1\windows\arm-none-eabi\include\c++\10.2.1\cmath ****   exp(long double __x)
 227:c:\users\vincius\documents\daisytoolchain-0.3.1\windows\arm-none-eabi\include\c++\10.2.1\cmath ****   { return __builtin_expl(__x); }
 228:c:\users\vincius\documents\daisytoolchain-0.3.1\windows\arm-none-eabi\include\c++\10.2.1\cmath **** #endif
 229:c:\users\vincius\documents\daisytoolchain-0.3.1\windows\arm-none-eabi\include\c++\10.2.1\cmath **** 
 230:c:\users\vincius\documents\daisytoolchain-0.3.1\windows\arm-none-eabi\include\c++\10.2.1\cmath ****   template<typename _Tp>
 231:c:\users\vincius\documents\daisytoolchain-0.3.1\windows\arm-none-eabi\include\c++\10.2.1\cmath ****     inline _GLIBCXX_CONSTEXPR
 232:c:\users\vincius\documents\daisytoolchain-0.3.1\windows\arm-none-eabi\include\c++\10.2.1\cmath ****     typename __gnu_cxx::__enable_if<__is_integer<_Tp>::__value,
 233:c:\users\vincius\documents\daisytoolchain-0.3.1\windows\arm-none-eabi\include\c++\10.2.1\cmath ****                                     double>::__type
 234:c:\users\vincius\documents\daisytoolchain-0.3.1\windows\arm-none-eabi\include\c++\10.2.1\cmath ****     exp(_Tp __x)
 235:c:\users\vincius\documents\daisytoolchain-0.3.1\windows\arm-none-eabi\include\c++\10.2.1\cmath ****     { return __builtin_exp(__x); }
 236:c:\users\vincius\documents\daisytoolchain-0.3.1\windows\arm-none-eabi\include\c++\10.2.1\cmath **** 
 237:c:\users\vincius\documents\daisytoolchain-0.3.1\windows\arm-none-eabi\include\c++\10.2.1\cmath ****   using ::fabs;
 238:c:\users\vincius\documents\daisytoolchain-0.3.1\windows\arm-none-eabi\include\c++\10.2.1\cmath **** 
 239:c:\users\vincius\documents\daisytoolchain-0.3.1\windows\arm-none-eabi\include\c++\10.2.1\cmath **** #ifndef __CORRECT_ISO_CPP_MATH_H_PROTO
 240:c:\users\vincius\documents\daisytoolchain-0.3.1\windows\arm-none-eabi\include\c++\10.2.1\cmath ****   inline _GLIBCXX_CONSTEXPR float
 241:c:\users\vincius\documents\daisytoolchain-0.3.1\windows\arm-none-eabi\include\c++\10.2.1\cmath ****   fabs(float __x)
 242:c:\users\vincius\documents\daisytoolchain-0.3.1\windows\arm-none-eabi\include\c++\10.2.1\cmath ****   { return __builtin_fabsf(__x); }
 243:c:\users\vincius\documents\daisytoolchain-0.3.1\windows\arm-none-eabi\include\c++\10.2.1\cmath **** 
 244:c:\users\vincius\documents\daisytoolchain-0.3.1\windows\arm-none-eabi\include\c++\10.2.1\cmath ****   inline _GLIBCXX_CONSTEXPR long double
 245:c:\users\vincius\documents\daisytoolchain-0.3.1\windows\arm-none-eabi\include\c++\10.2.1\cmath ****   fabs(long double __x)
 246:c:\users\vincius\documents\daisytoolchain-0.3.1\windows\arm-none-eabi\include\c++\10.2.1\cmath ****   { return __builtin_fabsl(__x); }
 247:c:\users\vincius\documents\daisytoolchain-0.3.1\windows\arm-none-eabi\include\c++\10.2.1\cmath **** #endif
 248:c:\users\vincius\documents\daisytoolchain-0.3.1\windows\arm-none-eabi\include\c++\10.2.1\cmath **** 
 249:c:\users\vincius\documents\daisytoolchain-0.3.1\windows\arm-none-eabi\include\c++\10.2.1\cmath ****   template<typename _Tp>
 250:c:\users\vincius\documents\daisytoolchain-0.3.1\windows\arm-none-eabi\include\c++\10.2.1\cmath ****     inline _GLIBCXX_CONSTEXPR
 251:c:\users\vincius\documents\daisytoolchain-0.3.1\windows\arm-none-eabi\include\c++\10.2.1\cmath ****     typename __gnu_cxx::__enable_if<__is_integer<_Tp>::__value,
 252:c:\users\vincius\documents\daisytoolchain-0.3.1\windows\arm-none-eabi\include\c++\10.2.1\cmath ****                                     double>::__type
 253:c:\users\vincius\documents\daisytoolchain-0.3.1\windows\arm-none-eabi\include\c++\10.2.1\cmath ****     fabs(_Tp __x)
 254:c:\users\vincius\documents\daisytoolchain-0.3.1\windows\arm-none-eabi\include\c++\10.2.1\cmath ****     { return __builtin_fabs(__x); }
 255:c:\users\vincius\documents\daisytoolchain-0.3.1\windows\arm-none-eabi\include\c++\10.2.1\cmath **** 
 256:c:\users\vincius\documents\daisytoolchain-0.3.1\windows\arm-none-eabi\include\c++\10.2.1\cmath ****   using ::floor;
 257:c:\users\vincius\documents\daisytoolchain-0.3.1\windows\arm-none-eabi\include\c++\10.2.1\cmath **** 
ARM GAS  C:\Users\VINCIU~1\AppData\Local\Temp\ccI83ocg.s 			page 55


 258:c:\users\vincius\documents\daisytoolchain-0.3.1\windows\arm-none-eabi\include\c++\10.2.1\cmath **** #ifndef __CORRECT_ISO_CPP_MATH_H_PROTO
 259:c:\users\vincius\documents\daisytoolchain-0.3.1\windows\arm-none-eabi\include\c++\10.2.1\cmath ****   inline _GLIBCXX_CONSTEXPR float
 260:c:\users\vincius\documents\daisytoolchain-0.3.1\windows\arm-none-eabi\include\c++\10.2.1\cmath ****   floor(float __x)
 261:c:\users\vincius\documents\daisytoolchain-0.3.1\windows\arm-none-eabi\include\c++\10.2.1\cmath ****   { return __builtin_floorf(__x); }
 262:c:\users\vincius\documents\daisytoolchain-0.3.1\windows\arm-none-eabi\include\c++\10.2.1\cmath **** 
 263:c:\users\vincius\documents\daisytoolchain-0.3.1\windows\arm-none-eabi\include\c++\10.2.1\cmath ****   inline _GLIBCXX_CONSTEXPR long double
 264:c:\users\vincius\documents\daisytoolchain-0.3.1\windows\arm-none-eabi\include\c++\10.2.1\cmath ****   floor(long double __x)
 265:c:\users\vincius\documents\daisytoolchain-0.3.1\windows\arm-none-eabi\include\c++\10.2.1\cmath ****   { return __builtin_floorl(__x); }
 266:c:\users\vincius\documents\daisytoolchain-0.3.1\windows\arm-none-eabi\include\c++\10.2.1\cmath **** #endif
 267:c:\users\vincius\documents\daisytoolchain-0.3.1\windows\arm-none-eabi\include\c++\10.2.1\cmath **** 
 268:c:\users\vincius\documents\daisytoolchain-0.3.1\windows\arm-none-eabi\include\c++\10.2.1\cmath ****   template<typename _Tp>
 269:c:\users\vincius\documents\daisytoolchain-0.3.1\windows\arm-none-eabi\include\c++\10.2.1\cmath ****     inline _GLIBCXX_CONSTEXPR
 270:c:\users\vincius\documents\daisytoolchain-0.3.1\windows\arm-none-eabi\include\c++\10.2.1\cmath ****     typename __gnu_cxx::__enable_if<__is_integer<_Tp>::__value,
 271:c:\users\vincius\documents\daisytoolchain-0.3.1\windows\arm-none-eabi\include\c++\10.2.1\cmath ****                                     double>::__type
 272:c:\users\vincius\documents\daisytoolchain-0.3.1\windows\arm-none-eabi\include\c++\10.2.1\cmath ****     floor(_Tp __x)
 273:c:\users\vincius\documents\daisytoolchain-0.3.1\windows\arm-none-eabi\include\c++\10.2.1\cmath ****     { return __builtin_floor(__x); }
 274:c:\users\vincius\documents\daisytoolchain-0.3.1\windows\arm-none-eabi\include\c++\10.2.1\cmath **** 
 275:c:\users\vincius\documents\daisytoolchain-0.3.1\windows\arm-none-eabi\include\c++\10.2.1\cmath ****   using ::fmod;
 276:c:\users\vincius\documents\daisytoolchain-0.3.1\windows\arm-none-eabi\include\c++\10.2.1\cmath **** 
 277:c:\users\vincius\documents\daisytoolchain-0.3.1\windows\arm-none-eabi\include\c++\10.2.1\cmath **** #ifndef __CORRECT_ISO_CPP_MATH_H_PROTO
 278:c:\users\vincius\documents\daisytoolchain-0.3.1\windows\arm-none-eabi\include\c++\10.2.1\cmath ****   inline _GLIBCXX_CONSTEXPR float
 279:c:\users\vincius\documents\daisytoolchain-0.3.1\windows\arm-none-eabi\include\c++\10.2.1\cmath ****   fmod(float __x, float __y)
 280:c:\users\vincius\documents\daisytoolchain-0.3.1\windows\arm-none-eabi\include\c++\10.2.1\cmath ****   { return __builtin_fmodf(__x, __y); }
 281:c:\users\vincius\documents\daisytoolchain-0.3.1\windows\arm-none-eabi\include\c++\10.2.1\cmath **** 
 282:c:\users\vincius\documents\daisytoolchain-0.3.1\windows\arm-none-eabi\include\c++\10.2.1\cmath ****   inline _GLIBCXX_CONSTEXPR long double
 283:c:\users\vincius\documents\daisytoolchain-0.3.1\windows\arm-none-eabi\include\c++\10.2.1\cmath ****   fmod(long double __x, long double __y)
 284:c:\users\vincius\documents\daisytoolchain-0.3.1\windows\arm-none-eabi\include\c++\10.2.1\cmath ****   { return __builtin_fmodl(__x, __y); }
 285:c:\users\vincius\documents\daisytoolchain-0.3.1\windows\arm-none-eabi\include\c++\10.2.1\cmath **** #endif
 286:c:\users\vincius\documents\daisytoolchain-0.3.1\windows\arm-none-eabi\include\c++\10.2.1\cmath **** 
 287:c:\users\vincius\documents\daisytoolchain-0.3.1\windows\arm-none-eabi\include\c++\10.2.1\cmath ****   template<typename _Tp, typename _Up>
 288:c:\users\vincius\documents\daisytoolchain-0.3.1\windows\arm-none-eabi\include\c++\10.2.1\cmath ****     inline _GLIBCXX_CONSTEXPR
 289:c:\users\vincius\documents\daisytoolchain-0.3.1\windows\arm-none-eabi\include\c++\10.2.1\cmath ****     typename __gnu_cxx::__promote_2<_Tp, _Up>::__type
 290:c:\users\vincius\documents\daisytoolchain-0.3.1\windows\arm-none-eabi\include\c++\10.2.1\cmath ****     fmod(_Tp __x, _Up __y)
 291:c:\users\vincius\documents\daisytoolchain-0.3.1\windows\arm-none-eabi\include\c++\10.2.1\cmath ****     {
 292:c:\users\vincius\documents\daisytoolchain-0.3.1\windows\arm-none-eabi\include\c++\10.2.1\cmath ****       typedef typename __gnu_cxx::__promote_2<_Tp, _Up>::__type __type;
 293:c:\users\vincius\documents\daisytoolchain-0.3.1\windows\arm-none-eabi\include\c++\10.2.1\cmath ****       return fmod(__type(__x), __type(__y));
 294:c:\users\vincius\documents\daisytoolchain-0.3.1\windows\arm-none-eabi\include\c++\10.2.1\cmath ****     }
 295:c:\users\vincius\documents\daisytoolchain-0.3.1\windows\arm-none-eabi\include\c++\10.2.1\cmath **** 
 296:c:\users\vincius\documents\daisytoolchain-0.3.1\windows\arm-none-eabi\include\c++\10.2.1\cmath ****   using ::frexp;
 297:c:\users\vincius\documents\daisytoolchain-0.3.1\windows\arm-none-eabi\include\c++\10.2.1\cmath **** 
 298:c:\users\vincius\documents\daisytoolchain-0.3.1\windows\arm-none-eabi\include\c++\10.2.1\cmath **** #ifndef __CORRECT_ISO_CPP_MATH_H_PROTO
 299:c:\users\vincius\documents\daisytoolchain-0.3.1\windows\arm-none-eabi\include\c++\10.2.1\cmath ****   inline float
 300:c:\users\vincius\documents\daisytoolchain-0.3.1\windows\arm-none-eabi\include\c++\10.2.1\cmath ****   frexp(float __x, int* __exp)
 301:c:\users\vincius\documents\daisytoolchain-0.3.1\windows\arm-none-eabi\include\c++\10.2.1\cmath ****   { return __builtin_frexpf(__x, __exp); }
 302:c:\users\vincius\documents\daisytoolchain-0.3.1\windows\arm-none-eabi\include\c++\10.2.1\cmath **** 
 303:c:\users\vincius\documents\daisytoolchain-0.3.1\windows\arm-none-eabi\include\c++\10.2.1\cmath ****   inline long double
 304:c:\users\vincius\documents\daisytoolchain-0.3.1\windows\arm-none-eabi\include\c++\10.2.1\cmath ****   frexp(long double __x, int* __exp)
 305:c:\users\vincius\documents\daisytoolchain-0.3.1\windows\arm-none-eabi\include\c++\10.2.1\cmath ****   { return __builtin_frexpl(__x, __exp); }
 306:c:\users\vincius\documents\daisytoolchain-0.3.1\windows\arm-none-eabi\include\c++\10.2.1\cmath **** #endif
 307:c:\users\vincius\documents\daisytoolchain-0.3.1\windows\arm-none-eabi\include\c++\10.2.1\cmath **** 
 308:c:\users\vincius\documents\daisytoolchain-0.3.1\windows\arm-none-eabi\include\c++\10.2.1\cmath ****   template<typename _Tp>
 309:c:\users\vincius\documents\daisytoolchain-0.3.1\windows\arm-none-eabi\include\c++\10.2.1\cmath ****     inline _GLIBCXX_CONSTEXPR
 310:c:\users\vincius\documents\daisytoolchain-0.3.1\windows\arm-none-eabi\include\c++\10.2.1\cmath ****     typename __gnu_cxx::__enable_if<__is_integer<_Tp>::__value, 
 311:c:\users\vincius\documents\daisytoolchain-0.3.1\windows\arm-none-eabi\include\c++\10.2.1\cmath ****                                     double>::__type
 312:c:\users\vincius\documents\daisytoolchain-0.3.1\windows\arm-none-eabi\include\c++\10.2.1\cmath ****     frexp(_Tp __x, int* __exp)
 313:c:\users\vincius\documents\daisytoolchain-0.3.1\windows\arm-none-eabi\include\c++\10.2.1\cmath ****     { return __builtin_frexp(__x, __exp); }
 314:c:\users\vincius\documents\daisytoolchain-0.3.1\windows\arm-none-eabi\include\c++\10.2.1\cmath **** 
ARM GAS  C:\Users\VINCIU~1\AppData\Local\Temp\ccI83ocg.s 			page 56


 315:c:\users\vincius\documents\daisytoolchain-0.3.1\windows\arm-none-eabi\include\c++\10.2.1\cmath ****   using ::ldexp;
 316:c:\users\vincius\documents\daisytoolchain-0.3.1\windows\arm-none-eabi\include\c++\10.2.1\cmath **** 
 317:c:\users\vincius\documents\daisytoolchain-0.3.1\windows\arm-none-eabi\include\c++\10.2.1\cmath **** #ifndef __CORRECT_ISO_CPP_MATH_H_PROTO
 318:c:\users\vincius\documents\daisytoolchain-0.3.1\windows\arm-none-eabi\include\c++\10.2.1\cmath ****   inline _GLIBCXX_CONSTEXPR float
 319:c:\users\vincius\documents\daisytoolchain-0.3.1\windows\arm-none-eabi\include\c++\10.2.1\cmath ****   ldexp(float __x, int __exp)
 320:c:\users\vincius\documents\daisytoolchain-0.3.1\windows\arm-none-eabi\include\c++\10.2.1\cmath ****   { return __builtin_ldexpf(__x, __exp); }
 321:c:\users\vincius\documents\daisytoolchain-0.3.1\windows\arm-none-eabi\include\c++\10.2.1\cmath **** 
 322:c:\users\vincius\documents\daisytoolchain-0.3.1\windows\arm-none-eabi\include\c++\10.2.1\cmath ****   inline _GLIBCXX_CONSTEXPR long double
 323:c:\users\vincius\documents\daisytoolchain-0.3.1\windows\arm-none-eabi\include\c++\10.2.1\cmath ****   ldexp(long double __x, int __exp)
 324:c:\users\vincius\documents\daisytoolchain-0.3.1\windows\arm-none-eabi\include\c++\10.2.1\cmath ****   { return __builtin_ldexpl(__x, __exp); }
 325:c:\users\vincius\documents\daisytoolchain-0.3.1\windows\arm-none-eabi\include\c++\10.2.1\cmath **** #endif
 326:c:\users\vincius\documents\daisytoolchain-0.3.1\windows\arm-none-eabi\include\c++\10.2.1\cmath **** 
 327:c:\users\vincius\documents\daisytoolchain-0.3.1\windows\arm-none-eabi\include\c++\10.2.1\cmath ****   template<typename _Tp>
 328:c:\users\vincius\documents\daisytoolchain-0.3.1\windows\arm-none-eabi\include\c++\10.2.1\cmath ****     inline _GLIBCXX_CONSTEXPR
 329:c:\users\vincius\documents\daisytoolchain-0.3.1\windows\arm-none-eabi\include\c++\10.2.1\cmath ****     typename __gnu_cxx::__enable_if<__is_integer<_Tp>::__value, 
 330:c:\users\vincius\documents\daisytoolchain-0.3.1\windows\arm-none-eabi\include\c++\10.2.1\cmath ****                                     double>::__type
 331:c:\users\vincius\documents\daisytoolchain-0.3.1\windows\arm-none-eabi\include\c++\10.2.1\cmath ****     ldexp(_Tp __x, int __exp)
 332:c:\users\vincius\documents\daisytoolchain-0.3.1\windows\arm-none-eabi\include\c++\10.2.1\cmath ****     { return __builtin_ldexp(__x, __exp); }
 333:c:\users\vincius\documents\daisytoolchain-0.3.1\windows\arm-none-eabi\include\c++\10.2.1\cmath **** 
 334:c:\users\vincius\documents\daisytoolchain-0.3.1\windows\arm-none-eabi\include\c++\10.2.1\cmath ****   using ::log;
 335:c:\users\vincius\documents\daisytoolchain-0.3.1\windows\arm-none-eabi\include\c++\10.2.1\cmath **** 
 336:c:\users\vincius\documents\daisytoolchain-0.3.1\windows\arm-none-eabi\include\c++\10.2.1\cmath **** #ifndef __CORRECT_ISO_CPP_MATH_H_PROTO
 337:c:\users\vincius\documents\daisytoolchain-0.3.1\windows\arm-none-eabi\include\c++\10.2.1\cmath ****   inline _GLIBCXX_CONSTEXPR float
 338:c:\users\vincius\documents\daisytoolchain-0.3.1\windows\arm-none-eabi\include\c++\10.2.1\cmath ****   log(float __x)
 339:c:\users\vincius\documents\daisytoolchain-0.3.1\windows\arm-none-eabi\include\c++\10.2.1\cmath ****   { return __builtin_logf(__x); }
 340:c:\users\vincius\documents\daisytoolchain-0.3.1\windows\arm-none-eabi\include\c++\10.2.1\cmath **** 
 341:c:\users\vincius\documents\daisytoolchain-0.3.1\windows\arm-none-eabi\include\c++\10.2.1\cmath ****   inline _GLIBCXX_CONSTEXPR long double
 342:c:\users\vincius\documents\daisytoolchain-0.3.1\windows\arm-none-eabi\include\c++\10.2.1\cmath ****   log(long double __x)
 343:c:\users\vincius\documents\daisytoolchain-0.3.1\windows\arm-none-eabi\include\c++\10.2.1\cmath ****   { return __builtin_logl(__x); }
 344:c:\users\vincius\documents\daisytoolchain-0.3.1\windows\arm-none-eabi\include\c++\10.2.1\cmath **** #endif
 345:c:\users\vincius\documents\daisytoolchain-0.3.1\windows\arm-none-eabi\include\c++\10.2.1\cmath **** 
 346:c:\users\vincius\documents\daisytoolchain-0.3.1\windows\arm-none-eabi\include\c++\10.2.1\cmath ****   template<typename _Tp>
 347:c:\users\vincius\documents\daisytoolchain-0.3.1\windows\arm-none-eabi\include\c++\10.2.1\cmath ****     inline _GLIBCXX_CONSTEXPR
 348:c:\users\vincius\documents\daisytoolchain-0.3.1\windows\arm-none-eabi\include\c++\10.2.1\cmath ****     typename __gnu_cxx::__enable_if<__is_integer<_Tp>::__value, 
 349:c:\users\vincius\documents\daisytoolchain-0.3.1\windows\arm-none-eabi\include\c++\10.2.1\cmath ****                                     double>::__type
 350:c:\users\vincius\documents\daisytoolchain-0.3.1\windows\arm-none-eabi\include\c++\10.2.1\cmath ****     log(_Tp __x)
 351:c:\users\vincius\documents\daisytoolchain-0.3.1\windows\arm-none-eabi\include\c++\10.2.1\cmath ****     { return __builtin_log(__x); }
 352:c:\users\vincius\documents\daisytoolchain-0.3.1\windows\arm-none-eabi\include\c++\10.2.1\cmath **** 
 353:c:\users\vincius\documents\daisytoolchain-0.3.1\windows\arm-none-eabi\include\c++\10.2.1\cmath ****   using ::log10;
 354:c:\users\vincius\documents\daisytoolchain-0.3.1\windows\arm-none-eabi\include\c++\10.2.1\cmath **** 
 355:c:\users\vincius\documents\daisytoolchain-0.3.1\windows\arm-none-eabi\include\c++\10.2.1\cmath **** #ifndef __CORRECT_ISO_CPP_MATH_H_PROTO
 356:c:\users\vincius\documents\daisytoolchain-0.3.1\windows\arm-none-eabi\include\c++\10.2.1\cmath ****   inline _GLIBCXX_CONSTEXPR float
 357:c:\users\vincius\documents\daisytoolchain-0.3.1\windows\arm-none-eabi\include\c++\10.2.1\cmath ****   log10(float __x)
 358:c:\users\vincius\documents\daisytoolchain-0.3.1\windows\arm-none-eabi\include\c++\10.2.1\cmath ****   { return __builtin_log10f(__x); }
 359:c:\users\vincius\documents\daisytoolchain-0.3.1\windows\arm-none-eabi\include\c++\10.2.1\cmath **** 
 360:c:\users\vincius\documents\daisytoolchain-0.3.1\windows\arm-none-eabi\include\c++\10.2.1\cmath ****   inline _GLIBCXX_CONSTEXPR long double
 361:c:\users\vincius\documents\daisytoolchain-0.3.1\windows\arm-none-eabi\include\c++\10.2.1\cmath ****   log10(long double __x)
 362:c:\users\vincius\documents\daisytoolchain-0.3.1\windows\arm-none-eabi\include\c++\10.2.1\cmath ****   { return __builtin_log10l(__x); }
 363:c:\users\vincius\documents\daisytoolchain-0.3.1\windows\arm-none-eabi\include\c++\10.2.1\cmath **** #endif
 364:c:\users\vincius\documents\daisytoolchain-0.3.1\windows\arm-none-eabi\include\c++\10.2.1\cmath **** 
 365:c:\users\vincius\documents\daisytoolchain-0.3.1\windows\arm-none-eabi\include\c++\10.2.1\cmath ****   template<typename _Tp>
 366:c:\users\vincius\documents\daisytoolchain-0.3.1\windows\arm-none-eabi\include\c++\10.2.1\cmath ****     inline _GLIBCXX_CONSTEXPR
 367:c:\users\vincius\documents\daisytoolchain-0.3.1\windows\arm-none-eabi\include\c++\10.2.1\cmath ****     typename __gnu_cxx::__enable_if<__is_integer<_Tp>::__value,
 368:c:\users\vincius\documents\daisytoolchain-0.3.1\windows\arm-none-eabi\include\c++\10.2.1\cmath ****                                     double>::__type
 369:c:\users\vincius\documents\daisytoolchain-0.3.1\windows\arm-none-eabi\include\c++\10.2.1\cmath ****     log10(_Tp __x)
 370:c:\users\vincius\documents\daisytoolchain-0.3.1\windows\arm-none-eabi\include\c++\10.2.1\cmath ****     { return __builtin_log10(__x); }
 371:c:\users\vincius\documents\daisytoolchain-0.3.1\windows\arm-none-eabi\include\c++\10.2.1\cmath **** 
ARM GAS  C:\Users\VINCIU~1\AppData\Local\Temp\ccI83ocg.s 			page 57


 372:c:\users\vincius\documents\daisytoolchain-0.3.1\windows\arm-none-eabi\include\c++\10.2.1\cmath ****   using ::modf;
 373:c:\users\vincius\documents\daisytoolchain-0.3.1\windows\arm-none-eabi\include\c++\10.2.1\cmath **** 
 374:c:\users\vincius\documents\daisytoolchain-0.3.1\windows\arm-none-eabi\include\c++\10.2.1\cmath **** #ifndef __CORRECT_ISO_CPP_MATH_H_PROTO
 375:c:\users\vincius\documents\daisytoolchain-0.3.1\windows\arm-none-eabi\include\c++\10.2.1\cmath ****   inline float
 376:c:\users\vincius\documents\daisytoolchain-0.3.1\windows\arm-none-eabi\include\c++\10.2.1\cmath ****   modf(float __x, float* __iptr)
 377:c:\users\vincius\documents\daisytoolchain-0.3.1\windows\arm-none-eabi\include\c++\10.2.1\cmath ****   { return __builtin_modff(__x, __iptr); }
 378:c:\users\vincius\documents\daisytoolchain-0.3.1\windows\arm-none-eabi\include\c++\10.2.1\cmath **** 
 379:c:\users\vincius\documents\daisytoolchain-0.3.1\windows\arm-none-eabi\include\c++\10.2.1\cmath ****   inline long double
 380:c:\users\vincius\documents\daisytoolchain-0.3.1\windows\arm-none-eabi\include\c++\10.2.1\cmath ****   modf(long double __x, long double* __iptr)
 381:c:\users\vincius\documents\daisytoolchain-0.3.1\windows\arm-none-eabi\include\c++\10.2.1\cmath ****   { return __builtin_modfl(__x, __iptr); }
 382:c:\users\vincius\documents\daisytoolchain-0.3.1\windows\arm-none-eabi\include\c++\10.2.1\cmath **** #endif
 383:c:\users\vincius\documents\daisytoolchain-0.3.1\windows\arm-none-eabi\include\c++\10.2.1\cmath **** 
 384:c:\users\vincius\documents\daisytoolchain-0.3.1\windows\arm-none-eabi\include\c++\10.2.1\cmath ****   using ::pow;
 385:c:\users\vincius\documents\daisytoolchain-0.3.1\windows\arm-none-eabi\include\c++\10.2.1\cmath **** 
 386:c:\users\vincius\documents\daisytoolchain-0.3.1\windows\arm-none-eabi\include\c++\10.2.1\cmath **** #ifndef __CORRECT_ISO_CPP_MATH_H_PROTO
 387:c:\users\vincius\documents\daisytoolchain-0.3.1\windows\arm-none-eabi\include\c++\10.2.1\cmath ****   inline _GLIBCXX_CONSTEXPR float
 388:c:\users\vincius\documents\daisytoolchain-0.3.1\windows\arm-none-eabi\include\c++\10.2.1\cmath ****   pow(float __x, float __y)
 389:c:\users\vincius\documents\daisytoolchain-0.3.1\windows\arm-none-eabi\include\c++\10.2.1\cmath ****   { return __builtin_powf(__x, __y); }
 390:c:\users\vincius\documents\daisytoolchain-0.3.1\windows\arm-none-eabi\include\c++\10.2.1\cmath **** 
 391:c:\users\vincius\documents\daisytoolchain-0.3.1\windows\arm-none-eabi\include\c++\10.2.1\cmath ****   inline _GLIBCXX_CONSTEXPR long double
 392:c:\users\vincius\documents\daisytoolchain-0.3.1\windows\arm-none-eabi\include\c++\10.2.1\cmath ****   pow(long double __x, long double __y)
 393:c:\users\vincius\documents\daisytoolchain-0.3.1\windows\arm-none-eabi\include\c++\10.2.1\cmath ****   { return __builtin_powl(__x, __y); }
 394:c:\users\vincius\documents\daisytoolchain-0.3.1\windows\arm-none-eabi\include\c++\10.2.1\cmath **** 
 395:c:\users\vincius\documents\daisytoolchain-0.3.1\windows\arm-none-eabi\include\c++\10.2.1\cmath **** #if __cplusplus < 201103L
 396:c:\users\vincius\documents\daisytoolchain-0.3.1\windows\arm-none-eabi\include\c++\10.2.1\cmath ****   // _GLIBCXX_RESOLVE_LIB_DEFECTS
 397:c:\users\vincius\documents\daisytoolchain-0.3.1\windows\arm-none-eabi\include\c++\10.2.1\cmath ****   // DR 550. What should the return type of pow(float,int) be?
 398:c:\users\vincius\documents\daisytoolchain-0.3.1\windows\arm-none-eabi\include\c++\10.2.1\cmath ****   inline double
 399:c:\users\vincius\documents\daisytoolchain-0.3.1\windows\arm-none-eabi\include\c++\10.2.1\cmath ****   pow(double __x, int __i)
 400:c:\users\vincius\documents\daisytoolchain-0.3.1\windows\arm-none-eabi\include\c++\10.2.1\cmath ****   { return __builtin_powi(__x, __i); }
 401:c:\users\vincius\documents\daisytoolchain-0.3.1\windows\arm-none-eabi\include\c++\10.2.1\cmath **** 
 402:c:\users\vincius\documents\daisytoolchain-0.3.1\windows\arm-none-eabi\include\c++\10.2.1\cmath ****   inline float
 403:c:\users\vincius\documents\daisytoolchain-0.3.1\windows\arm-none-eabi\include\c++\10.2.1\cmath ****   pow(float __x, int __n)
 404:c:\users\vincius\documents\daisytoolchain-0.3.1\windows\arm-none-eabi\include\c++\10.2.1\cmath ****   { return __builtin_powif(__x, __n); }
 405:c:\users\vincius\documents\daisytoolchain-0.3.1\windows\arm-none-eabi\include\c++\10.2.1\cmath **** 
 406:c:\users\vincius\documents\daisytoolchain-0.3.1\windows\arm-none-eabi\include\c++\10.2.1\cmath ****   inline long double
 407:c:\users\vincius\documents\daisytoolchain-0.3.1\windows\arm-none-eabi\include\c++\10.2.1\cmath ****   pow(long double __x, int __n)
 408:c:\users\vincius\documents\daisytoolchain-0.3.1\windows\arm-none-eabi\include\c++\10.2.1\cmath ****   { return __builtin_powil(__x, __n); }
 409:c:\users\vincius\documents\daisytoolchain-0.3.1\windows\arm-none-eabi\include\c++\10.2.1\cmath **** #endif
 410:c:\users\vincius\documents\daisytoolchain-0.3.1\windows\arm-none-eabi\include\c++\10.2.1\cmath **** #endif
 411:c:\users\vincius\documents\daisytoolchain-0.3.1\windows\arm-none-eabi\include\c++\10.2.1\cmath **** 
 412:c:\users\vincius\documents\daisytoolchain-0.3.1\windows\arm-none-eabi\include\c++\10.2.1\cmath ****   template<typename _Tp, typename _Up>
 413:c:\users\vincius\documents\daisytoolchain-0.3.1\windows\arm-none-eabi\include\c++\10.2.1\cmath ****     inline _GLIBCXX_CONSTEXPR
 414:c:\users\vincius\documents\daisytoolchain-0.3.1\windows\arm-none-eabi\include\c++\10.2.1\cmath ****     typename __gnu_cxx::__promote_2<_Tp, _Up>::__type
 415:c:\users\vincius\documents\daisytoolchain-0.3.1\windows\arm-none-eabi\include\c++\10.2.1\cmath ****     pow(_Tp __x, _Up __y)
 416:c:\users\vincius\documents\daisytoolchain-0.3.1\windows\arm-none-eabi\include\c++\10.2.1\cmath ****     {
 417:c:\users\vincius\documents\daisytoolchain-0.3.1\windows\arm-none-eabi\include\c++\10.2.1\cmath ****       typedef typename __gnu_cxx::__promote_2<_Tp, _Up>::__type __type;
 418:c:\users\vincius\documents\daisytoolchain-0.3.1\windows\arm-none-eabi\include\c++\10.2.1\cmath ****       return pow(__type(__x), __type(__y));
 419:c:\users\vincius\documents\daisytoolchain-0.3.1\windows\arm-none-eabi\include\c++\10.2.1\cmath ****     }
 420:c:\users\vincius\documents\daisytoolchain-0.3.1\windows\arm-none-eabi\include\c++\10.2.1\cmath **** 
 421:c:\users\vincius\documents\daisytoolchain-0.3.1\windows\arm-none-eabi\include\c++\10.2.1\cmath ****   using ::sin;
 422:c:\users\vincius\documents\daisytoolchain-0.3.1\windows\arm-none-eabi\include\c++\10.2.1\cmath **** 
 423:c:\users\vincius\documents\daisytoolchain-0.3.1\windows\arm-none-eabi\include\c++\10.2.1\cmath **** #ifndef __CORRECT_ISO_CPP_MATH_H_PROTO
 424:c:\users\vincius\documents\daisytoolchain-0.3.1\windows\arm-none-eabi\include\c++\10.2.1\cmath ****   inline _GLIBCXX_CONSTEXPR float
 425:c:\users\vincius\documents\daisytoolchain-0.3.1\windows\arm-none-eabi\include\c++\10.2.1\cmath ****   sin(float __x)
 426:c:\users\vincius\documents\daisytoolchain-0.3.1\windows\arm-none-eabi\include\c++\10.2.1\cmath ****   { return __builtin_sinf(__x); }
 1554              		.loc 11 426 26 view .LVU332
 1555 0068 B0EE680A 		vmov.f32	s0, s17
ARM GAS  C:\Users\VINCIU~1\AppData\Local\Temp\ccI83ocg.s 			page 58


 1556 006c FFF7FEFF 		bl	sinf
 1557              	.LVL115:
 1558              	.LBE377:
 1559              	.LBE376:
 276:../../libdaisy/src/hid/disp/display.h ****         end_x   = cos(end_angle_rad) * radius;
 1560              		.loc 8 276 17 view .LVU333
 1561 0070 60EE698A 		vnmul.f32	s17, s0, s19
 1562              	.LVL116:
 1563              	.LBB379:
 1564              	.LBB380:
 185:c:\users\vincius\documents\daisytoolchain-0.3.1\windows\arm-none-eabi\include\c++\10.2.1\cmath **** 
 1565              		.loc 11 185 26 view .LVU334
 1566 0074 B0EE4A0A 		vmov.f32	s0, s20
 1567 0078 FFF7FEFF 		bl	cosf
 1568              	.LVL117:
 1569 007c B0EE409A 		vmov.f32	s18, s0
 1570              	.LBE380:
 1571              	.LBE379:
 1572              	.LBB382:
 1573              	.LBB383:
 1574              		.loc 11 426 26 view .LVU335
 1575 0080 B0EE4A0A 		vmov.f32	s0, s20
 1576 0084 FFF7FEFF 		bl	sinf
 1577              	.LVL118:
 1578              	.LBE383:
 1579              	.LBE382:
 278:../../libdaisy/src/hid/disp/display.h **** 
 1580              		.loc 8 278 17 view .LVU336
 1581 0088 20EE690A 		vnmul.f32	s0, s0, s19
 275:../../libdaisy/src/hid/disp/display.h ****         start_y = -sin(start_angle_rad) * radius;
 1582              		.loc 8 275 17 view .LVU337
 1583 008c 29EE888A 		vmul.f32	s16, s19, s16
 1584              	.LVL119:
 1585              	.LBB385:
 1586              	.LBI376:
 425:c:\users\vincius\documents\daisytoolchain-0.3.1\windows\arm-none-eabi\include\c++\10.2.1\cmath ****   { return __builtin_sinf(__x); }
 1587              		.loc 11 425 3 is_stmt 1 view .LVU338
 1588              	.LBB378:
 1589              		.loc 11 426 5 view .LVU339
 1590              		.loc 11 426 5 is_stmt 0 view .LVU340
 1591              	.LBE378:
 1592              	.LBE385:
 1593              	.LBB386:
 1594              	.LBI379:
 184:c:\users\vincius\documents\daisytoolchain-0.3.1\windows\arm-none-eabi\include\c++\10.2.1\cmath ****   { return __builtin_cosf(__x); }
 1595              		.loc 11 184 3 is_stmt 1 view .LVU341
 1596              	.LBB381:
 185:c:\users\vincius\documents\daisytoolchain-0.3.1\windows\arm-none-eabi\include\c++\10.2.1\cmath **** 
 1597              		.loc 11 185 5 view .LVU342
 185:c:\users\vincius\documents\daisytoolchain-0.3.1\windows\arm-none-eabi\include\c++\10.2.1\cmath **** 
 1598              		.loc 11 185 5 is_stmt 0 view .LVU343
 1599              	.LBE381:
 1600              	.LBE386:
 277:../../libdaisy/src/hid/disp/display.h ****         end_y   = -sin(end_angle_rad) * radius;
 1601              		.loc 8 277 17 view .LVU344
 1602 0090 29EE899A 		vmul.f32	s18, s19, s18
 1603              	.LVL120:
ARM GAS  C:\Users\VINCIU~1\AppData\Local\Temp\ccI83ocg.s 			page 59


 1604              	.LBB387:
 1605              	.LBI382:
 425:c:\users\vincius\documents\daisytoolchain-0.3.1\windows\arm-none-eabi\include\c++\10.2.1\cmath ****   { return __builtin_sinf(__x); }
 1606              		.loc 11 425 3 is_stmt 1 view .LVU345
 1607              	.LBB384:
 1608              		.loc 11 426 5 view .LVU346
 1609              		.loc 11 426 5 is_stmt 0 view .LVU347
 1610              	.LBE384:
 1611              	.LBE387:
 282:../../libdaisy/src/hid/disp/display.h ****            < 2.0f)
 1612              		.loc 8 282 25 view .LVU348
 1613 0094 70EE687A 		vsub.f32	s15, s0, s17
 281:../../libdaisy/src/hid/disp/display.h ****                + (end_y - start_y) * (end_y - start_y)
 1614              		.loc 8 281 9 view .LVU349
 1615 0098 F0EE006A 		vmov.f32	s13, #2.0e+0
 281:../../libdaisy/src/hid/disp/display.h ****                + (end_y - start_y) * (end_y - start_y)
 1616              		.loc 8 281 19 view .LVU350
 1617 009c 39EE487A 		vsub.f32	s14, s18, s16
 282:../../libdaisy/src/hid/disp/display.h ****            < 2.0f)
 1618              		.loc 8 282 36 view .LVU351
 1619 00a0 67EEA77A 		vmul.f32	s15, s15, s15
 282:../../libdaisy/src/hid/disp/display.h ****            < 2.0f)
 1620              		.loc 8 282 16 view .LVU352
 1621 00a4 E7EE077A 		vfma.f32	s15, s14, s14
 281:../../libdaisy/src/hid/disp/display.h ****                + (end_y - start_y) * (end_y - start_y)
 1622              		.loc 8 281 9 view .LVU353
 1623 00a8 F4EEE67A 		vcmpe.f32	s15, s13
 1624 00ac F1EE10FA 		vmrs	APSR_nzcv, FPSCR
 1625 00b0 06D5     		bpl	.L168
 285:../../libdaisy/src/hid/disp/display.h ****                 circle = true;
 1626              		.loc 8 285 13 view .LVU354
 1627 00b2 139B     		ldr	r3, [sp, #76]
 1628 00b4 B42B     		cmp	r3, #180
 1629 00b6 40F39680 		ble	.L109
 286:../../libdaisy/src/hid/disp/display.h ****             else
 1630              		.loc 8 286 24 view .LVU355
 1631 00ba 4FF00109 		mov	r9, #1
 1632 00be 01E0     		b	.L112
 1633              	.L168:
 264:../../libdaisy/src/hid/disp/display.h **** 
 1634              		.loc 8 264 14 view .LVU356
 1635 00c0 4FF00009 		mov	r9, #0
 1636              	.L112:
 1637              	.LVL121:
 262:../../libdaisy/src/hid/disp/display.h **** 
 1638              		.loc 8 262 27 view .LVU357
 1639 00c4 0124     		movs	r4, #1
 292:../../libdaisy/src/hid/disp/display.h ****         t_y = 0;
 1640              		.loc 8 292 13 view .LVU358
 1641 00c6 7842     		rsbs	r0, r7, #0
 1642              	.LVL122:
 293:../../libdaisy/src/hid/disp/display.h ****         err = 2 - 2 * radius;
 1643              		.loc 8 293 13 view .LVU359
 1644 00c8 4FF0000C 		mov	ip, #0
 1645 00cc 0095     		str	r5, [sp]
 294:../../libdaisy/src/hid/disp/display.h **** 
 1646              		.loc 8 294 17 view .LVU360
ARM GAS  C:\Users\VINCIU~1\AppData\Local\Temp\ccI83ocg.s 			page 60


 1647 00ce E31B     		subs	r3, r4, r7
 262:../../libdaisy/src/hid/disp/display.h **** 
 1648              		.loc 8 262 17 view .LVU361
 1649 00d0 2146     		mov	r1, r4
 262:../../libdaisy/src/hid/disp/display.h **** 
 1650              		.loc 8 262 22 view .LVU362
 1651 00d2 2746     		mov	r7, r4
 1652              	.LVL123:
 262:../../libdaisy/src/hid/disp/display.h **** 
 1653              		.loc 8 262 12 view .LVU363
 1654 00d4 2246     		mov	r2, r4
 294:../../libdaisy/src/hid/disp/display.h **** 
 1655              		.loc 8 294 17 view .LVU364
 1656 00d6 A340     		lsls	r3, r3, r4
 1657              	.LVL124:
 1658              	.L138:
 298:../../libdaisy/src/hid/disp/display.h ****             {
 1659              		.loc 8 298 13 view .LVU365
 1660 00d8 B9F1000F 		cmp	r9, #0
 1661 00dc 6AD1     		bne	.L114
 303:../../libdaisy/src/hid/disp/display.h ****                 t_exy  = end_x * t_y;
 1662              		.loc 8 303 34 view .LVU366
 1663 00de 4242     		rsbs	r2, r0, #0
 1664              	.LVL125:
 300:../../libdaisy/src/hid/disp/display.h ****                 t_syx  = start_y * t_x;
 1665              		.loc 8 300 24 view .LVU367
 1666 00e0 06EE90CA 		vmov	s13, ip	@ int
 302:../../libdaisy/src/hid/disp/display.h ****                 t_synx = start_y * -t_x;
 1667              		.loc 8 302 34 view .LVU368
 1668 00e4 CCF10001 		rsb	r1, ip, #0
 1669              	.LVL126:
 303:../../libdaisy/src/hid/disp/display.h ****                 t_exy  = end_x * t_y;
 1670              		.loc 8 303 34 view .LVU369
 1671 00e8 07EE102A 		vmov	s14, r2	@ int
 300:../../libdaisy/src/hid/disp/display.h ****                 t_syx  = start_y * t_x;
 1672              		.loc 8 300 24 view .LVU370
 1673 00ec B8EEE66A 		vcvt.f32.s32	s12, s13
 302:../../libdaisy/src/hid/disp/display.h ****                 t_synx = start_y * -t_x;
 1674              		.loc 8 302 34 view .LVU371
 1675 00f0 07EE901A 		vmov	s15, r1	@ int
 301:../../libdaisy/src/hid/disp/display.h ****                 t_sxny = start_x * -t_y;
 1676              		.loc 8 301 24 view .LVU372
 1677 00f4 06EE900A 		vmov	s13, r0	@ int
 303:../../libdaisy/src/hid/disp/display.h ****                 t_exy  = end_x * t_y;
 1678              		.loc 8 303 34 view .LVU373
 1679 00f8 B8EEC77A 		vcvt.f32.s32	s14, s14
 309:../../libdaisy/src/hid/disp/display.h ****                 {
 1680              		.loc 8 309 17 view .LVU374
 1681 00fc 139A     		ldr	r2, [sp, #76]
 300:../../libdaisy/src/hid/disp/display.h ****                 t_syx  = start_y * t_x;
 1682              		.loc 8 300 24 view .LVU375
 1683 00fe 66EE084A 		vmul.f32	s9, s12, s16
 1684              	.LVL127:
 302:../../libdaisy/src/hid/disp/display.h ****                 t_synx = start_y * -t_x;
 1685              		.loc 8 302 34 view .LVU376
 1686 0102 F8EEE77A 		vcvt.f32.s32	s15, s15
 309:../../libdaisy/src/hid/disp/display.h ****                 {
ARM GAS  C:\Users\VINCIU~1\AppData\Local\Temp\ccI83ocg.s 			page 61


 1687              		.loc 8 309 17 view .LVU377
 1688 0106 B42A     		cmp	r2, #180
 303:../../libdaisy/src/hid/disp/display.h ****                 t_exy  = end_x * t_y;
 1689              		.loc 8 303 24 view .LVU378
 1690 0108 27EE284A 		vmul.f32	s8, s14, s17
 301:../../libdaisy/src/hid/disp/display.h ****                 t_sxny = start_x * -t_y;
 1691              		.loc 8 301 24 view .LVU379
 1692 010c F8EEE66A 		vcvt.f32.s32	s13, s13
 302:../../libdaisy/src/hid/disp/display.h ****                 t_synx = start_y * -t_x;
 1693              		.loc 8 302 24 view .LVU380
 1694 0110 67EE885A 		vmul.f32	s11, s15, s16
 311:../../libdaisy/src/hid/disp/display.h ****                     d2 = (t_sxy - t_syx < 0 || t_exy - t_eyx > 0);
 1695              		.loc 8 311 33 view .LVU381
 1696 0114 74EEC43A 		vsub.f32	s7, s9, s8
 301:../../libdaisy/src/hid/disp/display.h ****                 t_sxny = start_x * -t_y;
 1697              		.loc 8 301 24 view .LVU382
 1698 0118 26EEA85A 		vmul.f32	s10, s13, s17
 1699              	.LVL128:
 304:../../libdaisy/src/hid/disp/display.h ****                 t_eyx  = end_y * t_x;
 1700              		.loc 8 304 24 view .LVU383
 1701 011c 26EE096A 		vmul.f32	s12, s12, s18
 1702              	.LVL129:
 305:../../libdaisy/src/hid/disp/display.h ****                 t_exny = end_x * -t_y;
 1703              		.loc 8 305 24 view .LVU384
 1704 0120 66EE806A 		vmul.f32	s13, s13, s0
 1705              	.LVL130:
 306:../../libdaisy/src/hid/disp/display.h ****                 t_eynx = end_y * -t_x;
 1706              		.loc 8 306 24 view .LVU385
 1707 0124 67EE897A 		vmul.f32	s15, s15, s18
 1708              	.LVL131:
 307:../../libdaisy/src/hid/disp/display.h **** 
 1709              		.loc 8 307 24 view .LVU386
 1710 0128 27EE007A 		vmul.f32	s14, s14, s0
 1711              	.LVL132:
 311:../../libdaisy/src/hid/disp/display.h ****                     d2 = (t_sxy - t_syx < 0 || t_exy - t_eyx > 0);
 1712              		.loc 8 311 46 view .LVU387
 1713 012c F5EEC03A 		vcmpe.f32	s7, #0
 309:../../libdaisy/src/hid/disp/display.h ****                 {
 1714              		.loc 8 309 17 view .LVU388
 1715 0130 40F3F280 		ble	.L115
 311:../../libdaisy/src/hid/disp/display.h ****                     d2 = (t_sxy - t_syx < 0 || t_exy - t_eyx > 0);
 1716              		.loc 8 311 46 view .LVU389
 1717 0134 F1EE10FA 		vmrs	APSR_nzcv, FPSCR
 1718 0138 00F17F81 		bmi	.L141
 311:../../libdaisy/src/hid/disp/display.h ****                     d2 = (t_sxy - t_syx < 0 || t_exy - t_eyx > 0);
 1719              		.loc 8 311 55 discriminator 2 view .LVU390
 1720 013c 76EE473A 		vsub.f32	s7, s12, s14
 312:../../libdaisy/src/hid/disp/display.h ****                     d3 = (t_sxny - t_syx < 0 || t_exny - t_eyx > 0);
 1721              		.loc 8 312 33 discriminator 2 view .LVU391
 1722 0140 74EEC54A 		vsub.f32	s9, s9, s10
 1723              	.LVL133:
 311:../../libdaisy/src/hid/disp/display.h ****                     d2 = (t_sxy - t_syx < 0 || t_exy - t_eyx > 0);
 1724              		.loc 8 311 46 discriminator 2 view .LVU392
 1725 0144 F5EEC03A 		vcmpe.f32	s7, #0
 1726 0148 F1EE10FA 		vmrs	APSR_nzcv, FPSCR
 312:../../libdaisy/src/hid/disp/display.h ****                     d3 = (t_sxny - t_syx < 0 || t_exny - t_eyx > 0);
 1727              		.loc 8 312 45 discriminator 2 view .LVU393
ARM GAS  C:\Users\VINCIU~1\AppData\Local\Temp\ccI83ocg.s 			page 62


 1728 014c F5EEC04A 		vcmpe.f32	s9, #0
 311:../../libdaisy/src/hid/disp/display.h ****                     d2 = (t_sxy - t_syx < 0 || t_exy - t_eyx > 0);
 1729              		.loc 8 311 46 discriminator 2 view .LVU394
 1730 0150 CCBF     		ite	gt
 1731 0152 0122     		movgt	r2, #1
 1732 0154 0022     		movle	r2, #0
 1733              	.LVL134:
 312:../../libdaisy/src/hid/disp/display.h ****                     d3 = (t_sxny - t_syx < 0 || t_exny - t_eyx > 0);
 1734              		.loc 8 312 45 discriminator 2 view .LVU395
 1735 0156 F1EE10FA 		vmrs	APSR_nzcv, FPSCR
 1736 015a 00F17781 		bmi	.L142
 1737              	.L184:
 312:../../libdaisy/src/hid/disp/display.h ****                     d3 = (t_sxny - t_syx < 0 || t_exny - t_eyx > 0);
 1738              		.loc 8 312 54 discriminator 2 view .LVU396
 1739 015e 36EE666A 		vsub.f32	s12, s12, s13
 1740              	.LVL135:
 313:../../libdaisy/src/hid/disp/display.h ****                     d4 = (t_sxny - t_synx < 0 || t_exny - t_eynx > 0);
 1741              		.loc 8 313 34 discriminator 2 view .LVU397
 1742 0162 35EEC55A 		vsub.f32	s10, s11, s10
 1743              	.LVL136:
 312:../../libdaisy/src/hid/disp/display.h ****                     d3 = (t_sxny - t_syx < 0 || t_exny - t_eyx > 0);
 1744              		.loc 8 312 45 discriminator 2 view .LVU398
 1745 0166 B5EEC06A 		vcmpe.f32	s12, #0
 1746 016a F1EE10FA 		vmrs	APSR_nzcv, FPSCR
 313:../../libdaisy/src/hid/disp/display.h ****                     d4 = (t_sxny - t_synx < 0 || t_exny - t_eynx > 0);
 1747              		.loc 8 313 46 discriminator 2 view .LVU399
 1748 016e B5EEC05A 		vcmpe.f32	s10, #0
 312:../../libdaisy/src/hid/disp/display.h ****                     d3 = (t_sxny - t_syx < 0 || t_exny - t_eyx > 0);
 1749              		.loc 8 312 45 discriminator 2 view .LVU400
 1750 0172 CCBF     		ite	gt
 1751 0174 0121     		movgt	r1, #1
 1752 0176 0021     		movle	r1, #0
 1753              	.LVL137:
 313:../../libdaisy/src/hid/disp/display.h ****                     d4 = (t_sxny - t_synx < 0 || t_exny - t_eynx > 0);
 1754              		.loc 8 313 46 discriminator 2 view .LVU401
 1755 0178 F1EE10FA 		vmrs	APSR_nzcv, FPSCR
 1756 017c 00F16F81 		bmi	.L143
 1757              	.L185:
 313:../../libdaisy/src/hid/disp/display.h ****                     d4 = (t_sxny - t_synx < 0 || t_exny - t_eynx > 0);
 1758              		.loc 8 313 56 discriminator 2 view .LVU402
 1759 0180 77EEE66A 		vsub.f32	s13, s15, s13
 1760              	.LVL138:
 313:../../libdaisy/src/hid/disp/display.h ****                     d4 = (t_sxny - t_synx < 0 || t_exny - t_eynx > 0);
 1761              		.loc 8 313 46 discriminator 2 view .LVU403
 1762 0184 F5EEC06A 		vcmpe.f32	s13, #0
 1763 0188 F1EE10FA 		vmrs	APSR_nzcv, FPSCR
 1764 018c CCBF     		ite	gt
 1765 018e 0127     		movgt	r7, #1
 1766              	.LVL139:
 313:../../libdaisy/src/hid/disp/display.h ****                     d4 = (t_sxny - t_synx < 0 || t_exny - t_eynx > 0);
 1767              		.loc 8 313 46 discriminator 2 view .LVU404
 1768 0190 0027     		movle	r7, #0
 1769              	.L118:
 1770              	.LVL140:
 314:../../libdaisy/src/hid/disp/display.h ****                 }
 1771              		.loc 8 314 34 discriminator 6 view .LVU405
 1772 0192 75EEC45A 		vsub.f32	s11, s11, s8
ARM GAS  C:\Users\VINCIU~1\AppData\Local\Temp\ccI83ocg.s 			page 63


 1773              	.LVL141:
 314:../../libdaisy/src/hid/disp/display.h ****                 }
 1774              		.loc 8 314 47 discriminator 6 view .LVU406
 1775 0196 F5EEC05A 		vcmpe.f32	s11, #0
 1776 019a F1EE10FA 		vmrs	APSR_nzcv, FPSCR
 1777 019e 00F14781 		bmi	.L144
 1778              	.L174:
 321:../../libdaisy/src/hid/disp/display.h ****                 }
 1779              		.loc 8 321 57 discriminator 1 view .LVU407
 1780 01a2 77EEC77A 		vsub.f32	s15, s15, s14
 1781              	.LVL142:
 321:../../libdaisy/src/hid/disp/display.h ****                 }
 1782              		.loc 8 321 47 discriminator 1 view .LVU408
 1783 01a6 F5EEC07A 		vcmpe.f32	s15, #0
 1784 01aa F1EE10FA 		vmrs	APSR_nzcv, FPSCR
 1785 01ae CCBF     		ite	gt
 1786 01b0 0124     		movgt	r4, #1
 1787              	.LVL143:
 321:../../libdaisy/src/hid/disp/display.h ****                 }
 1788              		.loc 8 321 47 discriminator 1 view .LVU409
 1789 01b2 0024     		movle	r4, #0
 1790              	.LVL144:
 1791              	.L114:
 325:../../libdaisy/src/hid/disp/display.h ****                 ((ChildType*)(this))
 1792              		.loc 8 325 13 view .LVU410
 1793 01b4 002A     		cmp	r2, #0
 1794 01b6 40F08A80 		bne	.L175
 1795              	.L126:
 328:../../libdaisy/src/hid/disp/display.h ****                 ((ChildType*)(this))
 1796              		.loc 8 328 13 view .LVU411
 1797 01ba 0029     		cmp	r1, #0
 1798 01bc 64D1     		bne	.L176
 1799              	.L128:
 331:../../libdaisy/src/hid/disp/display.h ****                 ((ChildType*)(this))
 1800              		.loc 8 331 13 view .LVU412
 1801 01be BFB9     		cbnz	r7, .L177
 1802              	.L130:
 334:../../libdaisy/src/hid/disp/display.h ****                 ((ChildType*)(this))
 1803              		.loc 8 334 13 view .LVU413
 1804 01c0 C4BB     		cbnz	r4, .L178
 1805              	.L132:
 1806              	.LVL145:
 339:../../libdaisy/src/hid/disp/display.h ****             {
 1807              		.loc 8 339 13 view .LVU414
 1808 01c2 9C45     		cmp	ip, r3
 1809 01c4 58DB     		blt	.L149
 1810              	.L180:
 341:../../libdaisy/src/hid/disp/display.h ****                 err = err + (t_y * 2 + 1);
 1811              		.loc 8 341 17 view .LVU415
 1812 01c6 0CF1010C 		add	ip, ip, #1
 1813              	.LVL146:
 342:../../libdaisy/src/hid/disp/display.h ****                 if(-t_x == t_y && e2 <= t_x)
 1814              		.loc 8 342 38 view .LVU416
 1815 01ca 03EB4C0E 		add	lr, r3, ip, lsl #1
 343:../../libdaisy/src/hid/disp/display.h ****                 {
 1816              		.loc 8 343 17 view .LVU417
 1817 01ce 1CEB000F 		cmn	ip, r0
ARM GAS  C:\Users\VINCIU~1\AppData\Local\Temp\ccI83ocg.s 			page 64


 342:../../libdaisy/src/hid/disp/display.h ****                 if(-t_x == t_y && e2 <= t_x)
 1818              		.loc 8 342 21 view .LVU418
 1819 01d2 0EF1010E 		add	lr, lr, #1
 1820              	.LVL147:
 343:../../libdaisy/src/hid/disp/display.h ****                 {
 1821              		.loc 8 343 17 view .LVU419
 1822 01d6 00F0C080 		beq	.L179
 1823              	.LVL148:
 1824              	.L134:
 348:../../libdaisy/src/hid/disp/display.h ****             {
 1825              		.loc 8 348 13 view .LVU420
 1826 01da 9842     		cmp	r0, r3
 1827 01dc 4FDB     		blt	.L135
 1828              	.L150:
 348:../../libdaisy/src/hid/disp/display.h ****             {
 1829              		.loc 8 348 13 view .LVU421
 1830 01de 7346     		mov	r3, lr
 1831              	.LVL149:
 1832              	.L136:
 353:../../libdaisy/src/hid/disp/display.h ****     }
 1833              		.loc 8 353 21 is_stmt 1 view .LVU422
 1834 01e0 0028     		cmp	r0, #0
 1835 01e2 7FF779AF 		ble	.L138
 1836              	.LVL150:
 1837              	.L109:
 354:../../libdaisy/src/hid/disp/display.h **** 
 1838              		.loc 8 354 5 is_stmt 0 view .LVU423
 1839 01e6 03B0     		add	sp, sp, #12
 1840              		.cfi_remember_state
 1841              		.cfi_def_cfa_offset 60
 1842              		@ sp needed
 1843 01e8 BDEC068B 		vldm	sp!, {d8-d10}
 1844              		.cfi_restore 84
 1845              		.cfi_restore 85
 1846              		.cfi_restore 82
 1847              		.cfi_restore 83
 1848              		.cfi_restore 80
 1849              		.cfi_restore 81
 1850              		.cfi_def_cfa_offset 36
 1851              	.LVL151:
 354:../../libdaisy/src/hid/disp/display.h **** 
 1852              		.loc 8 354 5 view .LVU424
 1853 01ec BDE8F08F 		pop	{r4, r5, r6, r7, r8, r9, r10, fp, pc}
 1854              	.LVL152:
 1855              	.L177:
 1856              		.cfi_restore_state
 333:../../libdaisy/src/hid/disp/display.h ****             if(d4)
 1857              		.loc 8 333 43 view .LVU425
 1858 01f0 009D     		ldr	r5, [sp]
 1859 01f2 A6EB0C0E 		sub	lr, r6, ip
 1860 01f6 00EB050A 		add	r10, r0, r5
 1861              	.LVL153:
 1862              	.LBB388:
 1863              	.LBI388:
  41:../../libdaisy/src/hid/disp/oled_display.h ****     {
 1864              		.loc 7 41 10 is_stmt 1 view .LVU426
 1865              	.LBB389:
ARM GAS  C:\Users\VINCIU~1\AppData\Local\Temp\ccI83ocg.s 			page 65


 1866              	.LBI389:
 239:../../libdaisy/src/dev/oled_ssd130x.h ****     {
 1867              		.loc 9 239 10 view .LVU427
 1868              	.LBB390:
 241:../../libdaisy/src/dev/oled_ssd130x.h ****             return;
 1869              		.loc 9 241 9 is_stmt 0 view .LVU428
 1870 01fa BAF17F0F 		cmp	r10, #127
 1871 01fe DFD8     		bhi	.L130
 1872 0200 BEF13F0F 		cmp	lr, #63
 1873 0204 DCD8     		bhi	.L130
 244:../../libdaisy/src/dev/oled_ssd130x.h ****         else
 1874              		.loc 9 244 28 view .LVU429
 1875 0206 4FEADE0B 		lsr	fp, lr, #3
 243:../../libdaisy/src/dev/oled_ssd130x.h ****             buffer_[x + (y / 8) * width] |= (1 << (y % 8));
 1876              		.loc 9 243 9 view .LVU430
 1877 020a 019D     		ldr	r5, [sp, #4]
 244:../../libdaisy/src/dev/oled_ssd130x.h ****         else
 1878              		.loc 9 244 42 view .LVU431
 1879 020c 0AEBCB1A 		add	r10, r10, fp, lsl #7
 1880              	.LVL154:
 243:../../libdaisy/src/dev/oled_ssd130x.h ****             buffer_[x + (y / 8) * width] |= (1 << (y % 8));
 1881              		.loc 9 243 9 view .LVU432
 1882 0210 002D     		cmp	r5, #0
 1883 0212 00F0B180 		beq	.L131
 244:../../libdaisy/src/dev/oled_ssd130x.h ****         else
 1884              		.loc 9 244 54 view .LVU433
 1885 0216 0EF0070B 		and	fp, lr, #7
 244:../../libdaisy/src/dev/oled_ssd130x.h ****         else
 1886              		.loc 9 244 42 view .LVU434
 1887 021a C244     		add	r10, r10, r8
 244:../../libdaisy/src/dev/oled_ssd130x.h ****         else
 1888              		.loc 9 244 48 view .LVU435
 1889 021c 4FF0010E 		mov	lr, #1
 1890              	.LVL155:
 244:../../libdaisy/src/dev/oled_ssd130x.h ****         else
 1891              		.loc 9 244 48 view .LVU436
 1892 0220 0EFA0BFE 		lsl	lr, lr, fp
 244:../../libdaisy/src/dev/oled_ssd130x.h ****         else
 1893              		.loc 9 244 42 view .LVU437
 1894 0224 9AF814B0 		ldrb	fp, [r10, #20]	@ zero_extendqisi2
 1895 0228 4EEA0B0E 		orr	lr, lr, fp
 1896 022c 8AF814E0 		strb	lr, [r10, #20]
 1897              	.LVL156:
 244:../../libdaisy/src/dev/oled_ssd130x.h ****         else
 1898              		.loc 9 244 42 view .LVU438
 1899              	.LBE390:
 1900              	.LBE389:
 1901              	.LBE388:
 334:../../libdaisy/src/hid/disp/display.h ****                 ((ChildType*)(this))
 1902              		.loc 8 334 13 view .LVU439
 1903 0230 002C     		cmp	r4, #0
 1904 0232 C6D0     		beq	.L132
 1905              	.L178:
 336:../../libdaisy/src/hid/disp/display.h **** 
 1906              		.loc 8 336 43 view .LVU440
 1907 0234 009D     		ldr	r5, [sp]
 1908 0236 A6EB0C0E 		sub	lr, r6, ip
ARM GAS  C:\Users\VINCIU~1\AppData\Local\Temp\ccI83ocg.s 			page 66


 1909 023a A5EB000A 		sub	r10, r5, r0
 1910              	.LVL157:
 1911              	.LBB395:
 1912              	.LBI395:
  41:../../libdaisy/src/hid/disp/oled_display.h ****     {
 1913              		.loc 7 41 10 is_stmt 1 view .LVU441
 1914              	.LBB396:
 1915              	.LBI396:
 239:../../libdaisy/src/dev/oled_ssd130x.h ****     {
 1916              		.loc 9 239 10 view .LVU442
 1917              	.LBB397:
 241:../../libdaisy/src/dev/oled_ssd130x.h ****             return;
 1918              		.loc 9 241 9 is_stmt 0 view .LVU443
 1919 023e BAF17F0F 		cmp	r10, #127
 1920 0242 BED8     		bhi	.L132
 1921 0244 BEF13F0F 		cmp	lr, #63
 1922 0248 BBD8     		bhi	.L132
 244:../../libdaisy/src/dev/oled_ssd130x.h ****         else
 1923              		.loc 9 244 28 view .LVU444
 1924 024a 4FEADE0B 		lsr	fp, lr, #3
 243:../../libdaisy/src/dev/oled_ssd130x.h ****             buffer_[x + (y / 8) * width] |= (1 << (y % 8));
 1925              		.loc 9 243 9 view .LVU445
 1926 024e 019D     		ldr	r5, [sp, #4]
 244:../../libdaisy/src/dev/oled_ssd130x.h ****         else
 1927              		.loc 9 244 42 view .LVU446
 1928 0250 0AEBCB1A 		add	r10, r10, fp, lsl #7
 1929              	.LVL158:
 243:../../libdaisy/src/dev/oled_ssd130x.h ****             buffer_[x + (y / 8) * width] |= (1 << (y % 8));
 1930              		.loc 9 243 9 view .LVU447
 1931 0254 002D     		cmp	r5, #0
 1932 0256 00F0AE80 		beq	.L133
 244:../../libdaisy/src/dev/oled_ssd130x.h ****         else
 1933              		.loc 9 244 54 view .LVU448
 1934 025a 0EF0070B 		and	fp, lr, #7
 244:../../libdaisy/src/dev/oled_ssd130x.h ****         else
 1935              		.loc 9 244 42 view .LVU449
 1936 025e C244     		add	r10, r10, r8
 244:../../libdaisy/src/dev/oled_ssd130x.h ****         else
 1937              		.loc 9 244 48 view .LVU450
 1938 0260 4FF0010E 		mov	lr, #1
 1939              	.LVL159:
 244:../../libdaisy/src/dev/oled_ssd130x.h ****         else
 1940              		.loc 9 244 48 view .LVU451
 1941              	.LBE397:
 1942              	.LBE396:
 1943              	.LBE395:
 339:../../libdaisy/src/hid/disp/display.h ****             {
 1944              		.loc 8 339 13 view .LVU452
 1945 0264 9C45     		cmp	ip, r3
 1946              	.LBB404:
 1947              	.LBB402:
 1948              	.LBB400:
 244:../../libdaisy/src/dev/oled_ssd130x.h ****         else
 1949              		.loc 9 244 48 view .LVU453
 1950 0266 0EFA0BFE 		lsl	lr, lr, fp
 244:../../libdaisy/src/dev/oled_ssd130x.h ****         else
 1951              		.loc 9 244 42 view .LVU454
ARM GAS  C:\Users\VINCIU~1\AppData\Local\Temp\ccI83ocg.s 			page 67


 1952 026a 9AF814B0 		ldrb	fp, [r10, #20]	@ zero_extendqisi2
 1953 026e 4EEA0B0E 		orr	lr, lr, fp
 1954 0272 8AF814E0 		strb	lr, [r10, #20]
 1955              	.LVL160:
 244:../../libdaisy/src/dev/oled_ssd130x.h ****         else
 1956              		.loc 9 244 42 view .LVU455
 1957              	.LBE400:
 1958              	.LBE402:
 1959              	.LBE404:
 339:../../libdaisy/src/hid/disp/display.h ****             {
 1960              		.loc 8 339 13 view .LVU456
 1961 0276 A6DA     		bge	.L180
 1962              	.L149:
 348:../../libdaisy/src/hid/disp/display.h ****             {
 1963              		.loc 8 348 13 view .LVU457
 1964 0278 9842     		cmp	r0, r3
 1965 027a 9E46     		mov	lr, r3
 1966              	.LVL161:
 348:../../libdaisy/src/hid/disp/display.h ****             {
 1967              		.loc 8 348 13 view .LVU458
 1968 027c AFDA     		bge	.L150
 1969              	.LVL162:
 1970              	.L135:
 350:../../libdaisy/src/hid/disp/display.h ****                 err = err + (t_x * 2 + 1);
 1971              		.loc 8 350 17 view .LVU459
 1972 027e 0130     		adds	r0, r0, #1
 1973              	.LVL163:
 351:../../libdaisy/src/hid/disp/display.h ****             }
 1974              		.loc 8 351 38 view .LVU460
 1975 0280 0EEB4003 		add	r3, lr, r0, lsl #1
 351:../../libdaisy/src/hid/disp/display.h ****             }
 1976              		.loc 8 351 21 view .LVU461
 1977 0284 0133     		adds	r3, r3, #1
 1978              	.LVL164:
 351:../../libdaisy/src/hid/disp/display.h ****             }
 1979              		.loc 8 351 21 view .LVU462
 1980 0286 ABE7     		b	.L136
 1981              	.L176:
 330:../../libdaisy/src/hid/disp/display.h ****             if(d3)
 1982              		.loc 8 330 43 view .LVU463
 1983 0288 009D     		ldr	r5, [sp]
 1984 028a 0CEB060E 		add	lr, ip, r6
 1985 028e 00EB050A 		add	r10, r0, r5
 1986              	.LVL165:
 1987              	.LBB405:
 1988              	.LBI405:
  41:../../libdaisy/src/hid/disp/oled_display.h ****     {
 1989              		.loc 7 41 10 is_stmt 1 view .LVU464
 1990              	.LBB406:
 1991              	.LBI406:
 239:../../libdaisy/src/dev/oled_ssd130x.h ****     {
 1992              		.loc 9 239 10 view .LVU465
 1993              	.LBB407:
 241:../../libdaisy/src/dev/oled_ssd130x.h ****             return;
 1994              		.loc 9 241 9 is_stmt 0 view .LVU466
 1995 0292 BAF17F0F 		cmp	r10, #127
 1996 0296 92D8     		bhi	.L128
ARM GAS  C:\Users\VINCIU~1\AppData\Local\Temp\ccI83ocg.s 			page 68


 1997 0298 BEF13F0F 		cmp	lr, #63
 1998 029c 8FD8     		bhi	.L128
 244:../../libdaisy/src/dev/oled_ssd130x.h ****         else
 1999              		.loc 9 244 28 view .LVU467
 2000 029e 4FEADE0B 		lsr	fp, lr, #3
 243:../../libdaisy/src/dev/oled_ssd130x.h ****             buffer_[x + (y / 8) * width] |= (1 << (y % 8));
 2001              		.loc 9 243 9 view .LVU468
 2002 02a2 019D     		ldr	r5, [sp, #4]
 244:../../libdaisy/src/dev/oled_ssd130x.h ****         else
 2003              		.loc 9 244 42 view .LVU469
 2004 02a4 0AEBCB1A 		add	r10, r10, fp, lsl #7
 2005              	.LVL166:
 243:../../libdaisy/src/dev/oled_ssd130x.h ****             buffer_[x + (y / 8) * width] |= (1 << (y % 8));
 2006              		.loc 9 243 9 view .LVU470
 2007 02a8 002D     		cmp	r5, #0
 2008 02aa 73D0     		beq	.L129
 244:../../libdaisy/src/dev/oled_ssd130x.h ****         else
 2009              		.loc 9 244 54 view .LVU471
 2010 02ac 0EF0070B 		and	fp, lr, #7
 244:../../libdaisy/src/dev/oled_ssd130x.h ****         else
 2011              		.loc 9 244 42 view .LVU472
 2012 02b0 C244     		add	r10, r10, r8
 244:../../libdaisy/src/dev/oled_ssd130x.h ****         else
 2013              		.loc 9 244 48 view .LVU473
 2014 02b2 4FF0010E 		mov	lr, #1
 2015              	.LVL167:
 244:../../libdaisy/src/dev/oled_ssd130x.h ****         else
 2016              		.loc 9 244 48 view .LVU474
 2017 02b6 0EFA0BFE 		lsl	lr, lr, fp
 244:../../libdaisy/src/dev/oled_ssd130x.h ****         else
 2018              		.loc 9 244 42 view .LVU475
 2019 02ba 9AF814B0 		ldrb	fp, [r10, #20]	@ zero_extendqisi2
 2020 02be 4EEA0B0E 		orr	lr, lr, fp
 2021 02c2 8AF814E0 		strb	lr, [r10, #20]
 2022              	.LVL168:
 244:../../libdaisy/src/dev/oled_ssd130x.h ****         else
 2023              		.loc 9 244 42 view .LVU476
 2024              	.LBE407:
 2025              	.LBE406:
 2026              	.LBE405:
 331:../../libdaisy/src/hid/disp/display.h ****                 ((ChildType*)(this))
 2027              		.loc 8 331 13 view .LVU477
 2028 02c6 002F     		cmp	r7, #0
 2029 02c8 3FF47AAF 		beq	.L130
 2030 02cc 90E7     		b	.L177
 2031              	.L175:
 327:../../libdaisy/src/hid/disp/display.h ****             if(d2)
 2032              		.loc 8 327 43 view .LVU478
 2033 02ce 009D     		ldr	r5, [sp]
 2034 02d0 0CEB060E 		add	lr, ip, r6
 2035 02d4 A5EB000A 		sub	r10, r5, r0
 2036              	.LVL169:
 2037              	.LBB412:
 2038              	.LBI412:
  41:../../libdaisy/src/hid/disp/oled_display.h ****     {
 2039              		.loc 7 41 10 is_stmt 1 view .LVU479
 2040              	.LBB413:
ARM GAS  C:\Users\VINCIU~1\AppData\Local\Temp\ccI83ocg.s 			page 69


 2041              	.LBI413:
 239:../../libdaisy/src/dev/oled_ssd130x.h ****     {
 2042              		.loc 9 239 10 view .LVU480
 2043              	.LBB414:
 241:../../libdaisy/src/dev/oled_ssd130x.h ****             return;
 2044              		.loc 9 241 9 is_stmt 0 view .LVU481
 2045 02d8 BAF17F0F 		cmp	r10, #127
 2046 02dc 3FF66DAF 		bhi	.L126
 2047 02e0 BEF13F0F 		cmp	lr, #63
 2048 02e4 3FF669AF 		bhi	.L126
 244:../../libdaisy/src/dev/oled_ssd130x.h ****         else
 2049              		.loc 9 244 28 view .LVU482
 2050 02e8 4FEADE0B 		lsr	fp, lr, #3
 243:../../libdaisy/src/dev/oled_ssd130x.h ****             buffer_[x + (y / 8) * width] |= (1 << (y % 8));
 2051              		.loc 9 243 9 view .LVU483
 2052 02ec 019D     		ldr	r5, [sp, #4]
 244:../../libdaisy/src/dev/oled_ssd130x.h ****         else
 2053              		.loc 9 244 42 view .LVU484
 2054 02ee 0AEBCB1A 		add	r10, r10, fp, lsl #7
 2055              	.LVL170:
 243:../../libdaisy/src/dev/oled_ssd130x.h ****             buffer_[x + (y / 8) * width] |= (1 << (y % 8));
 2056              		.loc 9 243 9 view .LVU485
 2057 02f2 002D     		cmp	r5, #0
 2058 02f4 6DD0     		beq	.L127
 244:../../libdaisy/src/dev/oled_ssd130x.h ****         else
 2059              		.loc 9 244 54 view .LVU486
 2060 02f6 0EF0070B 		and	fp, lr, #7
 244:../../libdaisy/src/dev/oled_ssd130x.h ****         else
 2061              		.loc 9 244 42 view .LVU487
 2062 02fa C244     		add	r10, r10, r8
 244:../../libdaisy/src/dev/oled_ssd130x.h ****         else
 2063              		.loc 9 244 48 view .LVU488
 2064 02fc 4FF0010E 		mov	lr, #1
 2065              	.LVL171:
 244:../../libdaisy/src/dev/oled_ssd130x.h ****         else
 2066              		.loc 9 244 48 view .LVU489
 2067 0300 0EFA0BFE 		lsl	lr, lr, fp
 244:../../libdaisy/src/dev/oled_ssd130x.h ****         else
 2068              		.loc 9 244 42 view .LVU490
 2069 0304 9AF814B0 		ldrb	fp, [r10, #20]	@ zero_extendqisi2
 2070 0308 4EEA0B0E 		orr	lr, lr, fp
 2071 030c 8AF814E0 		strb	lr, [r10, #20]
 2072              	.LVL172:
 244:../../libdaisy/src/dev/oled_ssd130x.h ****         else
 2073              		.loc 9 244 42 view .LVU491
 2074              	.LBE414:
 2075              	.LBE413:
 2076              	.LBE412:
 328:../../libdaisy/src/hid/disp/display.h ****                 ((ChildType*)(this))
 2077              		.loc 8 328 13 view .LVU492
 2078 0310 0029     		cmp	r1, #0
 2079 0312 3FF454AF 		beq	.L128
 2080 0316 B7E7     		b	.L176
 2081              	.LVL173:
 2082              	.L115:
 318:../../libdaisy/src/hid/disp/display.h ****                     d2 = (t_sxy - t_syx < 0 && t_exy - t_eyx > 0);
 2083              		.loc 8 318 46 view .LVU493
ARM GAS  C:\Users\VINCIU~1\AppData\Local\Temp\ccI83ocg.s 			page 70


 2084 0318 F1EE10FA 		vmrs	APSR_nzcv, FPSCR
 2085 031c 7ED4     		bmi	.L181
 2086 031e 4A46     		mov	r2, r9
 2087              	.L119:
 2088              	.LVL174:
 319:../../libdaisy/src/hid/disp/display.h ****                     d3 = (t_sxny - t_syx < 0 && t_exny - t_eyx > 0);
 2089              		.loc 8 319 33 discriminator 6 view .LVU494
 2090 0320 74EEC54A 		vsub.f32	s9, s9, s10
 2091              	.LVL175:
 319:../../libdaisy/src/hid/disp/display.h ****                     d3 = (t_sxny - t_syx < 0 && t_exny - t_eyx > 0);
 2092              		.loc 8 319 45 discriminator 6 view .LVU495
 2093 0324 F5EEC04A 		vcmpe.f32	s9, #0
 2094 0328 F1EE10FA 		vmrs	APSR_nzcv, FPSCR
 2095 032c 6CD4     		bmi	.L182
 319:../../libdaisy/src/hid/disp/display.h ****                     d3 = (t_sxny - t_syx < 0 && t_exny - t_eyx > 0);
 2096              		.loc 8 319 45 view .LVU496
 2097 032e 0021     		movs	r1, #0
 2098              	.LVL176:
 2099              	.L121:
 320:../../libdaisy/src/hid/disp/display.h ****                     d4 = (t_sxny - t_synx < 0 && t_exny - t_eynx > 0);
 2100              		.loc 8 320 34 discriminator 6 view .LVU497
 2101 0330 35EEC55A 		vsub.f32	s10, s11, s10
 2102              	.LVL177:
 320:../../libdaisy/src/hid/disp/display.h ****                     d4 = (t_sxny - t_synx < 0 && t_exny - t_eynx > 0);
 2103              		.loc 8 320 46 discriminator 6 view .LVU498
 2104 0334 B5EEC05A 		vcmpe.f32	s10, #0
 2105 0338 F1EE10FA 		vmrs	APSR_nzcv, FPSCR
 2106 033c 5AD4     		bmi	.L183
 320:../../libdaisy/src/hid/disp/display.h ****                     d4 = (t_sxny - t_synx < 0 && t_exny - t_eynx > 0);
 2107              		.loc 8 320 46 view .LVU499
 2108 033e 0027     		movs	r7, #0
 2109              	.LVL178:
 2110              	.L123:
 321:../../libdaisy/src/hid/disp/display.h ****                 }
 2111              		.loc 8 321 34 discriminator 6 view .LVU500
 2112 0340 75EEC45A 		vsub.f32	s11, s11, s8
 2113              	.LVL179:
 321:../../libdaisy/src/hid/disp/display.h ****                 }
 2114              		.loc 8 321 47 discriminator 6 view .LVU501
 2115 0344 F5EEC05A 		vcmpe.f32	s11, #0
 2116 0348 F1EE10FA 		vmrs	APSR_nzcv, FPSCR
 2117 034c 3FF529AF 		bmi	.L174
 321:../../libdaisy/src/hid/disp/display.h ****                 }
 2118              		.loc 8 321 47 view .LVU502
 2119 0350 0024     		movs	r4, #0
 2120              	.LVL180:
 325:../../libdaisy/src/hid/disp/display.h ****                 ((ChildType*)(this))
 2121              		.loc 8 325 13 view .LVU503
 2122 0352 002A     		cmp	r2, #0
 2123 0354 3FF431AF 		beq	.L126
 2124 0358 B9E7     		b	.L175
 2125              	.LVL181:
 2126              	.L179:
 343:../../libdaisy/src/hid/disp/display.h ****                 {
 2127              		.loc 8 343 32 discriminator 1 view .LVU504
 2128 035a 9842     		cmp	r0, r3
 2129 035c 8FDB     		blt	.L135
ARM GAS  C:\Users\VINCIU~1\AppData\Local\Temp\ccI83ocg.s 			page 71


 345:../../libdaisy/src/hid/disp/display.h ****                 }
 2130              		.loc 8 345 24 view .LVU505
 2131 035e 0023     		movs	r3, #0
 2132              	.LVL182:
 345:../../libdaisy/src/hid/disp/display.h ****                 }
 2133              		.loc 8 345 24 view .LVU506
 2134 0360 3BE7     		b	.L134
 2135              	.L187:
 2136 0362 00BFAFF3 		.align	3
 2136      0080
 2137              	.L186:
 2138 0368 7A008BFC 		.word	-57999238
 2139 036c FA210940 		.word	1074340346
 2140 0370 00000000 		.word	0
 2141 0374 00806640 		.word	1080459264
 2142              	.LVL183:
 2143              	.L131:
 2144              	.LBB419:
 2145              	.LBB394:
 2146              	.LBB393:
 2147              	.LBB391:
 2148              	.LBI391:
 239:../../libdaisy/src/dev/oled_ssd130x.h ****     {
 2149              		.loc 9 239 10 is_stmt 1 view .LVU507
 2150              	.LBB392:
 246:../../libdaisy/src/dev/oled_ssd130x.h ****     }
 2151              		.loc 9 246 42 is_stmt 0 view .LVU508
 2152 0378 C244     		add	r10, r10, r8
 2153              	.LVL184:
 246:../../libdaisy/src/dev/oled_ssd130x.h ****     }
 2154              		.loc 9 246 49 view .LVU509
 2155 037a 4FF0010B 		mov	fp, #1
 2156              	.LVL185:
 246:../../libdaisy/src/dev/oled_ssd130x.h ****     }
 2157              		.loc 9 246 55 view .LVU510
 2158 037e 0EF0070E 		and	lr, lr, #7
 2159              	.LVL186:
 246:../../libdaisy/src/dev/oled_ssd130x.h ****     }
 2160              		.loc 9 246 49 view .LVU511
 2161 0382 0BFA0EFE 		lsl	lr, fp, lr
 246:../../libdaisy/src/dev/oled_ssd130x.h ****     }
 2162              		.loc 9 246 42 view .LVU512
 2163 0386 9AF814B0 		ldrb	fp, [r10, #20]	@ zero_extendqisi2
 2164 038a 2BEA0E0E 		bic	lr, fp, lr
 2165 038e 8AF814E0 		strb	lr, [r10, #20]
 2166              	.LVL187:
 246:../../libdaisy/src/dev/oled_ssd130x.h ****     }
 2167              		.loc 9 246 42 view .LVU513
 2168 0392 15E7     		b	.L130
 2169              	.LVL188:
 2170              	.L129:
 246:../../libdaisy/src/dev/oled_ssd130x.h ****     }
 2171              		.loc 9 246 42 view .LVU514
 2172              	.LBE392:
 2173              	.LBE391:
 2174              	.LBE393:
 2175              	.LBE394:
ARM GAS  C:\Users\VINCIU~1\AppData\Local\Temp\ccI83ocg.s 			page 72


 2176              	.LBE419:
 2177              	.LBB420:
 2178              	.LBB411:
 2179              	.LBB410:
 2180              	.LBB408:
 2181              	.LBI408:
 239:../../libdaisy/src/dev/oled_ssd130x.h ****     {
 2182              		.loc 9 239 10 is_stmt 1 view .LVU515
 2183              	.LBB409:
 246:../../libdaisy/src/dev/oled_ssd130x.h ****     }
 2184              		.loc 9 246 42 is_stmt 0 view .LVU516
 2185 0394 C244     		add	r10, r10, r8
 2186              	.LVL189:
 246:../../libdaisy/src/dev/oled_ssd130x.h ****     }
 2187              		.loc 9 246 49 view .LVU517
 2188 0396 4FF0010B 		mov	fp, #1
 2189              	.LVL190:
 246:../../libdaisy/src/dev/oled_ssd130x.h ****     }
 2190              		.loc 9 246 55 view .LVU518
 2191 039a 0EF0070E 		and	lr, lr, #7
 2192              	.LVL191:
 246:../../libdaisy/src/dev/oled_ssd130x.h ****     }
 2193              		.loc 9 246 49 view .LVU519
 2194 039e 0BFA0EFE 		lsl	lr, fp, lr
 246:../../libdaisy/src/dev/oled_ssd130x.h ****     }
 2195              		.loc 9 246 42 view .LVU520
 2196 03a2 9AF814B0 		ldrb	fp, [r10, #20]	@ zero_extendqisi2
 2197 03a6 2BEA0E0E 		bic	lr, fp, lr
 2198 03aa 8AF814E0 		strb	lr, [r10, #20]
 2199              	.LVL192:
 246:../../libdaisy/src/dev/oled_ssd130x.h ****     }
 2200              		.loc 9 246 42 view .LVU521
 2201              	.LBE409:
 2202              	.LBE408:
 2203              	.LBE410:
 2204              	.LBE411:
 2205              	.LBE420:
 331:../../libdaisy/src/hid/disp/display.h ****                 ((ChildType*)(this))
 2206              		.loc 8 331 13 view .LVU522
 2207 03ae 002F     		cmp	r7, #0
 2208 03b0 3FF406AF 		beq	.L130
 2209 03b4 1CE7     		b	.L177
 2210              	.LVL193:
 2211              	.L133:
 2212              	.LBB421:
 2213              	.LBB403:
 2214              	.LBB401:
 2215              	.LBB398:
 2216              	.LBI398:
 239:../../libdaisy/src/dev/oled_ssd130x.h ****     {
 2217              		.loc 9 239 10 is_stmt 1 view .LVU523
 2218              	.LBB399:
 246:../../libdaisy/src/dev/oled_ssd130x.h ****     }
 2219              		.loc 9 246 42 is_stmt 0 view .LVU524
 2220 03b6 C244     		add	r10, r10, r8
 2221              	.LVL194:
 246:../../libdaisy/src/dev/oled_ssd130x.h ****     }
ARM GAS  C:\Users\VINCIU~1\AppData\Local\Temp\ccI83ocg.s 			page 73


 2222              		.loc 9 246 49 view .LVU525
 2223 03b8 4FF0010B 		mov	fp, #1
 2224              	.LVL195:
 246:../../libdaisy/src/dev/oled_ssd130x.h ****     }
 2225              		.loc 9 246 55 view .LVU526
 2226 03bc 0EF0070E 		and	lr, lr, #7
 2227              	.LVL196:
 246:../../libdaisy/src/dev/oled_ssd130x.h ****     }
 2228              		.loc 9 246 49 view .LVU527
 2229 03c0 0BFA0EFE 		lsl	lr, fp, lr
 246:../../libdaisy/src/dev/oled_ssd130x.h ****     }
 2230              		.loc 9 246 42 view .LVU528
 2231 03c4 9AF814B0 		ldrb	fp, [r10, #20]	@ zero_extendqisi2
 2232 03c8 2BEA0E0E 		bic	lr, fp, lr
 2233 03cc 8AF814E0 		strb	lr, [r10, #20]
 2234              	.LVL197:
 246:../../libdaisy/src/dev/oled_ssd130x.h ****     }
 2235              		.loc 9 246 42 view .LVU529
 2236 03d0 F7E6     		b	.L132
 2237              	.LVL198:
 2238              	.L127:
 246:../../libdaisy/src/dev/oled_ssd130x.h ****     }
 2239              		.loc 9 246 42 view .LVU530
 2240              	.LBE399:
 2241              	.LBE398:
 2242              	.LBE401:
 2243              	.LBE403:
 2244              	.LBE421:
 2245              	.LBB422:
 2246              	.LBB418:
 2247              	.LBB417:
 2248              	.LBB415:
 2249              	.LBI415:
 239:../../libdaisy/src/dev/oled_ssd130x.h ****     {
 2250              		.loc 9 239 10 is_stmt 1 view .LVU531
 2251              	.LBB416:
 246:../../libdaisy/src/dev/oled_ssd130x.h ****     }
 2252              		.loc 9 246 42 is_stmt 0 view .LVU532
 2253 03d2 C244     		add	r10, r10, r8
 2254              	.LVL199:
 246:../../libdaisy/src/dev/oled_ssd130x.h ****     }
 2255              		.loc 9 246 49 view .LVU533
 2256 03d4 4FF0010B 		mov	fp, #1
 2257              	.LVL200:
 246:../../libdaisy/src/dev/oled_ssd130x.h ****     }
 2258              		.loc 9 246 55 view .LVU534
 2259 03d8 0EF0070E 		and	lr, lr, #7
 2260              	.LVL201:
 246:../../libdaisy/src/dev/oled_ssd130x.h ****     }
 2261              		.loc 9 246 49 view .LVU535
 2262 03dc 0BFA0EFE 		lsl	lr, fp, lr
 246:../../libdaisy/src/dev/oled_ssd130x.h ****     }
 2263              		.loc 9 246 42 view .LVU536
 2264 03e0 9AF814B0 		ldrb	fp, [r10, #20]	@ zero_extendqisi2
 2265 03e4 2BEA0E0E 		bic	lr, fp, lr
 2266 03e8 8AF814E0 		strb	lr, [r10, #20]
 2267              	.LVL202:
ARM GAS  C:\Users\VINCIU~1\AppData\Local\Temp\ccI83ocg.s 			page 74


 246:../../libdaisy/src/dev/oled_ssd130x.h ****     }
 2268              		.loc 9 246 42 view .LVU537
 2269              	.LBE416:
 2270              	.LBE415:
 2271              	.LBE417:
 2272              	.LBE418:
 2273              	.LBE422:
 328:../../libdaisy/src/hid/disp/display.h ****                 ((ChildType*)(this))
 2274              		.loc 8 328 13 view .LVU538
 2275 03ec 0029     		cmp	r1, #0
 2276 03ee 3FF4E6AE 		beq	.L128
 2277 03f2 49E7     		b	.L176
 2278              	.LVL203:
 2279              	.L183:
 320:../../libdaisy/src/hid/disp/display.h ****                     d4 = (t_sxny - t_synx < 0 && t_exny - t_eynx > 0);
 2280              		.loc 8 320 56 discriminator 1 view .LVU539
 2281 03f4 77EEE66A 		vsub.f32	s13, s15, s13
 2282              	.LVL204:
 320:../../libdaisy/src/hid/disp/display.h ****                     d4 = (t_sxny - t_synx < 0 && t_exny - t_eynx > 0);
 2283              		.loc 8 320 46 discriminator 1 view .LVU540
 2284 03f8 F5EEC06A 		vcmpe.f32	s13, #0
 2285 03fc F1EE10FA 		vmrs	APSR_nzcv, FPSCR
 2286 0400 CCBF     		ite	gt
 2287 0402 0127     		movgt	r7, #1
 2288              	.LVL205:
 320:../../libdaisy/src/hid/disp/display.h ****                     d4 = (t_sxny - t_synx < 0 && t_exny - t_eynx > 0);
 2289              		.loc 8 320 46 discriminator 1 view .LVU541
 2290 0404 0027     		movle	r7, #0
 2291 0406 9BE7     		b	.L123
 2292              	.LVL206:
 2293              	.L182:
 319:../../libdaisy/src/hid/disp/display.h ****                     d3 = (t_sxny - t_syx < 0 && t_exny - t_eyx > 0);
 2294              		.loc 8 319 54 discriminator 1 view .LVU542
 2295 0408 36EE666A 		vsub.f32	s12, s12, s13
 2296              	.LVL207:
 319:../../libdaisy/src/hid/disp/display.h ****                     d3 = (t_sxny - t_syx < 0 && t_exny - t_eyx > 0);
 2297              		.loc 8 319 45 discriminator 1 view .LVU543
 2298 040c B5EEC06A 		vcmpe.f32	s12, #0
 2299 0410 F1EE10FA 		vmrs	APSR_nzcv, FPSCR
 2300 0414 CCBF     		ite	gt
 2301 0416 0121     		movgt	r1, #1
 2302 0418 0021     		movle	r1, #0
 2303 041a 89E7     		b	.L121
 2304              	.LVL208:
 2305              	.L181:
 318:../../libdaisy/src/hid/disp/display.h ****                     d2 = (t_sxy - t_syx < 0 && t_exy - t_eyx > 0);
 2306              		.loc 8 318 55 discriminator 1 view .LVU544
 2307 041c 76EE473A 		vsub.f32	s7, s12, s14
 318:../../libdaisy/src/hid/disp/display.h ****                     d2 = (t_sxy - t_syx < 0 && t_exy - t_eyx > 0);
 2308              		.loc 8 318 46 discriminator 1 view .LVU545
 2309 0420 F5EEC03A 		vcmpe.f32	s7, #0
 2310 0424 F1EE10FA 		vmrs	APSR_nzcv, FPSCR
 2311 0428 CCBF     		ite	gt
 2312 042a 0122     		movgt	r2, #1
 2313 042c 0022     		movle	r2, #0
 2314 042e 77E7     		b	.L119
 2315              	.LVL209:
ARM GAS  C:\Users\VINCIU~1\AppData\Local\Temp\ccI83ocg.s 			page 75


 2316              	.L144:
 314:../../libdaisy/src/hid/disp/display.h ****                 }
 2317              		.loc 8 314 47 view .LVU546
 2318 0430 0124     		movs	r4, #1
 2319              	.LVL210:
 325:../../libdaisy/src/hid/disp/display.h ****                 ((ChildType*)(this))
 2320              		.loc 8 325 13 view .LVU547
 2321 0432 002A     		cmp	r2, #0
 2322 0434 3FF4C1AE 		beq	.L126
 325:../../libdaisy/src/hid/disp/display.h ****                 ((ChildType*)(this))
 2323              		.loc 8 325 13 view .LVU548
 2324 0438 49E7     		b	.L175
 2325              	.LVL211:
 2326              	.L141:
 312:../../libdaisy/src/hid/disp/display.h ****                     d3 = (t_sxny - t_syx < 0 || t_exny - t_eyx > 0);
 2327              		.loc 8 312 33 view .LVU549
 2328 043a 74EEC54A 		vsub.f32	s9, s9, s10
 2329              	.LVL212:
 311:../../libdaisy/src/hid/disp/display.h ****                     d2 = (t_sxy - t_syx < 0 || t_exy - t_eyx > 0);
 2330              		.loc 8 311 46 view .LVU550
 2331 043e 0122     		movs	r2, #1
 2332              	.LVL213:
 312:../../libdaisy/src/hid/disp/display.h ****                     d3 = (t_sxny - t_syx < 0 || t_exny - t_eyx > 0);
 2333              		.loc 8 312 45 view .LVU551
 2334 0440 F5EEC04A 		vcmpe.f32	s9, #0
 2335 0444 F1EE10FA 		vmrs	APSR_nzcv, FPSCR
 2336 0448 7FF589AE 		bpl	.L184
 2337              	.L142:
 313:../../libdaisy/src/hid/disp/display.h ****                     d4 = (t_sxny - t_synx < 0 || t_exny - t_eynx > 0);
 2338              		.loc 8 313 34 view .LVU552
 2339 044c 35EEC55A 		vsub.f32	s10, s11, s10
 2340              	.LVL214:
 312:../../libdaisy/src/hid/disp/display.h ****                     d3 = (t_sxny - t_syx < 0 || t_exny - t_eyx > 0);
 2341              		.loc 8 312 45 view .LVU553
 2342 0450 0121     		movs	r1, #1
 2343              	.LVL215:
 313:../../libdaisy/src/hid/disp/display.h ****                     d4 = (t_sxny - t_synx < 0 || t_exny - t_eynx > 0);
 2344              		.loc 8 313 46 view .LVU554
 2345 0452 B5EEC05A 		vcmpe.f32	s10, #0
 2346 0456 F1EE10FA 		vmrs	APSR_nzcv, FPSCR
 2347 045a 7FF591AE 		bpl	.L185
 2348              	.LVL216:
 2349              	.L143:
 313:../../libdaisy/src/hid/disp/display.h ****                     d4 = (t_sxny - t_synx < 0 || t_exny - t_eynx > 0);
 2350              		.loc 8 313 46 view .LVU555
 2351 045e 0127     		movs	r7, #1
 2352              	.LVL217:
 313:../../libdaisy/src/hid/disp/display.h ****                     d4 = (t_sxny - t_synx < 0 || t_exny - t_eynx > 0);
 2353              		.loc 8 313 46 view .LVU556
 2354 0460 97E6     		b	.L118
 2355              	.LVL218:
 2356              	.L110:
 268:../../libdaisy/src/hid/disp/display.h ****             sweep = -sweep;
 2357              		.loc 8 268 25 view .LVU557
 2358 0462 DDE91223 		ldrd	r2, r3, [sp, #72]
 2359              	.LVL219:
 268:../../libdaisy/src/hid/disp/display.h ****             sweep = -sweep;
ARM GAS  C:\Users\VINCIU~1\AppData\Local\Temp\ccI83ocg.s 			page 76


 2360              		.loc 8 268 25 view .LVU558
 2361 0466 1344     		add	r3, r3, r2
 2362              	.LVL220:
 268:../../libdaisy/src/hid/disp/display.h ****             sweep = -sweep;
 2363              		.loc 8 268 25 view .LVU559
 2364 0468 06EE102A 		vmov	s12, r2	@ int
 2365 046c 1293     		str	r3, [sp, #72]
 2366 046e 139B     		ldr	r3, [sp, #76]
 2367              	.LVL221:
 268:../../libdaisy/src/hid/disp/display.h ****             sweep = -sweep;
 2368              		.loc 8 268 25 view .LVU560
 2369 0470 5B42     		rsbs	r3, r3, #0
 2370 0472 1393     		str	r3, [sp, #76]
 2371              	.LVL222:
 268:../../libdaisy/src/hid/disp/display.h ****             sweep = -sweep;
 2372              		.loc 8 268 25 view .LVU561
 2373 0474 D8E5     		b	.L111
 2374              		.cfi_endproc
 2375              	.LFE4607:
 2377 0476 00BF     		.section	.text._ZN5daisy25OneBitGraphicsDisplayImplINS_11OledDisplayINS_13SSD130xDriverILj128ELj64
 2378              		.align	1
 2379              		.p2align 2,,3
 2380              		.weak	_ZN5daisy25OneBitGraphicsDisplayImplINS_11OledDisplayINS_13SSD130xDriverILj128ELj64ENS_24SSD
 2381              		.syntax unified
 2382              		.thumb
 2383              		.thumb_func
 2384              		.fpu fpv5-d16
 2386              	_ZN5daisy25OneBitGraphicsDisplayImplINS_11OledDisplayINS_13SSD130xDriverILj128ELj64ENS_24SSD130x4Wi
 2387              	.LVL223:
 2388              	.LFB4606:
 217:../../libdaisy/src/hid/disp/display.h ****                   uint_fast8_t y1,
 2389              		.loc 8 217 10 is_stmt 1 view -0
 2390              		.cfi_startproc
 2391              		@ args = 12, pretend = 0, frame = 24
 2392              		@ frame_needed = 0, uses_anonymous_args = 0
 217:../../libdaisy/src/hid/disp/display.h ****                   uint_fast8_t y1,
 2393              		.loc 8 217 10 is_stmt 0 view .LVU563
 2394 0000 2DE9F04F 		push	{r4, r5, r6, r7, r8, r9, r10, fp, lr}
 2395              		.cfi_def_cfa_offset 36
 2396              		.cfi_offset 4, -36
 2397              		.cfi_offset 5, -32
 2398              		.cfi_offset 6, -28
 2399              		.cfi_offset 7, -24
 2400              		.cfi_offset 8, -20
 2401              		.cfi_offset 9, -16
 2402              		.cfi_offset 10, -12
 2403              		.cfi_offset 11, -8
 2404              		.cfi_offset 14, -4
 2405 0004 87B0     		sub	sp, sp, #28
 2406              		.cfi_def_cfa_offset 64
 217:../../libdaisy/src/hid/disp/display.h ****                   uint_fast8_t y1,
 2407              		.loc 8 217 10 view .LVU564
 2408 0006 9DF84850 		ldrb	r5, [sp, #72]	@ zero_extendqisi2
 2409 000a 109C     		ldr	r4, [sp, #64]
 2410 000c 2E46     		mov	r6, r5
 2411 000e 0195     		str	r5, [sp, #4]
 2412 0010 9DF84450 		ldrb	r5, [sp, #68]	@ zero_extendqisi2
ARM GAS  C:\Users\VINCIU~1\AppData\Local\Temp\ccI83ocg.s 			page 77


 2413              	.LBB492:
 224:../../libdaisy/src/hid/disp/display.h ****         {
 2414              		.loc 8 224 9 view .LVU565
 2415 0014 9EB3     		cbz	r6, .L189
 2416              	.LVL224:
 224:../../libdaisy/src/hid/disp/display.h ****         {
 2417              		.loc 8 224 9 view .LVU566
 2418              	.LBE492:
 2419              	.LBB614:
 2420              	.LBB615:
 226:../../libdaisy/src/hid/disp/display.h ****             {
 2421              		.loc 8 226 40 is_stmt 1 view .LVU567
 2422 0016 9942     		cmp	r1, r3
 2423 0018 2ED8     		bhi	.L188
 2424 001a 9946     		mov	r9, r3
 2425              	.LVL225:
 2426              	.L192:
 2427              	.LBB616:
 228:../../libdaisy/src/hid/disp/display.h ****                 {
 2428              		.loc 8 228 44 view .LVU568
 2429 001c A242     		cmp	r2, r4
 2430 001e 28D8     		bhi	.L195
 2431              	.LBB617:
 2432              	.LBB618:
 2433              	.LBB619:
 241:../../libdaisy/src/dev/oled_ssd130x.h ****             return;
 2434              		.loc 9 241 14 is_stmt 0 view .LVU569
 2435 0020 7F29     		cmp	r1, #127
 2436 0022 1646     		mov	r6, r2
 2437 0024 94BF     		ite	ls
 2438 0026 0023     		movls	r3, #0
 2439 0028 0123     		movhi	r3, #1
 2440 002a 08E0     		b	.L196
 2441              	.LVL226:
 2442              	.L279:
 244:../../libdaisy/src/dev/oled_ssd130x.h ****         else
 2443              		.loc 9 244 42 view .LVU570
 2444 002c 9CF81480 		ldrb	r8, [ip, #20]	@ zero_extendqisi2
 2445 0030 4EEA080E 		orr	lr, lr, r8
 2446 0034 8CF814E0 		strb	lr, [ip, #20]
 2447              	.LVL227:
 2448              	.L193:
 244:../../libdaisy/src/dev/oled_ssd130x.h ****         else
 2449              		.loc 9 244 42 view .LVU571
 2450              	.LBE619:
 2451              	.LBE618:
 2452              	.LBE617:
 228:../../libdaisy/src/hid/disp/display.h ****                 {
 2453              		.loc 8 228 17 is_stmt 1 view .LVU572
 2454 0038 0136     		adds	r6, r6, #1
 2455              	.LVL228:
 228:../../libdaisy/src/hid/disp/display.h ****                 {
 2456              		.loc 8 228 44 view .LVU573
 2457 003a B442     		cmp	r4, r6
 2458 003c 19D3     		bcc	.L195
 2459              	.L196:
 2460              	.LVL229:
ARM GAS  C:\Users\VINCIU~1\AppData\Local\Temp\ccI83ocg.s 			page 78


 2461              	.LBB633:
 2462              	.LBI617:
  41:../../libdaisy/src/hid/disp/oled_display.h ****     {
 2463              		.loc 7 41 10 view .LVU574
 2464              	.LBB630:
 2465              	.LBI618:
 239:../../libdaisy/src/dev/oled_ssd130x.h ****     {
 2466              		.loc 9 239 10 view .LVU575
 2467              	.LBB627:
 241:../../libdaisy/src/dev/oled_ssd130x.h ****             return;
 2468              		.loc 9 241 9 is_stmt 0 view .LVU576
 2469 003e 3F2E     		cmp	r6, #63
 2470 0040 FAD8     		bhi	.L193
 241:../../libdaisy/src/dev/oled_ssd130x.h ****             return;
 2471              		.loc 9 241 9 view .LVU577
 2472 0042 002B     		cmp	r3, #0
 2473 0044 F8D1     		bne	.L193
 2474              	.LVL230:
 2475              	.LBB620:
 2476              	.LBI620:
 239:../../libdaisy/src/dev/oled_ssd130x.h ****     {
 2477              		.loc 9 239 10 is_stmt 1 view .LVU578
 239:../../libdaisy/src/dev/oled_ssd130x.h ****     {
 2478              		.loc 9 239 10 is_stmt 0 view .LVU579
 2479              	.LBE620:
 244:../../libdaisy/src/dev/oled_ssd130x.h ****         else
 2480              		.loc 9 244 28 view .LVU580
 2481 0046 4FEAD60C 		lsr	ip, r6, #3
 244:../../libdaisy/src/dev/oled_ssd130x.h ****         else
 2482              		.loc 9 244 54 view .LVU581
 2483 004a 06F0070E 		and	lr, r6, #7
 244:../../libdaisy/src/dev/oled_ssd130x.h ****         else
 2484              		.loc 9 244 48 view .LVU582
 2485 004e 4FF00108 		mov	r8, #1
 244:../../libdaisy/src/dev/oled_ssd130x.h ****         else
 2486              		.loc 9 244 42 view .LVU583
 2487 0052 01EBCC1C 		add	ip, r1, ip, lsl #7
 244:../../libdaisy/src/dev/oled_ssd130x.h ****         else
 2488              		.loc 9 244 48 view .LVU584
 2489 0056 08FA0EFE 		lsl	lr, r8, lr
 244:../../libdaisy/src/dev/oled_ssd130x.h ****         else
 2490              		.loc 9 244 42 view .LVU585
 2491 005a 8444     		add	ip, ip, r0
 243:../../libdaisy/src/dev/oled_ssd130x.h ****             buffer_[x + (y / 8) * width] |= (1 << (y % 8));
 2492              		.loc 9 243 9 view .LVU586
 2493 005c 002D     		cmp	r5, #0
 2494 005e E5D1     		bne	.L279
 2495              	.LBB624:
 2496              	.LBB621:
 246:../../libdaisy/src/dev/oled_ssd130x.h ****     }
 2497              		.loc 9 246 42 view .LVU587
 2498 0060 9CF814B0 		ldrb	fp, [ip, #20]	@ zero_extendqisi2
 2499              	.LBE621:
 2500              	.LBE624:
 2501              	.LBE627:
 2502              	.LBE630:
 2503              	.LBE633:
ARM GAS  C:\Users\VINCIU~1\AppData\Local\Temp\ccI83ocg.s 			page 79


 228:../../libdaisy/src/hid/disp/display.h ****                 {
 2504              		.loc 8 228 17 view .LVU588
 2505 0064 0136     		adds	r6, r6, #1
 2506              	.LVL231:
 2507              	.LBB634:
 2508              	.LBB631:
 2509              	.LBB628:
 2510              	.LBB625:
 2511              	.LBB622:
 246:../../libdaisy/src/dev/oled_ssd130x.h ****     }
 2512              		.loc 9 246 42 view .LVU589
 2513 0066 2BEA0E0A 		bic	r10, fp, lr
 2514              	.LBE622:
 2515              	.LBE625:
 2516              	.LBE628:
 2517              	.LBE631:
 2518              	.LBE634:
 228:../../libdaisy/src/hid/disp/display.h ****                 {
 2519              		.loc 8 228 44 view .LVU590
 2520 006a B442     		cmp	r4, r6
 2521              	.LBB635:
 2522              	.LBB632:
 2523              	.LBB629:
 2524              	.LBB626:
 2525              	.LBB623:
 246:../../libdaisy/src/dev/oled_ssd130x.h ****     }
 2526              		.loc 9 246 42 view .LVU591
 2527 006c 8CF814A0 		strb	r10, [ip, #20]
 2528              	.LVL232:
 246:../../libdaisy/src/dev/oled_ssd130x.h ****     }
 2529              		.loc 9 246 42 view .LVU592
 2530              	.LBE623:
 2531              	.LBE626:
 2532              	.LBE629:
 2533              	.LBE632:
 2534              	.LBE635:
 228:../../libdaisy/src/hid/disp/display.h ****                 {
 2535              		.loc 8 228 17 is_stmt 1 view .LVU593
 228:../../libdaisy/src/hid/disp/display.h ****                 {
 2536              		.loc 8 228 44 view .LVU594
 2537 0070 E5D2     		bcs	.L196
 2538              	.LVL233:
 2539              	.L195:
 228:../../libdaisy/src/hid/disp/display.h ****                 {
 2540              		.loc 8 228 44 is_stmt 0 view .LVU595
 2541              	.LBE616:
 226:../../libdaisy/src/hid/disp/display.h ****             {
 2542              		.loc 8 226 13 is_stmt 1 view .LVU596
 2543 0072 0131     		adds	r1, r1, #1
 2544              	.LVL234:
 226:../../libdaisy/src/hid/disp/display.h ****             {
 2545              		.loc 8 226 40 view .LVU597
 2546 0074 8945     		cmp	r9, r1
 2547 0076 D1D2     		bcs	.L192
 2548              	.LVL235:
 2549              	.L188:
 226:../../libdaisy/src/hid/disp/display.h ****             {
ARM GAS  C:\Users\VINCIU~1\AppData\Local\Temp\ccI83ocg.s 			page 80


 2550              		.loc 8 226 40 is_stmt 0 view .LVU598
 2551              	.LBE615:
 2552              	.LBE614:
 241:../../libdaisy/src/hid/disp/display.h **** 
 2553              		.loc 8 241 5 view .LVU599
 2554 0078 07B0     		add	sp, sp, #28
 2555              		.cfi_remember_state
 2556              		.cfi_def_cfa_offset 36
 2557              		@ sp needed
 2558 007a BDE8F08F 		pop	{r4, r5, r6, r7, r8, r9, r10, fp, pc}
 2559              	.LVL236:
 2560              	.L189:
 2561              		.cfi_restore_state
 2562              	.LBB636:
 2563              	.LBB493:
 2564              	.LBI493:
 181:../../libdaisy/src/hid/disp/display.h ****                   uint_fast8_t y1,
 2565              		.loc 8 181 10 is_stmt 1 view .LVU600
 2566              	.LBB494:
 187:../../libdaisy/src/hid/disp/display.h ****         int_fast16_t deltaY = abs((int_fast16_t)y2 - (int_fast16_t)y1);
 2567              		.loc 8 187 52 is_stmt 0 view .LVU601
 2568 007e A3EB0108 		sub	r8, r3, r1
 187:../../libdaisy/src/hid/disp/display.h ****         int_fast16_t deltaY = abs((int_fast16_t)y2 - (int_fast16_t)y1);
 2569              		.loc 8 187 22 view .LVU602
 2570 0082 B8F1000F 		cmp	r8, #0
 2571 0086 B8BF     		it	lt
 2572 0088 C8F10008 		rsblt	r8, r8, #0
 2573              	.LVL237:
 189:../../libdaisy/src/hid/disp/display.h ****         int_fast16_t signY  = ((y1 < y2) ? 1 : -1);
 2574              		.loc 8 189 42 view .LVU603
 2575 008c 9942     		cmp	r1, r3
 2576 008e C0F04E81 		bcc	.L197
 2577              	.LVL238:
 2578              	.LBB495:
 2579              	.LBI495:
  41:../../libdaisy/src/hid/disp/oled_display.h ****     {
 2580              		.loc 7 41 10 is_stmt 1 view .LVU604
 2581              	.LBB496:
 2582              	.LBI496:
 239:../../libdaisy/src/dev/oled_ssd130x.h ****     {
 2583              		.loc 9 239 10 view .LVU605
 2584              	.LBB497:
 241:../../libdaisy/src/dev/oled_ssd130x.h ****             return;
 2585              		.loc 9 241 14 is_stmt 0 view .LVU606
 2586 0092 7F2B     		cmp	r3, #127
 2587              	.LBE497:
 2588              	.LBE496:
 2589              	.LBE495:
 189:../../libdaisy/src/hid/disp/display.h ****         int_fast16_t signY  = ((y1 < y2) ? 1 : -1);
 2590              		.loc 8 189 42 view .LVU607
 2591 0094 4FF0FF3A 		mov	r10, #-1
 2592              	.LBB508:
 2593              	.LBB504:
 2594              	.LBB500:
 241:../../libdaisy/src/dev/oled_ssd130x.h ****             return;
 2595              		.loc 9 241 14 view .LVU608
 2596 0098 94BF     		ite	ls
ARM GAS  C:\Users\VINCIU~1\AppData\Local\Temp\ccI83ocg.s 			page 81


 2597 009a 0026     		movls	r6, #0
 2598 009c 0126     		movhi	r6, #1
 241:../../libdaisy/src/dev/oled_ssd130x.h ****             return;
 2599              		.loc 9 241 28 view .LVU609
 2600 009e 3F2A     		cmp	r2, #63
 241:../../libdaisy/src/dev/oled_ssd130x.h ****             return;
 2601              		.loc 9 241 14 view .LVU610
 2602 00a0 0096     		str	r6, [sp]
 241:../../libdaisy/src/dev/oled_ssd130x.h ****             return;
 2603              		.loc 9 241 28 view .LVU611
 2604 00a2 94BF     		ite	ls
 2605 00a4 0027     		movls	r7, #0
 2606 00a6 0127     		movhi	r7, #1
 2607 00a8 0297     		str	r7, [sp, #8]
 241:../../libdaisy/src/dev/oled_ssd130x.h ****             return;
 2608              		.loc 9 241 9 view .LVU612
 2609 00aa A6B9     		cbnz	r6, .L198
 2610 00ac 9FB9     		cbnz	r7, .L198
 2611              	.LVL239:
 2612              	.L239:
 244:../../libdaisy/src/dev/oled_ssd130x.h ****         else
 2613              		.loc 9 244 28 view .LVU613
 2614 00ae D608     		lsrs	r6, r2, #3
 244:../../libdaisy/src/dev/oled_ssd130x.h ****         else
 2615              		.loc 9 244 54 view .LVU614
 2616 00b0 02F0070C 		and	ip, r2, #7
 244:../../libdaisy/src/dev/oled_ssd130x.h ****         else
 2617              		.loc 9 244 48 view .LVU615
 2618 00b4 0127     		movs	r7, #1
 244:../../libdaisy/src/dev/oled_ssd130x.h ****         else
 2619              		.loc 9 244 42 view .LVU616
 2620 00b6 03EBC616 		add	r6, r3, r6, lsl #7
 2621 00ba 0644     		add	r6, r6, r0
 243:../../libdaisy/src/dev/oled_ssd130x.h ****             buffer_[x + (y / 8) * width] |= (1 << (y % 8));
 2622              		.loc 9 243 9 view .LVU617
 2623 00bc 002D     		cmp	r5, #0
 2624 00be 00F09481 		beq	.L199
 244:../../libdaisy/src/dev/oled_ssd130x.h ****         else
 2625              		.loc 9 244 48 view .LVU618
 2626 00c2 07FA0CF7 		lsl	r7, r7, ip
 244:../../libdaisy/src/dev/oled_ssd130x.h ****         else
 2627              		.loc 9 244 42 view .LVU619
 2628 00c6 96F814C0 		ldrb	ip, [r6, #20]	@ zero_extendqisi2
 2629 00ca 47EA0C07 		orr	r7, r7, ip
 2630 00ce 3775     		strb	r7, [r6, #20]
 2631 00d0 0026     		movs	r6, #0
 2632 00d2 0296     		str	r6, [sp, #8]
 2633 00d4 0096     		str	r6, [sp]
 2634              	.L198:
 2635              	.LVL240:
 244:../../libdaisy/src/dev/oled_ssd130x.h ****         else
 2636              		.loc 9 244 42 view .LVU620
 2637              	.LBE500:
 2638              	.LBE504:
 2639              	.LBE508:
 199:../../libdaisy/src/hid/disp/display.h ****         {
 2640              		.loc 8 199 26 is_stmt 1 view .LVU621
ARM GAS  C:\Users\VINCIU~1\AppData\Local\Temp\ccI83ocg.s 			page 82


 2641 00d6 9942     		cmp	r1, r3
 2642 00d8 00F09781 		beq	.L280
 2643              	.L201:
 2644              	.LVL241:
 187:../../libdaisy/src/hid/disp/display.h ****         int_fast16_t deltaY = abs((int_fast16_t)y2 - (int_fast16_t)y1);
 2645              		.loc 8 187 22 is_stmt 0 view .LVU622
 2646 00dc 4646     		mov	r6, r8
 2647 00de 9446     		mov	ip, r2
 2648 00e0 8E46     		mov	lr, r1
 2649              	.LVL242:
 2650              	.L203:
 2651              	.LBB509:
 2652              	.LBI509:
  41:../../libdaisy/src/hid/disp/oled_display.h ****     {
 2653              		.loc 7 41 10 is_stmt 1 view .LVU623
 2654              	.LBB510:
 2655              	.LBI510:
 239:../../libdaisy/src/dev/oled_ssd130x.h ****     {
 2656              		.loc 9 239 10 view .LVU624
 2657              	.LBB511:
 241:../../libdaisy/src/dev/oled_ssd130x.h ****             return;
 2658              		.loc 9 241 9 is_stmt 0 view .LVU625
 2659 00e2 BEF17F0F 		cmp	lr, #127
 2660 00e6 16D8     		bhi	.L204
 2661 00e8 BCF13F0F 		cmp	ip, #63
 2662 00ec 13D8     		bhi	.L204
 244:../../libdaisy/src/dev/oled_ssd130x.h ****         else
 2663              		.loc 9 244 28 view .LVU626
 2664 00ee 4FEADC07 		lsr	r7, ip, #3
 244:../../libdaisy/src/dev/oled_ssd130x.h ****         else
 2665              		.loc 9 244 54 view .LVU627
 2666 00f2 0CF0070B 		and	fp, ip, #7
 244:../../libdaisy/src/dev/oled_ssd130x.h ****         else
 2667              		.loc 9 244 48 view .LVU628
 2668 00f6 4FF00109 		mov	r9, #1
 244:../../libdaisy/src/dev/oled_ssd130x.h ****         else
 2669              		.loc 9 244 42 view .LVU629
 2670 00fa 0EEBC717 		add	r7, lr, r7, lsl #7
 2671 00fe 0744     		add	r7, r7, r0
 243:../../libdaisy/src/dev/oled_ssd130x.h ****             buffer_[x + (y / 8) * width] |= (1 << (y % 8));
 2672              		.loc 9 243 9 view .LVU630
 2673 0100 002D     		cmp	r5, #0
 2674 0102 00F03981 		beq	.L205
 244:../../libdaisy/src/dev/oled_ssd130x.h ****         else
 2675              		.loc 9 244 48 view .LVU631
 2676 0106 09FA0BF9 		lsl	r9, r9, fp
 244:../../libdaisy/src/dev/oled_ssd130x.h ****         else
 2677              		.loc 9 244 42 view .LVU632
 2678 010a 97F814B0 		ldrb	fp, [r7, #20]	@ zero_extendqisi2
 2679 010e 49EA0B09 		orr	r9, r9, fp
 2680 0112 87F81490 		strb	r9, [r7, #20]
 2681              	.L204:
 2682              	.LVL243:
 244:../../libdaisy/src/dev/oled_ssd130x.h ****         else
 2683              		.loc 9 244 42 view .LVU633
 2684              	.LBE511:
 2685              	.LBE510:
ARM GAS  C:\Users\VINCIU~1\AppData\Local\Temp\ccI83ocg.s 			page 83


 2686              	.LBE509:
 203:../../libdaisy/src/hid/disp/display.h ****             {
 2687              		.loc 8 203 13 view .LVU634
 2688 0116 7700     		lsls	r7, r6, #1
 2689              	.LVL244:
 206:../../libdaisy/src/hid/disp/display.h ****             }
 2690              		.loc 8 206 20 view .LVU635
 2691 0118 18BF     		it	ne
 2692 011a D644     		addne	lr, lr, r10
 2693              	.LVL245:
 209:../../libdaisy/src/hid/disp/display.h ****             {
 2694              		.loc 8 209 13 view .LVU636
 2695 011c B845     		cmp	r8, r7
 2696 011e 02DD     		ble	.L207
 211:../../libdaisy/src/hid/disp/display.h ****                 y1 += signY;
 2697              		.loc 8 211 23 view .LVU637
 2698 0120 4644     		add	r6, r6, r8
 2699              	.LVL246:
 212:../../libdaisy/src/hid/disp/display.h ****             }
 2700              		.loc 8 212 20 view .LVU638
 2701 0122 0CF1FF3C 		add	ip, ip, #-1
 2702              	.LVL247:
 2703              	.L207:
 199:../../libdaisy/src/hid/disp/display.h ****         {
 2704              		.loc 8 199 26 is_stmt 1 view .LVU639
 2705 0126 7345     		cmp	r3, lr
 2706 0128 DBD1     		bne	.L203
 199:../../libdaisy/src/hid/disp/display.h ****         {
 2707              		.loc 8 199 26 is_stmt 0 view .LVU640
 2708 012a 6245     		cmp	r2, ip
 2709 012c D9D1     		bne	.L203
 2710 012e 0026     		movs	r6, #0
 2711              	.LVL248:
 199:../../libdaisy/src/hid/disp/display.h ****         {
 2712              		.loc 8 199 26 view .LVU641
 2713 0130 0496     		str	r6, [sp, #16]
 2714              	.LVL249:
 2715              	.L200:
 199:../../libdaisy/src/hid/disp/display.h ****         {
 2716              		.loc 8 199 26 view .LVU642
 2717              	.LBE494:
 2718              	.LBE493:
 2719              	.LBB524:
 2720              	.LBI524:
 181:../../libdaisy/src/hid/disp/display.h ****                   uint_fast8_t y1,
 2721              		.loc 8 181 10 is_stmt 1 view .LVU643
 2722              	.LBB525:
 188:../../libdaisy/src/hid/disp/display.h ****         int_fast16_t signX  = ((x1 < x2) ? 1 : -1);
 2723              		.loc 8 188 52 is_stmt 0 view .LVU644
 2724 0132 A4EB0209 		sub	r9, r4, r2
 2725              	.LBB526:
 2726              	.LBB527:
 2727              	.LBB528:
 241:../../libdaisy/src/dev/oled_ssd130x.h ****             return;
 2728              		.loc 9 241 9 view .LVU645
 2729 0136 009F     		ldr	r7, [sp]
 2730              	.LBE528:
ARM GAS  C:\Users\VINCIU~1\AppData\Local\Temp\ccI83ocg.s 			page 84


 2731              	.LBE527:
 2732              	.LBE526:
 188:../../libdaisy/src/hid/disp/display.h ****         int_fast16_t signX  = ((x1 < x2) ? 1 : -1);
 2733              		.loc 8 188 22 view .LVU646
 2734 0138 B9F1000F 		cmp	r9, #0
 2735 013c B8BF     		it	lt
 2736 013e C9F10009 		rsblt	r9, r9, #0
 2737              	.LVL250:
 2738              	.LBB543:
 2739              	.LBB537:
 2740              	.LBB531:
 241:../../libdaisy/src/dev/oled_ssd130x.h ****             return;
 2741              		.loc 9 241 28 view .LVU647
 2742 0142 3F2C     		cmp	r4, #63
 2743 0144 94BF     		ite	ls
 2744 0146 0026     		movls	r6, #0
 2745 0148 0126     		movhi	r6, #1
 2746              	.LBE531:
 2747              	.LBE537:
 2748              	.LBE543:
 190:../../libdaisy/src/hid/disp/display.h ****         int_fast16_t error  = deltaX - deltaY;
 2749              		.loc 8 190 42 view .LVU648
 2750 014a A242     		cmp	r2, r4
 191:../../libdaisy/src/hid/disp/display.h ****         int_fast16_t error2;
 2751              		.loc 8 191 22 view .LVU649
 2752 014c C9F10008 		rsb	r8, r9, #0
 2753              	.LVL251:
 2754              	.LBB544:
 2755              	.LBI526:
  41:../../libdaisy/src/hid/disp/oled_display.h ****     {
 2756              		.loc 7 41 10 is_stmt 1 view .LVU650
 2757              	.LBB538:
 2758              	.LBI527:
 239:../../libdaisy/src/dev/oled_ssd130x.h ****     {
 2759              		.loc 9 239 10 view .LVU651
 2760              	.LBB532:
 241:../../libdaisy/src/dev/oled_ssd130x.h ****             return;
 2761              		.loc 9 241 28 is_stmt 0 view .LVU652
 2762 0150 0396     		str	r6, [sp, #12]
 2763              	.LBE532:
 2764              	.LBE538:
 2765              	.LBE544:
 190:../../libdaisy/src/hid/disp/display.h ****         int_fast16_t error  = deltaX - deltaY;
 2766              		.loc 8 190 42 view .LVU653
 2767 0152 C0F02381 		bcc	.L208
 2768              	.LVL252:
 2769              	.LBB545:
 2770              	.LBB539:
 2771              	.LBB533:
 241:../../libdaisy/src/dev/oled_ssd130x.h ****             return;
 2772              		.loc 9 241 9 view .LVU654
 2773 0156 002F     		cmp	r7, #0
 2774 0158 40F05081 		bne	.L243
 2775 015c 002E     		cmp	r6, #0
 2776 015e 40F04D81 		bne	.L243
 2777              	.LBE533:
 2778              	.LBE539:
ARM GAS  C:\Users\VINCIU~1\AppData\Local\Temp\ccI83ocg.s 			page 85


 2779              	.LBE545:
 190:../../libdaisy/src/hid/disp/display.h ****         int_fast16_t error  = deltaX - deltaY;
 2780              		.loc 8 190 42 view .LVU655
 2781 0162 4FF0FF36 		mov	r6, #-1
 2782 0166 0096     		str	r6, [sp]
 2783              	.LBB546:
 2784              	.LBB540:
 2785              	.LBB534:
 244:../../libdaisy/src/dev/oled_ssd130x.h ****         else
 2786              		.loc 9 244 28 view .LVU656
 2787 0168 E608     		lsrs	r6, r4, #3
 244:../../libdaisy/src/dev/oled_ssd130x.h ****         else
 2788              		.loc 9 244 42 view .LVU657
 2789 016a 03EBC616 		add	r6, r3, r6, lsl #7
 2790 016e 0644     		add	r6, r6, r0
 243:../../libdaisy/src/dev/oled_ssd130x.h ****             buffer_[x + (y / 8) * width] |= (1 << (y % 8));
 2791              		.loc 9 243 9 view .LVU658
 2792 0170 002D     		cmp	r5, #0
 2793 0172 00F01E81 		beq	.L210
 2794              	.LVL253:
 2795              	.L282:
 244:../../libdaisy/src/dev/oled_ssd130x.h ****         else
 2796              		.loc 9 244 48 view .LVU659
 2797 0176 4FF0010C 		mov	ip, #1
 244:../../libdaisy/src/dev/oled_ssd130x.h ****         else
 2798              		.loc 9 244 54 view .LVU660
 2799 017a 04F00707 		and	r7, r4, #7
 244:../../libdaisy/src/dev/oled_ssd130x.h ****         else
 2800              		.loc 9 244 48 view .LVU661
 2801 017e 0CFA07F7 		lsl	r7, ip, r7
 244:../../libdaisy/src/dev/oled_ssd130x.h ****         else
 2802              		.loc 9 244 42 view .LVU662
 2803 0182 96F814C0 		ldrb	ip, [r6, #20]	@ zero_extendqisi2
 2804 0186 47EA0C07 		orr	r7, r7, ip
 2805 018a 3775     		strb	r7, [r6, #20]
 2806 018c 0026     		movs	r6, #0
 2807 018e 0396     		str	r6, [sp, #12]
 2808              	.L209:
 2809              	.LVL254:
 244:../../libdaisy/src/dev/oled_ssd130x.h ****         else
 2810              		.loc 9 244 42 view .LVU663
 2811              	.LBE534:
 2812              	.LBE540:
 2813              	.LBE546:
 199:../../libdaisy/src/hid/disp/display.h ****         {
 2814              		.loc 8 199 26 is_stmt 1 view .LVU664
 2815 0190 A242     		cmp	r2, r4
 2816 0192 00F03D81 		beq	.L281
 2817              	.L212:
 2818              	.LVL255:
 190:../../libdaisy/src/hid/disp/display.h ****         int_fast16_t error  = deltaX - deltaY;
 2819              		.loc 8 190 42 is_stmt 0 view .LVU665
 2820 0196 C446     		mov	ip, r8
 2821 0198 1646     		mov	r6, r2
 2822 019a 1F46     		mov	r7, r3
 2823 019c 0592     		str	r2, [sp, #20]
 2824              	.LVL256:
ARM GAS  C:\Users\VINCIU~1\AppData\Local\Temp\ccI83ocg.s 			page 86


 2825              	.L214:
 2826              	.LBB547:
 2827              	.LBI547:
  41:../../libdaisy/src/hid/disp/oled_display.h ****     {
 2828              		.loc 7 41 10 is_stmt 1 view .LVU666
 2829              	.LBB548:
 2830              	.LBI548:
 239:../../libdaisy/src/dev/oled_ssd130x.h ****     {
 2831              		.loc 9 239 10 view .LVU667
 2832              	.LBB549:
 241:../../libdaisy/src/dev/oled_ssd130x.h ****             return;
 2833              		.loc 9 241 9 is_stmt 0 view .LVU668
 2834 019e 7F2F     		cmp	r7, #127
 2835 01a0 15D8     		bhi	.L215
 2836 01a2 3F2E     		cmp	r6, #63
 2837 01a4 13D8     		bhi	.L215
 244:../../libdaisy/src/dev/oled_ssd130x.h ****         else
 2838              		.loc 9 244 28 view .LVU669
 2839 01a6 4FEAD60E 		lsr	lr, r6, #3
 244:../../libdaisy/src/dev/oled_ssd130x.h ****         else
 2840              		.loc 9 244 54 view .LVU670
 2841 01aa 06F0070B 		and	fp, r6, #7
 244:../../libdaisy/src/dev/oled_ssd130x.h ****         else
 2842              		.loc 9 244 48 view .LVU671
 2843 01ae 4FF0010A 		mov	r10, #1
 244:../../libdaisy/src/dev/oled_ssd130x.h ****         else
 2844              		.loc 9 244 42 view .LVU672
 2845 01b2 07EBCE1E 		add	lr, r7, lr, lsl #7
 2846 01b6 8644     		add	lr, lr, r0
 243:../../libdaisy/src/dev/oled_ssd130x.h ****             buffer_[x + (y / 8) * width] |= (1 << (y % 8));
 2847              		.loc 9 243 9 view .LVU673
 2848 01b8 002D     		cmp	r5, #0
 2849 01ba 00F0E680 		beq	.L216
 244:../../libdaisy/src/dev/oled_ssd130x.h ****         else
 2850              		.loc 9 244 48 view .LVU674
 2851 01be 0AFA0BFA 		lsl	r10, r10, fp
 244:../../libdaisy/src/dev/oled_ssd130x.h ****         else
 2852              		.loc 9 244 42 view .LVU675
 2853 01c2 9EF814B0 		ldrb	fp, [lr, #20]	@ zero_extendqisi2
 2854 01c6 4AEA0B0A 		orr	r10, r10, fp
 2855 01ca 8EF814A0 		strb	r10, [lr, #20]
 2856              	.L215:
 2857              	.LVL257:
 244:../../libdaisy/src/dev/oled_ssd130x.h ****         else
 2858              		.loc 9 244 42 view .LVU676
 2859              	.LBE549:
 2860              	.LBE548:
 2861              	.LBE547:
 203:../../libdaisy/src/hid/disp/display.h ****             {
 2862              		.loc 8 203 13 view .LVU677
 2863 01ce B8EB4C0F 		cmp	r8, ip, lsl #1
 202:../../libdaisy/src/hid/disp/display.h ****             if(error2 > -deltaY)
 2864              		.loc 8 202 20 view .LVU678
 2865 01d2 4FEA4C0E 		lsl	lr, ip, #1
 2866              	.LVL258:
 203:../../libdaisy/src/hid/disp/display.h ****             {
 2867              		.loc 8 203 13 view .LVU679
ARM GAS  C:\Users\VINCIU~1\AppData\Local\Temp\ccI83ocg.s 			page 87


 2868 01d6 02DA     		bge	.L217
 205:../../libdaisy/src/hid/disp/display.h ****                 x1 += signX;
 2869              		.loc 8 205 23 view .LVU680
 2870 01d8 ACEB090C 		sub	ip, ip, r9
 2871              	.LVL259:
 206:../../libdaisy/src/hid/disp/display.h ****             }
 2872              		.loc 8 206 20 view .LVU681
 2873 01dc 013F     		subs	r7, r7, #1
 2874              	.LVL260:
 2875              	.L217:
 209:../../libdaisy/src/hid/disp/display.h ****             {
 2876              		.loc 8 209 13 view .LVU682
 2877 01de BEF1000F 		cmp	lr, #0
 2878 01e2 01D0     		beq	.L218
 212:../../libdaisy/src/hid/disp/display.h ****             }
 2879              		.loc 8 212 20 view .LVU683
 2880 01e4 009A     		ldr	r2, [sp]
 2881 01e6 1644     		add	r6, r6, r2
 2882              	.LVL261:
 2883              	.L218:
 199:../../libdaisy/src/hid/disp/display.h ****         {
 2884              		.loc 8 199 26 is_stmt 1 view .LVU684
 2885 01e8 BB42     		cmp	r3, r7
 2886 01ea D8D1     		bne	.L214
 199:../../libdaisy/src/hid/disp/display.h ****         {
 2887              		.loc 8 199 26 is_stmt 0 view .LVU685
 2888 01ec B442     		cmp	r4, r6
 2889 01ee D6D1     		bne	.L214
 2890 01f0 059A     		ldr	r2, [sp, #20]
 2891              	.LVL262:
 2892              	.L211:
 199:../../libdaisy/src/hid/disp/display.h ****         {
 2893              		.loc 8 199 26 view .LVU686
 2894              	.LBE525:
 2895              	.LBE524:
 2896              	.LBB560:
 2897              	.LBI560:
 181:../../libdaisy/src/hid/disp/display.h ****                   uint_fast8_t y1,
 2898              		.loc 8 181 10 is_stmt 1 view .LVU687
 2899              	.LBB561:
 187:../../libdaisy/src/hid/disp/display.h ****         int_fast16_t deltaY = abs((int_fast16_t)y2 - (int_fast16_t)y1);
 2900              		.loc 8 187 52 is_stmt 0 view .LVU688
 2901 01f2 A1EB030E 		sub	lr, r1, r3
 187:../../libdaisy/src/hid/disp/display.h ****         int_fast16_t deltaY = abs((int_fast16_t)y2 - (int_fast16_t)y1);
 2902              		.loc 8 187 22 view .LVU689
 2903 01f6 BEF1000F 		cmp	lr, #0
 2904 01fa B8BF     		it	lt
 2905 01fc CEF1000E 		rsblt	lr, lr, #0
 2906              	.LVL263:
 2907              	.LBB562:
 2908              	.LBB563:
 2909              	.LBB564:
 241:../../libdaisy/src/dev/oled_ssd130x.h ****             return;
 2910              		.loc 9 241 14 view .LVU690
 2911 0200 7F29     		cmp	r1, #127
 2912 0202 94BF     		ite	ls
 2913 0204 4FF0000A 		movls	r10, #0
ARM GAS  C:\Users\VINCIU~1\AppData\Local\Temp\ccI83ocg.s 			page 88


 2914 0208 4FF0010A 		movhi	r10, #1
 2915              	.LBE564:
 2916              	.LBE563:
 2917              	.LBE562:
 189:../../libdaisy/src/hid/disp/display.h ****         int_fast16_t signY  = ((y1 < y2) ? 1 : -1);
 2918              		.loc 8 189 42 view .LVU691
 2919 020c 9942     		cmp	r1, r3
 2920 020e 8CBF     		ite	hi
 2921 0210 4FF00109 		movhi	r9, #1
 2922 0214 4FF0FF39 		movls	r9, #-1
 2923              	.LVL264:
 2924              	.LBB571:
 2925              	.LBI562:
  41:../../libdaisy/src/hid/disp/oled_display.h ****     {
 2926              		.loc 7 41 10 is_stmt 1 view .LVU692
 2927              	.LBB569:
 2928              	.LBI563:
 239:../../libdaisy/src/dev/oled_ssd130x.h ****     {
 2929              		.loc 9 239 10 view .LVU693
 2930              	.LBB567:
 241:../../libdaisy/src/dev/oled_ssd130x.h ****             return;
 2931              		.loc 9 241 9 is_stmt 0 view .LVU694
 2932 0218 BAF1000F 		cmp	r10, #0
 2933 021c 13D1     		bne	.L220
 2934 021e 039E     		ldr	r6, [sp, #12]
 2935 0220 8EB9     		cbnz	r6, .L220
 244:../../libdaisy/src/dev/oled_ssd130x.h ****         else
 2936              		.loc 9 244 28 view .LVU695
 2937 0222 E608     		lsrs	r6, r4, #3
 244:../../libdaisy/src/dev/oled_ssd130x.h ****         else
 2938              		.loc 9 244 42 view .LVU696
 2939 0224 01EBC616 		add	r6, r1, r6, lsl #7
 2940 0228 0644     		add	r6, r6, r0
 243:../../libdaisy/src/dev/oled_ssd130x.h ****             buffer_[x + (y / 8) * width] |= (1 << (y % 8));
 2941              		.loc 9 243 9 view .LVU697
 2942 022a 002D     		cmp	r5, #0
 2943 022c 00F0D380 		beq	.L221
 244:../../libdaisy/src/dev/oled_ssd130x.h ****         else
 2944              		.loc 9 244 48 view .LVU698
 2945 0230 4FF0010C 		mov	ip, #1
 244:../../libdaisy/src/dev/oled_ssd130x.h ****         else
 2946              		.loc 9 244 54 view .LVU699
 2947 0234 04F00707 		and	r7, r4, #7
 244:../../libdaisy/src/dev/oled_ssd130x.h ****         else
 2948              		.loc 9 244 48 view .LVU700
 2949 0238 0CFA07F7 		lsl	r7, ip, r7
 244:../../libdaisy/src/dev/oled_ssd130x.h ****         else
 2950              		.loc 9 244 42 view .LVU701
 2951 023c 96F814C0 		ldrb	ip, [r6, #20]	@ zero_extendqisi2
 2952 0240 47EA0C07 		orr	r7, r7, ip
 2953 0244 3775     		strb	r7, [r6, #20]
 2954              	.L220:
 2955              	.LVL265:
 244:../../libdaisy/src/dev/oled_ssd130x.h ****         else
 2956              		.loc 9 244 42 view .LVU702
 2957              	.LBE567:
 2958              	.LBE569:
ARM GAS  C:\Users\VINCIU~1\AppData\Local\Temp\ccI83ocg.s 			page 89


 2959              	.LBE571:
 199:../../libdaisy/src/hid/disp/display.h ****         {
 2960              		.loc 8 199 26 is_stmt 1 view .LVU703
 2961 0246 049E     		ldr	r6, [sp, #16]
 2962 0248 26BB     		cbnz	r6, .L222
 187:../../libdaisy/src/hid/disp/display.h ****         int_fast16_t deltaY = abs((int_fast16_t)y2 - (int_fast16_t)y1);
 2963              		.loc 8 187 22 is_stmt 0 view .LVU704
 2964 024a 7746     		mov	r7, lr
 199:../../libdaisy/src/hid/disp/display.h ****         {
 2965              		.loc 8 199 26 view .LVU705
 2966 024c 2646     		mov	r6, r4
 2967              	.LVL266:
 2968              	.L223:
 2969              	.LBB572:
 2970              	.LBI572:
  41:../../libdaisy/src/hid/disp/oled_display.h ****     {
 2971              		.loc 7 41 10 is_stmt 1 view .LVU706
 2972              	.LBB573:
 2973              	.LBI573:
 239:../../libdaisy/src/dev/oled_ssd130x.h ****     {
 2974              		.loc 9 239 10 view .LVU707
 2975              	.LBB574:
 241:../../libdaisy/src/dev/oled_ssd130x.h ****             return;
 2976              		.loc 9 241 9 is_stmt 0 view .LVU708
 2977 024e 7F2B     		cmp	r3, #127
 2978 0250 14D8     		bhi	.L225
 241:../../libdaisy/src/dev/oled_ssd130x.h ****             return;
 2979              		.loc 9 241 9 view .LVU709
 2980 0252 3F2E     		cmp	r6, #63
 2981 0254 12D8     		bhi	.L225
 244:../../libdaisy/src/dev/oled_ssd130x.h ****         else
 2982              		.loc 9 244 28 view .LVU710
 2983 0256 4FEAD60C 		lsr	ip, r6, #3
 244:../../libdaisy/src/dev/oled_ssd130x.h ****         else
 2984              		.loc 9 244 54 view .LVU711
 2985 025a 06F0070B 		and	fp, r6, #7
 244:../../libdaisy/src/dev/oled_ssd130x.h ****         else
 2986              		.loc 9 244 48 view .LVU712
 2987 025e 4FF00108 		mov	r8, #1
 244:../../libdaisy/src/dev/oled_ssd130x.h ****         else
 2988              		.loc 9 244 42 view .LVU713
 2989 0262 03EBCC1C 		add	ip, r3, ip, lsl #7
 2990 0266 8444     		add	ip, ip, r0
 243:../../libdaisy/src/dev/oled_ssd130x.h ****             buffer_[x + (y / 8) * width] |= (1 << (y % 8));
 2991              		.loc 9 243 9 view .LVU714
 2992 0268 002D     		cmp	r5, #0
 2993 026a 73D0     		beq	.L226
 244:../../libdaisy/src/dev/oled_ssd130x.h ****         else
 2994              		.loc 9 244 48 view .LVU715
 2995 026c 08FA0BF8 		lsl	r8, r8, fp
 244:../../libdaisy/src/dev/oled_ssd130x.h ****         else
 2996              		.loc 9 244 42 view .LVU716
 2997 0270 9CF814B0 		ldrb	fp, [ip, #20]	@ zero_extendqisi2
 2998 0274 48EA0B08 		orr	r8, r8, fp
 2999 0278 8CF81480 		strb	r8, [ip, #20]
 3000              	.L225:
 3001              	.LVL267:
ARM GAS  C:\Users\VINCIU~1\AppData\Local\Temp\ccI83ocg.s 			page 90


 244:../../libdaisy/src/dev/oled_ssd130x.h ****         else
 3002              		.loc 9 244 42 view .LVU717
 3003              	.LBE574:
 3004              	.LBE573:
 3005              	.LBE572:
 203:../../libdaisy/src/hid/disp/display.h ****             {
 3006              		.loc 8 203 13 view .LVU718
 3007 027c 5FEA470C 		lsls	ip, r7, #1
 3008              	.LVL268:
 206:../../libdaisy/src/hid/disp/display.h ****             }
 3009              		.loc 8 206 20 view .LVU719
 3010 0280 18BF     		it	ne
 3011 0282 4B44     		addne	r3, r3, r9
 3012              	.LVL269:
 209:../../libdaisy/src/hid/disp/display.h ****             {
 3013              		.loc 8 209 13 view .LVU720
 3014 0284 E645     		cmp	lr, ip
 3015 0286 01DD     		ble	.L228
 211:../../libdaisy/src/hid/disp/display.h ****                 y1 += signY;
 3016              		.loc 8 211 23 view .LVU721
 3017 0288 7744     		add	r7, r7, lr
 3018              	.LVL270:
 212:../../libdaisy/src/hid/disp/display.h ****             }
 3019              		.loc 8 212 20 view .LVU722
 3020 028a 013E     		subs	r6, r6, #1
 3021              	.LVL271:
 3022              	.L228:
 199:../../libdaisy/src/hid/disp/display.h ****         {
 3023              		.loc 8 199 26 is_stmt 1 view .LVU723
 3024 028c 9942     		cmp	r1, r3
 3025 028e DED1     		bne	.L223
 199:../../libdaisy/src/hid/disp/display.h ****         {
 3026              		.loc 8 199 26 is_stmt 0 view .LVU724
 3027 0290 B442     		cmp	r4, r6
 3028 0292 DCD1     		bne	.L223
 3029              	.LVL272:
 3030              	.L222:
 199:../../libdaisy/src/hid/disp/display.h ****         {
 3031              		.loc 8 199 26 view .LVU725
 3032              	.LBE561:
 3033              	.LBE560:
 3034              	.LBB583:
 3035              	.LBI583:
 181:../../libdaisy/src/hid/disp/display.h ****                   uint_fast8_t y1,
 3036              		.loc 8 181 10 is_stmt 1 view .LVU726
 3037              	.LBB584:
 188:../../libdaisy/src/hid/disp/display.h ****         int_fast16_t signX  = ((x1 < x2) ? 1 : -1);
 3038              		.loc 8 188 52 is_stmt 0 view .LVU727
 3039 0294 A2EB040E 		sub	lr, r2, r4
 188:../../libdaisy/src/hid/disp/display.h ****         int_fast16_t signX  = ((x1 < x2) ? 1 : -1);
 3040              		.loc 8 188 22 view .LVU728
 3041 0298 BEF1000F 		cmp	lr, #0
 3042 029c B8BF     		it	lt
 3043 029e CEF1000E 		rsblt	lr, lr, #0
 3044              	.LVL273:
 190:../../libdaisy/src/hid/disp/display.h ****         int_fast16_t error  = deltaX - deltaY;
 3045              		.loc 8 190 42 view .LVU729
ARM GAS  C:\Users\VINCIU~1\AppData\Local\Temp\ccI83ocg.s 			page 91


 3046 02a2 A242     		cmp	r2, r4
 3047 02a4 8CBF     		ite	hi
 3048 02a6 4FF00108 		movhi	r8, #1
 3049 02aa 4FF0FF38 		movls	r8, #-1
 3050              	.LVL274:
 191:../../libdaisy/src/hid/disp/display.h ****         int_fast16_t error2;
 3051              		.loc 8 191 22 view .LVU730
 3052 02ae CEF1000C 		rsb	ip, lr, #0
 3053              	.LVL275:
 3054              	.LBB585:
 3055              	.LBI585:
  41:../../libdaisy/src/hid/disp/oled_display.h ****     {
 3056              		.loc 7 41 10 is_stmt 1 view .LVU731
 3057              	.LBB586:
 3058              	.LBI586:
 239:../../libdaisy/src/dev/oled_ssd130x.h ****     {
 3059              		.loc 9 239 10 view .LVU732
 3060              	.LBB587:
 241:../../libdaisy/src/dev/oled_ssd130x.h ****             return;
 3061              		.loc 9 241 9 is_stmt 0 view .LVU733
 3062 02b2 BAF1000F 		cmp	r10, #0
 3063 02b6 0ED1     		bne	.L230
 3064 02b8 029B     		ldr	r3, [sp, #8]
 3065 02ba 63B9     		cbnz	r3, .L230
 244:../../libdaisy/src/dev/oled_ssd130x.h ****         else
 3066              		.loc 9 244 28 view .LVU734
 3067 02bc D308     		lsrs	r3, r2, #3
 244:../../libdaisy/src/dev/oled_ssd130x.h ****         else
 3068              		.loc 9 244 54 view .LVU735
 3069 02be 02F00707 		and	r7, r2, #7
 244:../../libdaisy/src/dev/oled_ssd130x.h ****         else
 3070              		.loc 9 244 48 view .LVU736
 3071 02c2 0126     		movs	r6, #1
 244:../../libdaisy/src/dev/oled_ssd130x.h ****         else
 3072              		.loc 9 244 42 view .LVU737
 3073 02c4 01EBC313 		add	r3, r1, r3, lsl #7
 3074 02c8 0344     		add	r3, r3, r0
 243:../../libdaisy/src/dev/oled_ssd130x.h ****             buffer_[x + (y / 8) * width] |= (1 << (y % 8));
 3075              		.loc 9 243 9 view .LVU738
 3076 02ca 002D     		cmp	r5, #0
 3077 02cc 7CD0     		beq	.L231
 244:../../libdaisy/src/dev/oled_ssd130x.h ****         else
 3078              		.loc 9 244 48 view .LVU739
 3079 02ce BE40     		lsls	r6, r6, r7
 244:../../libdaisy/src/dev/oled_ssd130x.h ****         else
 3080              		.loc 9 244 42 view .LVU740
 3081 02d0 1F7D     		ldrb	r7, [r3, #20]	@ zero_extendqisi2
 3082 02d2 3E43     		orrs	r6, r6, r7
 3083 02d4 1E75     		strb	r6, [r3, #20]
 3084              	.L230:
 3085              	.LVL276:
 244:../../libdaisy/src/dev/oled_ssd130x.h ****         else
 3086              		.loc 9 244 42 view .LVU741
 3087              	.LBE587:
 3088              	.LBE586:
 3089              	.LBE585:
 199:../../libdaisy/src/hid/disp/display.h ****         {
ARM GAS  C:\Users\VINCIU~1\AppData\Local\Temp\ccI83ocg.s 			page 92


 3090              		.loc 8 199 26 is_stmt 1 view .LVU742
 3091 02d6 019B     		ldr	r3, [sp, #4]
 3092 02d8 002B     		cmp	r3, #0
 3093 02da 7FF4CDAE 		bne	.L188
 3094 02de 6646     		mov	r6, ip
 3095 02e0 0B46     		mov	r3, r1
 3096              	.LVL277:
 3097              	.L232:
 3098              	.LBB592:
 3099              	.LBI592:
  41:../../libdaisy/src/hid/disp/oled_display.h ****     {
 3100              		.loc 7 41 10 view .LVU743
 3101              	.LBB593:
 3102              	.LBI593:
 239:../../libdaisy/src/dev/oled_ssd130x.h ****     {
 3103              		.loc 9 239 10 view .LVU744
 3104              	.LBB594:
 241:../../libdaisy/src/dev/oled_ssd130x.h ****             return;
 3105              		.loc 9 241 9 is_stmt 0 view .LVU745
 3106 02e2 7F2B     		cmp	r3, #127
 3107 02e4 12D8     		bhi	.L234
 241:../../libdaisy/src/dev/oled_ssd130x.h ****             return;
 3108              		.loc 9 241 9 view .LVU746
 3109 02e6 3F2C     		cmp	r4, #63
 3110 02e8 10D8     		bhi	.L234
 244:../../libdaisy/src/dev/oled_ssd130x.h ****         else
 3111              		.loc 9 244 28 view .LVU747
 3112 02ea E708     		lsrs	r7, r4, #3
 244:../../libdaisy/src/dev/oled_ssd130x.h ****         else
 3113              		.loc 9 244 54 view .LVU748
 3114 02ec 04F0070A 		and	r10, r4, #7
 244:../../libdaisy/src/dev/oled_ssd130x.h ****         else
 3115              		.loc 9 244 48 view .LVU749
 3116 02f0 4FF00109 		mov	r9, #1
 244:../../libdaisy/src/dev/oled_ssd130x.h ****         else
 3117              		.loc 9 244 42 view .LVU750
 3118 02f4 03EBC717 		add	r7, r3, r7, lsl #7
 3119 02f8 0744     		add	r7, r7, r0
 243:../../libdaisy/src/dev/oled_ssd130x.h ****             buffer_[x + (y / 8) * width] |= (1 << (y % 8));
 3120              		.loc 9 243 9 view .LVU751
 3121 02fa A5B3     		cbz	r5, .L235
 244:../../libdaisy/src/dev/oled_ssd130x.h ****         else
 3122              		.loc 9 244 48 view .LVU752
 3123 02fc 09FA0AF9 		lsl	r9, r9, r10
 244:../../libdaisy/src/dev/oled_ssd130x.h ****         else
 3124              		.loc 9 244 42 view .LVU753
 3125 0300 97F814A0 		ldrb	r10, [r7, #20]	@ zero_extendqisi2
 3126 0304 49EA0A09 		orr	r9, r9, r10
 3127 0308 87F81490 		strb	r9, [r7, #20]
 3128              	.L234:
 3129              	.LVL278:
 244:../../libdaisy/src/dev/oled_ssd130x.h ****         else
 3130              		.loc 9 244 42 view .LVU754
 3131              	.LBE594:
 3132              	.LBE593:
 3133              	.LBE592:
 203:../../libdaisy/src/hid/disp/display.h ****             {
ARM GAS  C:\Users\VINCIU~1\AppData\Local\Temp\ccI83ocg.s 			page 93


 3134              		.loc 8 203 13 view .LVU755
 3135 030c BCEB460F 		cmp	ip, r6, lsl #1
 202:../../libdaisy/src/hid/disp/display.h ****             if(error2 > -deltaY)
 3136              		.loc 8 202 20 view .LVU756
 3137 0310 4FEA4607 		lsl	r7, r6, #1
 3138              	.LVL279:
 203:../../libdaisy/src/hid/disp/display.h ****             {
 3139              		.loc 8 203 13 view .LVU757
 3140 0314 02DA     		bge	.L236
 205:../../libdaisy/src/hid/disp/display.h ****                 x1 += signX;
 3141              		.loc 8 205 23 view .LVU758
 3142 0316 A6EB0E06 		sub	r6, r6, lr
 3143              	.LVL280:
 206:../../libdaisy/src/hid/disp/display.h ****             }
 3144              		.loc 8 206 20 view .LVU759
 3145 031a 013B     		subs	r3, r3, #1
 3146              	.LVL281:
 3147              	.L236:
 209:../../libdaisy/src/hid/disp/display.h ****             {
 3148              		.loc 8 209 13 view .LVU760
 3149 031c 07B1     		cbz	r7, .L237
 212:../../libdaisy/src/hid/disp/display.h ****             }
 3150              		.loc 8 212 20 view .LVU761
 3151 031e 4444     		add	r4, r4, r8
 3152              	.LVL282:
 3153              	.L237:
 199:../../libdaisy/src/hid/disp/display.h ****         {
 3154              		.loc 8 199 26 is_stmt 1 view .LVU762
 3155 0320 9942     		cmp	r1, r3
 3156 0322 DED1     		bne	.L232
 199:../../libdaisy/src/hid/disp/display.h ****         {
 3157              		.loc 8 199 26 is_stmt 0 view .LVU763
 3158 0324 A242     		cmp	r2, r4
 3159 0326 DCD1     		bne	.L232
 3160              	.LBE584:
 3161              	.LBE583:
 3162              	.LBE636:
 241:../../libdaisy/src/hid/disp/display.h **** 
 3163              		.loc 8 241 5 view .LVU764
 3164 0328 07B0     		add	sp, sp, #28
 3165              		.cfi_remember_state
 3166              		.cfi_def_cfa_offset 36
 3167              		@ sp needed
 3168 032a BDE8F08F 		pop	{r4, r5, r6, r7, r8, r9, r10, fp, pc}
 3169              	.LVL283:
 3170              	.L197:
 3171              		.cfi_restore_state
 3172              	.LBB637:
 3173              	.LBB603:
 3174              	.LBB520:
 3175              	.LBB516:
  41:../../libdaisy/src/hid/disp/oled_display.h ****     {
 3176              		.loc 7 41 10 is_stmt 1 view .LVU765
 3177              	.LBB505:
 239:../../libdaisy/src/dev/oled_ssd130x.h ****     {
 3178              		.loc 9 239 10 view .LVU766
 3179              	.LBB501:
ARM GAS  C:\Users\VINCIU~1\AppData\Local\Temp\ccI83ocg.s 			page 94


 241:../../libdaisy/src/dev/oled_ssd130x.h ****             return;
 3180              		.loc 9 241 28 is_stmt 0 view .LVU767
 3181 032e 3F2A     		cmp	r2, #63
 3182              	.LBE501:
 3183              	.LBE505:
 3184              	.LBE516:
 189:../../libdaisy/src/hid/disp/display.h ****         int_fast16_t signY  = ((y1 < y2) ? 1 : -1);
 3185              		.loc 8 189 42 view .LVU768
 3186 0330 4FF0010A 		mov	r10, #1
 3187              	.LBB517:
 3188              	.LBB506:
 3189              	.LBB502:
 241:../../libdaisy/src/dev/oled_ssd130x.h ****             return;
 3190              		.loc 9 241 28 view .LVU769
 3191 0334 94BF     		ite	ls
 3192 0336 0026     		movls	r6, #0
 3193 0338 0126     		movhi	r6, #1
 241:../../libdaisy/src/dev/oled_ssd130x.h ****             return;
 3194              		.loc 9 241 14 view .LVU770
 3195 033a 7F2B     		cmp	r3, #127
 241:../../libdaisy/src/dev/oled_ssd130x.h ****             return;
 3196              		.loc 9 241 28 view .LVU771
 3197 033c 0296     		str	r6, [sp, #8]
 241:../../libdaisy/src/dev/oled_ssd130x.h ****             return;
 3198              		.loc 9 241 14 view .LVU772
 3199 033e 94BF     		ite	ls
 3200 0340 0027     		movls	r7, #0
 3201 0342 0127     		movhi	r7, #1
 3202 0344 0097     		str	r7, [sp]
 241:../../libdaisy/src/dev/oled_ssd130x.h ****             return;
 3203              		.loc 9 241 9 view .LVU773
 3204 0346 002E     		cmp	r6, #0
 3205 0348 7FF4C8AE 		bne	.L201
 3206 034c 002F     		cmp	r7, #0
 3207 034e 3FF4AEAE 		beq	.L239
 3208 0352 C3E6     		b	.L201
 3209              	.LVL284:
 3210              	.L226:
 241:../../libdaisy/src/dev/oled_ssd130x.h ****             return;
 3211              		.loc 9 241 9 view .LVU774
 3212              	.LBE502:
 3213              	.LBE506:
 3214              	.LBE517:
 3215              	.LBE520:
 3216              	.LBE603:
 3217              	.LBB604:
 3218              	.LBB581:
 3219              	.LBB579:
 3220              	.LBB578:
 3221              	.LBB577:
 3222              	.LBB575:
 3223              	.LBI575:
 239:../../libdaisy/src/dev/oled_ssd130x.h ****     {
 3224              		.loc 9 239 10 is_stmt 1 view .LVU775
 3225              	.LBB576:
 246:../../libdaisy/src/dev/oled_ssd130x.h ****     }
 3226              		.loc 9 246 49 is_stmt 0 view .LVU776
ARM GAS  C:\Users\VINCIU~1\AppData\Local\Temp\ccI83ocg.s 			page 95


 3227 0354 08FA0BFB 		lsl	fp, r8, fp
 246:../../libdaisy/src/dev/oled_ssd130x.h ****     }
 3228              		.loc 9 246 42 view .LVU777
 3229 0358 9CF81480 		ldrb	r8, [ip, #20]	@ zero_extendqisi2
 3230 035c 28EA0B08 		bic	r8, r8, fp
 3231 0360 8CF81480 		strb	r8, [ip, #20]
 3232 0364 8AE7     		b	.L225
 3233              	.LVL285:
 3234              	.L235:
 246:../../libdaisy/src/dev/oled_ssd130x.h ****     }
 3235              		.loc 9 246 42 view .LVU778
 3236              	.LBE576:
 3237              	.LBE575:
 3238              	.LBE577:
 3239              	.LBE578:
 3240              	.LBE579:
 3241              	.LBE581:
 3242              	.LBE604:
 3243              	.LBB605:
 3244              	.LBB601:
 3245              	.LBB599:
 3246              	.LBB598:
 3247              	.LBB597:
 3248              	.LBB595:
 3249              	.LBI595:
 239:../../libdaisy/src/dev/oled_ssd130x.h ****     {
 3250              		.loc 9 239 10 is_stmt 1 view .LVU779
 3251              	.LBB596:
 246:../../libdaisy/src/dev/oled_ssd130x.h ****     }
 3252              		.loc 9 246 49 is_stmt 0 view .LVU780
 3253 0366 09FA0AFA 		lsl	r10, r9, r10
 246:../../libdaisy/src/dev/oled_ssd130x.h ****     }
 3254              		.loc 9 246 42 view .LVU781
 3255 036a 97F81490 		ldrb	r9, [r7, #20]	@ zero_extendqisi2
 3256 036e 29EA0A09 		bic	r9, r9, r10
 3257 0372 87F81490 		strb	r9, [r7, #20]
 3258 0376 C9E7     		b	.L234
 3259              	.LVL286:
 3260              	.L205:
 246:../../libdaisy/src/dev/oled_ssd130x.h ****     }
 3261              		.loc 9 246 42 view .LVU782
 3262              	.LBE596:
 3263              	.LBE595:
 3264              	.LBE597:
 3265              	.LBE598:
 3266              	.LBE599:
 3267              	.LBE601:
 3268              	.LBE605:
 3269              	.LBB606:
 3270              	.LBB521:
 3271              	.LBB518:
 3272              	.LBB515:
 3273              	.LBB514:
 3274              	.LBB512:
 3275              	.LBI512:
 239:../../libdaisy/src/dev/oled_ssd130x.h ****     {
 3276              		.loc 9 239 10 is_stmt 1 view .LVU783
ARM GAS  C:\Users\VINCIU~1\AppData\Local\Temp\ccI83ocg.s 			page 96


 3277              	.LBB513:
 246:../../libdaisy/src/dev/oled_ssd130x.h ****     }
 3278              		.loc 9 246 49 is_stmt 0 view .LVU784
 3279 0378 09FA0BFB 		lsl	fp, r9, fp
 246:../../libdaisy/src/dev/oled_ssd130x.h ****     }
 3280              		.loc 9 246 42 view .LVU785
 3281 037c 97F81490 		ldrb	r9, [r7, #20]	@ zero_extendqisi2
 3282 0380 29EA0B09 		bic	r9, r9, fp
 3283 0384 87F81490 		strb	r9, [r7, #20]
 3284 0388 C5E6     		b	.L204
 3285              	.LVL287:
 3286              	.L216:
 246:../../libdaisy/src/dev/oled_ssd130x.h ****     }
 3287              		.loc 9 246 42 view .LVU786
 3288              	.LBE513:
 3289              	.LBE512:
 3290              	.LBE514:
 3291              	.LBE515:
 3292              	.LBE518:
 3293              	.LBE521:
 3294              	.LBE606:
 3295              	.LBB607:
 3296              	.LBB557:
 3297              	.LBB554:
 3298              	.LBB553:
 3299              	.LBB552:
 3300              	.LBB550:
 3301              	.LBI550:
 239:../../libdaisy/src/dev/oled_ssd130x.h ****     {
 3302              		.loc 9 239 10 is_stmt 1 view .LVU787
 3303              	.LBB551:
 246:../../libdaisy/src/dev/oled_ssd130x.h ****     }
 3304              		.loc 9 246 49 is_stmt 0 view .LVU788
 3305 038a 0AFA0BFB 		lsl	fp, r10, fp
 246:../../libdaisy/src/dev/oled_ssd130x.h ****     }
 3306              		.loc 9 246 42 view .LVU789
 3307 038e 9EF814A0 		ldrb	r10, [lr, #20]	@ zero_extendqisi2
 3308 0392 2AEA0B0A 		bic	r10, r10, fp
 3309 0396 8EF814A0 		strb	r10, [lr, #20]
 3310 039a 18E7     		b	.L215
 3311              	.LVL288:
 3312              	.L208:
 246:../../libdaisy/src/dev/oled_ssd130x.h ****     }
 3313              		.loc 9 246 42 view .LVU790
 3314              	.LBE551:
 3315              	.LBE550:
 3316              	.LBE552:
 3317              	.LBE553:
 3318              	.LBE554:
 3319              	.LBB555:
 3320              	.LBB541:
 3321              	.LBB535:
 241:../../libdaisy/src/dev/oled_ssd130x.h ****             return;
 3322              		.loc 9 241 9 view .LVU791
 3323 039c 97BB     		cbnz	r7, .L247
 3324 039e 8EBB     		cbnz	r6, .L247
 3325              	.LBE535:
ARM GAS  C:\Users\VINCIU~1\AppData\Local\Temp\ccI83ocg.s 			page 97


 3326              	.LBE541:
 3327              	.LBE555:
 190:../../libdaisy/src/hid/disp/display.h ****         int_fast16_t error  = deltaX - deltaY;
 3328              		.loc 8 190 42 view .LVU792
 3329 03a0 0126     		movs	r6, #1
 3330 03a2 0096     		str	r6, [sp]
 3331              	.LBB556:
 3332              	.LBB542:
 3333              	.LBB536:
 244:../../libdaisy/src/dev/oled_ssd130x.h ****         else
 3334              		.loc 9 244 28 view .LVU793
 3335 03a4 E608     		lsrs	r6, r4, #3
 244:../../libdaisy/src/dev/oled_ssd130x.h ****         else
 3336              		.loc 9 244 42 view .LVU794
 3337 03a6 03EBC616 		add	r6, r3, r6, lsl #7
 3338 03aa 0644     		add	r6, r6, r0
 243:../../libdaisy/src/dev/oled_ssd130x.h ****             buffer_[x + (y / 8) * width] |= (1 << (y % 8));
 3339              		.loc 9 243 9 view .LVU795
 3340 03ac 002D     		cmp	r5, #0
 3341 03ae 7FF4E2AE 		bne	.L282
 3342              	.LVL289:
 3343              	.L210:
 3344              	.LBB529:
 3345              	.LBI529:
 239:../../libdaisy/src/dev/oled_ssd130x.h ****     {
 3346              		.loc 9 239 10 is_stmt 1 view .LVU796
 3347              	.LBB530:
 246:../../libdaisy/src/dev/oled_ssd130x.h ****     }
 3348              		.loc 9 246 49 is_stmt 0 view .LVU797
 3349 03b2 0127     		movs	r7, #1
 246:../../libdaisy/src/dev/oled_ssd130x.h ****     }
 3350              		.loc 9 246 55 view .LVU798
 3351 03b4 04F0070C 		and	ip, r4, #7
 246:../../libdaisy/src/dev/oled_ssd130x.h ****     }
 3352              		.loc 9 246 42 view .LVU799
 3353 03b8 0395     		str	r5, [sp, #12]
 246:../../libdaisy/src/dev/oled_ssd130x.h ****     }
 3354              		.loc 9 246 49 view .LVU800
 3355 03ba 07FA0CFC 		lsl	ip, r7, ip
 246:../../libdaisy/src/dev/oled_ssd130x.h ****     }
 3356              		.loc 9 246 42 view .LVU801
 3357 03be 377D     		ldrb	r7, [r6, #20]	@ zero_extendqisi2
 3358 03c0 27EA0C07 		bic	r7, r7, ip
 3359 03c4 3775     		strb	r7, [r6, #20]
 3360 03c6 E3E6     		b	.L209
 3361              	.LVL290:
 3362              	.L231:
 246:../../libdaisy/src/dev/oled_ssd130x.h ****     }
 3363              		.loc 9 246 42 view .LVU802
 3364              	.LBE530:
 3365              	.LBE529:
 3366              	.LBE536:
 3367              	.LBE542:
 3368              	.LBE556:
 3369              	.LBE557:
 3370              	.LBE607:
 3371              	.LBB608:
ARM GAS  C:\Users\VINCIU~1\AppData\Local\Temp\ccI83ocg.s 			page 98


 3372              	.LBB602:
 3373              	.LBB600:
 3374              	.LBB591:
 3375              	.LBB590:
 3376              	.LBB588:
 3377              	.LBI588:
 239:../../libdaisy/src/dev/oled_ssd130x.h ****     {
 3378              		.loc 9 239 10 is_stmt 1 view .LVU803
 3379              	.LBB589:
 246:../../libdaisy/src/dev/oled_ssd130x.h ****     }
 3380              		.loc 9 246 49 is_stmt 0 view .LVU804
 3381 03c8 06FA07F7 		lsl	r7, r6, r7
 246:../../libdaisy/src/dev/oled_ssd130x.h ****     }
 3382              		.loc 9 246 42 view .LVU805
 3383 03cc 1E7D     		ldrb	r6, [r3, #20]	@ zero_extendqisi2
 3384 03ce 26EA0706 		bic	r6, r6, r7
 3385 03d2 1E75     		strb	r6, [r3, #20]
 3386 03d4 7FE7     		b	.L230
 3387              	.LVL291:
 3388              	.L221:
 246:../../libdaisy/src/dev/oled_ssd130x.h ****     }
 3389              		.loc 9 246 42 view .LVU806
 3390              	.LBE589:
 3391              	.LBE588:
 3392              	.LBE590:
 3393              	.LBE591:
 3394              	.LBE600:
 3395              	.LBE602:
 3396              	.LBE608:
 3397              	.LBB609:
 3398              	.LBB582:
 3399              	.LBB580:
 3400              	.LBB570:
 3401              	.LBB568:
 3402              	.LBB565:
 3403              	.LBI565:
 239:../../libdaisy/src/dev/oled_ssd130x.h ****     {
 3404              		.loc 9 239 10 is_stmt 1 view .LVU807
 3405              	.LBB566:
 246:../../libdaisy/src/dev/oled_ssd130x.h ****     }
 3406              		.loc 9 246 49 is_stmt 0 view .LVU808
 3407 03d6 0127     		movs	r7, #1
 246:../../libdaisy/src/dev/oled_ssd130x.h ****     }
 3408              		.loc 9 246 55 view .LVU809
 3409 03d8 04F0070C 		and	ip, r4, #7
 246:../../libdaisy/src/dev/oled_ssd130x.h ****     }
 3410              		.loc 9 246 49 view .LVU810
 3411 03dc 07FA0CFC 		lsl	ip, r7, ip
 246:../../libdaisy/src/dev/oled_ssd130x.h ****     }
 3412              		.loc 9 246 42 view .LVU811
 3413 03e0 377D     		ldrb	r7, [r6, #20]	@ zero_extendqisi2
 3414 03e2 27EA0C07 		bic	r7, r7, ip
 3415 03e6 3775     		strb	r7, [r6, #20]
 3416 03e8 2DE7     		b	.L220
 3417              	.LVL292:
 3418              	.L199:
 246:../../libdaisy/src/dev/oled_ssd130x.h ****     }
ARM GAS  C:\Users\VINCIU~1\AppData\Local\Temp\ccI83ocg.s 			page 99


 3419              		.loc 9 246 42 view .LVU812
 3420              	.LBE566:
 3421              	.LBE565:
 3422              	.LBE568:
 3423              	.LBE570:
 3424              	.LBE580:
 3425              	.LBE582:
 3426              	.LBE609:
 3427              	.LBB610:
 3428              	.LBB522:
 3429              	.LBB519:
 3430              	.LBB507:
 3431              	.LBB503:
 3432              	.LBB498:
 3433              	.LBI498:
 239:../../libdaisy/src/dev/oled_ssd130x.h ****     {
 3434              		.loc 9 239 10 is_stmt 1 view .LVU813
 3435              	.LBB499:
 246:../../libdaisy/src/dev/oled_ssd130x.h ****     }
 3436              		.loc 9 246 49 is_stmt 0 view .LVU814
 3437 03ea 07FA0CFC 		lsl	ip, r7, ip
 246:../../libdaisy/src/dev/oled_ssd130x.h ****     }
 3438              		.loc 9 246 42 view .LVU815
 3439 03ee 377D     		ldrb	r7, [r6, #20]	@ zero_extendqisi2
 3440 03f0 0295     		str	r5, [sp, #8]
 3441 03f2 27EA0C07 		bic	r7, r7, ip
 3442 03f6 0095     		str	r5, [sp]
 3443 03f8 3775     		strb	r7, [r6, #20]
 3444 03fa 6CE6     		b	.L198
 3445              	.LVL293:
 3446              	.L243:
 246:../../libdaisy/src/dev/oled_ssd130x.h ****     }
 3447              		.loc 9 246 42 view .LVU816
 3448              	.LBE499:
 3449              	.LBE498:
 3450              	.LBE503:
 3451              	.LBE507:
 3452              	.LBE519:
 3453              	.LBE522:
 3454              	.LBE610:
 3455              	.LBB611:
 3456              	.LBB558:
 190:../../libdaisy/src/hid/disp/display.h ****         int_fast16_t error  = deltaX - deltaY;
 3457              		.loc 8 190 42 view .LVU817
 3458 03fc 4FF0FF36 		mov	r6, #-1
 3459 0400 0096     		str	r6, [sp]
 3460 0402 C5E6     		b	.L209
 3461              	.LVL294:
 3462              	.L247:
 190:../../libdaisy/src/hid/disp/display.h ****         int_fast16_t error  = deltaX - deltaY;
 3463              		.loc 8 190 42 view .LVU818
 3464 0404 0126     		movs	r6, #1
 3465 0406 0096     		str	r6, [sp]
 3466 0408 C5E6     		b	.L212
 3467              	.LVL295:
 3468              	.L280:
 190:../../libdaisy/src/hid/disp/display.h ****         int_fast16_t error  = deltaX - deltaY;
ARM GAS  C:\Users\VINCIU~1\AppData\Local\Temp\ccI83ocg.s 			page 100


 3469              		.loc 8 190 42 view .LVU819
 3470              	.LBE558:
 3471              	.LBE611:
 3472              	.LBB612:
 3473              	.LBB523:
 199:../../libdaisy/src/hid/disp/display.h ****         {
 3474              		.loc 8 199 19 view .LVU820
 3475 040a 0126     		movs	r6, #1
 3476 040c 0496     		str	r6, [sp, #16]
 3477 040e 90E6     		b	.L200
 3478              	.LVL296:
 3479              	.L281:
 199:../../libdaisy/src/hid/disp/display.h ****         {
 3480              		.loc 8 199 19 view .LVU821
 3481              	.LBE523:
 3482              	.LBE612:
 3483              	.LBB613:
 3484              	.LBB559:
 199:../../libdaisy/src/hid/disp/display.h ****         {
 3485              		.loc 8 199 33 view .LVU822
 3486 0410 0126     		movs	r6, #1
 3487 0412 0196     		str	r6, [sp, #4]
 3488 0414 EDE6     		b	.L211
 3489              	.LBE559:
 3490              	.LBE613:
 3491              	.LBE637:
 3492              		.cfi_endproc
 3493              	.LFE4606:
 3495 0416 00BF     		.section	.text.startup.main,"ax",%progbits
 3496              		.align	1
 3497              		.p2align 2,,3
 3498              		.global	main
 3499              		.syntax unified
 3500              		.thumb
 3501              		.thumb_func
 3502              		.fpu fpv5-d16
 3504              	main:
 3505              	.LFB4038:
  32:metamorphic_project.cpp **** 
  33:metamorphic_project.cpp **** int main(void)
  34:metamorphic_project.cpp **** {
 3506              		.loc 10 34 1 is_stmt 1 view -0
 3507              		.cfi_startproc
 3508              		@ Volatile: function does not return.
 3509              		@ args = 0, pretend = 0, frame = 0
 3510              		@ frame_needed = 0, uses_anonymous_args = 0
  35:metamorphic_project.cpp ****     SynthInit(&hw, &display, &osc);
 3511              		.loc 10 35 5 view .LVU824
 3512              		.loc 10 35 14 is_stmt 0 view .LVU825
 3513 0000 0749     		ldr	r1, .L286
 3514 0002 0848     		ldr	r0, .L286+4
 3515 0004 084A     		ldr	r2, .L286+8
  34:metamorphic_project.cpp ****     SynthInit(&hw, &display, &osc);
 3516              		.loc 10 34 1 view .LVU826
 3517 0006 08B5     		push	{r3, lr}
 3518              		.cfi_def_cfa_offset 8
 3519              		.cfi_offset 3, -8
ARM GAS  C:\Users\VINCIU~1\AppData\Local\Temp\ccI83ocg.s 			page 101


 3520              		.cfi_offset 14, -4
 3521              		.loc 10 35 14 view .LVU827
 3522 0008 FFF7FEFF 		bl	_Z9SynthInitPN5daisy9DaisySeedEPNS_11OledDisplayINS_13SSD130xDriverILj128ELj64ENS_24SSD130x4Wir
 3523              	.LVL297:
  36:metamorphic_project.cpp ****     hw.StartAudio(AudioCallback);
 3524              		.loc 10 36 5 is_stmt 1 view .LVU828
 3525              		.loc 10 36 18 is_stmt 0 view .LVU829
 3526 000c 0749     		ldr	r1, .L286+12
 3527 000e 0548     		ldr	r0, .L286+4
 3528 0010 FFF7FEFF 		bl	_ZN5daisy9DaisySeed10StartAudioEPFvPKPKfPPfjE
 3529              	.LVL298:
 3530              	.L284:
  37:metamorphic_project.cpp ****     while(1)
 3531              		.loc 10 37 5 is_stmt 1 discriminator 1 view .LVU830
  38:metamorphic_project.cpp ****     {
  39:metamorphic_project.cpp ****         synthMenus.SplashScreen(&display);
 3532              		.loc 10 39 9 discriminator 1 view .LVU831
 3533              		.loc 10 39 32 is_stmt 0 discriminator 1 view .LVU832
 3534 0014 0249     		ldr	r1, .L286
 3535 0016 0648     		ldr	r0, .L286+16
 3536 0018 FFF7FEFF 		bl	_ZN5Menus12SplashScreenEPN5daisy11OledDisplayINS0_13SSD130xDriverILj128ELj64ENS0_24SSD130x4Wire
 3537              	.LVL299:
  37:metamorphic_project.cpp ****     while(1)
 3538              		.loc 10 37 5 is_stmt 1 discriminator 1 view .LVU833
 3539 001c FAE7     		b	.L284
 3540              	.L287:
 3541 001e 00BF     		.align	2
 3542              	.L286:
 3543 0020 00000000 		.word	.LANCHOR1
 3544 0024 00000000 		.word	.LANCHOR2
 3545 0028 00000000 		.word	.LANCHOR0
 3546 002c 00000000 		.word	_Z13AudioCallbackPKPKfPPfj
 3547 0030 00000000 		.word	.LANCHOR3
 3548              		.cfi_endproc
 3549              	.LFE4038:
 3551              		.section	.text.startup._GLOBAL__sub_I_hw,"ax",%progbits
 3552              		.align	1
 3553              		.p2align 2,,3
 3554              		.syntax unified
 3555              		.thumb
 3556              		.thumb_func
 3557              		.fpu fpv5-d16
 3559              	_GLOBAL__sub_I_hw:
 3560              	.LFB4616:
  40:metamorphic_project.cpp ****     }
  41:metamorphic_project.cpp **** }
 3561              		.loc 10 41 1 view -0
 3562              		.cfi_startproc
 3563              		@ args = 0, pretend = 0, frame = 0
 3564              		@ frame_needed = 0, uses_anonymous_args = 0
 3565              	.LBB666:
 3566              	.LBI666:
 3567              		.loc 10 41 1 view .LVU835
 3568              	.LVL300:
 3569              	.LBB667:
 3570              	.LBB668:
 3571              	.LBI668:
ARM GAS  C:\Users\VINCIU~1\AppData\Local\Temp\ccI83ocg.s 			page 102


  21:../../libdaisy/src/daisy_seed.h ****     ~DaisySeed() {}
 3572              		.loc 1 21 5 view .LVU836
 3573              	.LBB669:
 3574              	.LBB670:
 3575              	.LBI670:
  62:../../libdaisy/src/hid/audio.h ****     ~AudioHandle() {}
 3576              		.loc 5 62 5 view .LVU837
 3577              	.LBE670:
 3578              	.LBE669:
 3579              	.LBE668:
 3580              	.LBE667:
 3581              	.LBE666:
 3582              		.loc 10 41 1 is_stmt 0 view .LVU838
 3583 0000 10B5     		push	{r4, lr}
 3584              		.cfi_def_cfa_offset 8
 3585              		.cfi_offset 4, -8
 3586              		.cfi_offset 14, -4
 3587              	.LBB706:
 3588              	.LBB704:
 3589              	.LBB685:
 3590              	.LBB683:
 3591              	.LBB675:
 3592              	.LBB671:
 3593              	.LBB672:
  62:../../libdaisy/src/hid/audio.h ****     ~AudioHandle() {}
 3594              		.loc 5 62 35 view .LVU839
 3595 0002 0B48     		ldr	r0, .L290
 3596 0004 0024     		movs	r4, #0
 3597              	.LBE672:
 3598              	.LBE671:
 3599              	.LBE675:
 3600              	.LBE683:
 3601              	.LBE685:
  14:metamorphic_project.cpp **** SynthOled  display;
 3602              		.loc 10 14 12 view .LVU840
 3603 0006 0B4A     		ldr	r2, .L290+4
 3604 0008 0B49     		ldr	r1, .L290+8
 3605              	.LBB686:
 3606              	.LBB684:
 3607              	.LBB676:
 3608              	.LBB674:
 3609              	.LBB673:
  62:../../libdaisy/src/hid/audio.h ****     ~AudioHandle() {}
 3610              		.loc 5 62 35 view .LVU841
 3611 000a 4461     		str	r4, [r0, #20]
 3612              	.LVL301:
  62:../../libdaisy/src/hid/audio.h ****     ~AudioHandle() {}
 3613              		.loc 5 62 35 view .LVU842
 3614              	.LBE673:
 3615              	.LBE674:
 3616              	.LBE676:
 3617              	.LBB677:
 3618              	.LBI677:
  84:../../libdaisy/src/per/adc.h ****     ~AdcHandle() {}
 3619              		.loc 4 84 5 is_stmt 1 view .LVU843
  84:../../libdaisy/src/per/adc.h ****     ~AdcHandle() {}
 3620              		.loc 4 84 5 is_stmt 0 view .LVU844
ARM GAS  C:\Users\VINCIU~1\AppData\Local\Temp\ccI83ocg.s 			page 103


 3621              	.LBE677:
 3622              	.LBB678:
 3623              	.LBI678:
 3624              		.file 12 "../../libdaisy/src/per/dac.h"
   1:../../libdaisy/src/per/dac.h **** #pragma once
   2:../../libdaisy/src/per/dac.h **** #ifndef DSY_DAC_H
   3:../../libdaisy/src/per/dac.h **** #define DSY_DAC_H
   4:../../libdaisy/src/per/dac.h **** 
   5:../../libdaisy/src/per/dac.h **** #include "daisy_core.h"
   6:../../libdaisy/src/per/dac.h **** 
   7:../../libdaisy/src/per/dac.h **** namespace daisy
   8:../../libdaisy/src/per/dac.h **** {
   9:../../libdaisy/src/per/dac.h **** /** DAC handle for Built-in DAC Peripheral 
  10:../../libdaisy/src/per/dac.h ****  ** 
  11:../../libdaisy/src/per/dac.h ****  ** For now only Normal Mode is supported,
  12:../../libdaisy/src/per/dac.h ****  ** Sample and hold mode provides reduced power consumption, but requires a bit more setup.
  13:../../libdaisy/src/per/dac.h ****  **
  14:../../libdaisy/src/per/dac.h ****  ** For now connecting the DAC through other internal periphearls is also not supported.
  15:../../libdaisy/src/per/dac.h ****  **
  16:../../libdaisy/src/per/dac.h ****  ** Since the DAC channels have dedicated pins we don't need to pass in a pin config like with
  17:../../libdaisy/src/per/dac.h ****  ** other modules. However, it is still important to not try to use the DAC pins for anything else.
  18:../../libdaisy/src/per/dac.h ****  ** DAC Channel 1 is on PA4, and DAC Channel 2 is on PA5
  19:../../libdaisy/src/per/dac.h ****  ***/
  20:../../libdaisy/src/per/dac.h **** class DacHandle
  21:../../libdaisy/src/per/dac.h **** {
  22:../../libdaisy/src/per/dac.h ****   public:
  23:../../libdaisy/src/per/dac.h ****     /** Return Values for the DacHandle class */
  24:../../libdaisy/src/per/dac.h ****     enum class Result
  25:../../libdaisy/src/per/dac.h ****     {
  26:../../libdaisy/src/per/dac.h ****         OK,
  27:../../libdaisy/src/per/dac.h ****         ERR,
  28:../../libdaisy/src/per/dac.h ****     };
  29:../../libdaisy/src/per/dac.h **** 
  30:../../libdaisy/src/per/dac.h ****     /** Selects which channel(s) will be configured for use. */
  31:../../libdaisy/src/per/dac.h ****     enum class Channel
  32:../../libdaisy/src/per/dac.h ****     {
  33:../../libdaisy/src/per/dac.h ****         ONE,
  34:../../libdaisy/src/per/dac.h ****         TWO,
  35:../../libdaisy/src/per/dac.h ****         BOTH,
  36:../../libdaisy/src/per/dac.h ****     };
  37:../../libdaisy/src/per/dac.h **** 
  38:../../libdaisy/src/per/dac.h ****     /** Sets the Mode for the DAC channels.
  39:../../libdaisy/src/per/dac.h ****      **
  40:../../libdaisy/src/per/dac.h ****      ** Polling mode uses the blocking mode to transmit a single value at a time.
  41:../../libdaisy/src/per/dac.h ****      **
  42:../../libdaisy/src/per/dac.h ****      ** DMA mode uses a buffer, and periodically transmits it triggering a 
  43:../../libdaisy/src/per/dac.h ****      ** callback to fill the buffer when it is ready for more samples.
  44:../../libdaisy/src/per/dac.h ****      ***/
  45:../../libdaisy/src/per/dac.h ****     enum class Mode
  46:../../libdaisy/src/per/dac.h ****     {
  47:../../libdaisy/src/per/dac.h ****         POLLING,
  48:../../libdaisy/src/per/dac.h ****         DMA,
  49:../../libdaisy/src/per/dac.h ****     };
  50:../../libdaisy/src/per/dac.h **** 
  51:../../libdaisy/src/per/dac.h ****     /** Sets the number of bits per sample transmitted out of the DAC.
  52:../../libdaisy/src/per/dac.h ****      ** The output range will be: 0V - VDDA
  53:../../libdaisy/src/per/dac.h ****      ** The resolution will be roughly: bitdepth / (VDDA - 0V) 
ARM GAS  C:\Users\VINCIU~1\AppData\Local\Temp\ccI83ocg.s 			page 104


  54:../../libdaisy/src/per/dac.h ****      ***/
  55:../../libdaisy/src/per/dac.h ****     enum class BitDepth
  56:../../libdaisy/src/per/dac.h ****     {
  57:../../libdaisy/src/per/dac.h ****         BITS_8,
  58:../../libdaisy/src/per/dac.h ****         BITS_12
  59:../../libdaisy/src/per/dac.h ****     };
  60:../../libdaisy/src/per/dac.h **** 
  61:../../libdaisy/src/per/dac.h ****     /** Sets whether the DAC output is buffered for higher drive ability. */
  62:../../libdaisy/src/per/dac.h ****     enum class BufferState
  63:../../libdaisy/src/per/dac.h ****     {
  64:../../libdaisy/src/per/dac.h ****         ENABLED,
  65:../../libdaisy/src/per/dac.h ****         DISABLED,
  66:../../libdaisy/src/per/dac.h ****     };
  67:../../libdaisy/src/per/dac.h **** 
  68:../../libdaisy/src/per/dac.h ****     /** Configuration structure for initializing the DAC structure. */
  69:../../libdaisy/src/per/dac.h ****     struct Config
  70:../../libdaisy/src/per/dac.h ****     {
  71:../../libdaisy/src/per/dac.h ****         /** Target Samplerate in Hz used to configure the internal 
  72:../../libdaisy/src/per/dac.h ****          ** timebase for DMA mode. Does nothing in POLLING mode.
  73:../../libdaisy/src/per/dac.h ****          ** If the value is 0 at Init time this will default to 48000Hz 
  74:../../libdaisy/src/per/dac.h ****          ** otherwise the driver will attempt meet the target.*/
  75:../../libdaisy/src/per/dac.h ****         uint32_t target_samplerate;
  76:../../libdaisy/src/per/dac.h **** 
  77:../../libdaisy/src/per/dac.h ****         Channel     chn;
  78:../../libdaisy/src/per/dac.h ****         Mode        mode;
  79:../../libdaisy/src/per/dac.h ****         BitDepth    bitdepth;
  80:../../libdaisy/src/per/dac.h ****         BufferState buff_state;
  81:../../libdaisy/src/per/dac.h ****     };
  82:../../libdaisy/src/per/dac.h **** 
  83:../../libdaisy/src/per/dac.h ****     DacHandle() : pimpl_(nullptr) {}
 3625              		.loc 12 83 5 is_stmt 1 view .LVU845
 3626              	.LBB679:
 3627              	.LBB680:
 3628              		.loc 12 83 33 is_stmt 0 view .LVU846
 3629 000c 0462     		str	r4, [r0, #32]
 3630              	.LVL302:
 3631              		.loc 12 83 33 view .LVU847
 3632              	.LBE680:
 3633              	.LBE679:
 3634              	.LBE678:
 3635              	.LBB681:
 3636              	.LBI681:
  40:../../libdaisy/src/hid/usb.h **** 
 3637              		.loc 3 40 5 is_stmt 1 view .LVU848
  40:../../libdaisy/src/hid/usb.h **** 
 3638              		.loc 3 40 5 is_stmt 0 view .LVU849
 3639              	.LBE681:
 3640              	.LBB682:
 3641              	.LBI682:
  58:../../libdaisy/src/sys/system.h ****     ~System() {}
 3642              		.loc 2 58 5 is_stmt 1 view .LVU850
  58:../../libdaisy/src/sys/system.h ****     ~System() {}
 3643              		.loc 2 58 5 is_stmt 0 view .LVU851
 3644              	.LBE682:
 3645              	.LBE684:
 3646              	.LBE686:
  14:metamorphic_project.cpp **** SynthOled  display;
ARM GAS  C:\Users\VINCIU~1\AppData\Local\Temp\ccI83ocg.s 			page 105


 3647              		.loc 10 14 12 view .LVU852
 3648 000e FFF7FEFF 		bl	__aeabi_atexit
 3649              	.LVL303:
 3650              	.LBB687:
 3651              	.LBI687:
  16:../../libdaisy/src/hid/disp/oled_display.h ****     virtual ~OledDisplay() {}
 3652              		.loc 7 16 5 is_stmt 1 view .LVU853
 3653              	.LBB688:
 3654              	.LBB689:
 3655              	.LBB690:
 3656              	.LBI690:
 178:../../libdaisy/src/hid/disp/display.h ****     virtual ~OneBitGraphicsDisplayImpl() {}
 3657              		.loc 8 178 5 view .LVU854
 3658              	.LBB691:
 3659              	.LBI691:
  21:../../libdaisy/src/hid/disp/display.h ****     virtual ~OneBitGraphicsDisplay() {}
 3660              		.loc 8 21 5 view .LVU855
  21:../../libdaisy/src/hid/disp/display.h ****     virtual ~OneBitGraphicsDisplay() {}
 3661              		.loc 8 21 5 is_stmt 0 view .LVU856
 3662              	.LBE691:
 3663              	.LBE690:
  16:../../libdaisy/src/hid/disp/oled_display.h ****     virtual ~OledDisplay() {}
 3664              		.loc 7 16 19 view .LVU857
 3665 0012 0A48     		ldr	r0, .L290+12
 3666 0014 0A4B     		ldr	r3, .L290+16
 3667              	.LBE689:
 3668              	.LBE688:
 3669              	.LBE687:
  15:metamorphic_project.cpp **** Menus      synthMenus;
 3670              		.loc 10 15 12 view .LVU858
 3671 0016 0B49     		ldr	r1, .L290+20
 3672 0018 064A     		ldr	r2, .L290+4
 3673              	.LBB702:
 3674              	.LBB701:
 3675              	.LBB700:
 3676              	.LBB692:
 3677              	.LBB693:
 3678              	.LBB694:
 3679              	.LBB695:
 3680              	.LBB696:
 3681              		.file 13 "../../libdaisy/src/per/spi.h"
   1:../../libdaisy/src/per/spi.h **** #pragma once
   2:../../libdaisy/src/per/spi.h **** #ifndef DSY_SPI_H
   3:../../libdaisy/src/per/spi.h **** #define DSY_SPI_H
   4:../../libdaisy/src/per/spi.h **** 
   5:../../libdaisy/src/per/spi.h **** #include "daisy_core.h"
   6:../../libdaisy/src/per/spi.h **** 
   7:../../libdaisy/src/per/spi.h **** /* TODO:
   8:../../libdaisy/src/per/spi.h **** - Add documentation
   9:../../libdaisy/src/per/spi.h **** - Add reception
  10:../../libdaisy/src/per/spi.h **** - Add IT
  11:../../libdaisy/src/per/spi.h **** - Add DMA
  12:../../libdaisy/src/per/spi.h **** */
  13:../../libdaisy/src/per/spi.h **** 
  14:../../libdaisy/src/per/spi.h **** namespace daisy
  15:../../libdaisy/src/per/spi.h **** {
  16:../../libdaisy/src/per/spi.h **** /** @addtogroup serial
ARM GAS  C:\Users\VINCIU~1\AppData\Local\Temp\ccI83ocg.s 			page 106


  17:../../libdaisy/src/per/spi.h **** @{
  18:../../libdaisy/src/per/spi.h **** */
  19:../../libdaisy/src/per/spi.h **** 
  20:../../libdaisy/src/per/spi.h **** /**  Handler for serial peripheral interface */
  21:../../libdaisy/src/per/spi.h **** class SpiHandle
  22:../../libdaisy/src/per/spi.h **** {
  23:../../libdaisy/src/per/spi.h ****   public:
  24:../../libdaisy/src/per/spi.h ****     struct Config
  25:../../libdaisy/src/per/spi.h ****     {
  26:../../libdaisy/src/per/spi.h ****         enum class Peripheral
  27:../../libdaisy/src/per/spi.h ****         {
  28:../../libdaisy/src/per/spi.h ****             SPI_1,
  29:../../libdaisy/src/per/spi.h ****             SPI_2,
  30:../../libdaisy/src/per/spi.h ****             SPI_3,
  31:../../libdaisy/src/per/spi.h ****             SPI_4,
  32:../../libdaisy/src/per/spi.h ****             SPI_5,
  33:../../libdaisy/src/per/spi.h ****             SPI_6,
  34:../../libdaisy/src/per/spi.h ****         };
  35:../../libdaisy/src/per/spi.h **** 
  36:../../libdaisy/src/per/spi.h ****         enum class Mode
  37:../../libdaisy/src/per/spi.h ****         {
  38:../../libdaisy/src/per/spi.h ****             MASTER,
  39:../../libdaisy/src/per/spi.h ****             SLAVE,
  40:../../libdaisy/src/per/spi.h ****         };
  41:../../libdaisy/src/per/spi.h **** 
  42:../../libdaisy/src/per/spi.h ****         enum class Direction
  43:../../libdaisy/src/per/spi.h ****         {
  44:../../libdaisy/src/per/spi.h ****             TWO_LINES,
  45:../../libdaisy/src/per/spi.h ****             TWO_LINES_TX_ONLY,
  46:../../libdaisy/src/per/spi.h ****             TWO_LINES_RX_ONLY,
  47:../../libdaisy/src/per/spi.h ****             ONE_LINE,
  48:../../libdaisy/src/per/spi.h ****         };
  49:../../libdaisy/src/per/spi.h **** 
  50:../../libdaisy/src/per/spi.h ****         enum class ClockPolarity
  51:../../libdaisy/src/per/spi.h ****         {
  52:../../libdaisy/src/per/spi.h ****             LOW,
  53:../../libdaisy/src/per/spi.h ****             HIGH,
  54:../../libdaisy/src/per/spi.h ****         };
  55:../../libdaisy/src/per/spi.h **** 
  56:../../libdaisy/src/per/spi.h ****         enum class ClockPhase
  57:../../libdaisy/src/per/spi.h ****         {
  58:../../libdaisy/src/per/spi.h ****             ONE_EDGE,
  59:../../libdaisy/src/per/spi.h ****             TWO_EDGE,
  60:../../libdaisy/src/per/spi.h ****         };
  61:../../libdaisy/src/per/spi.h **** 
  62:../../libdaisy/src/per/spi.h ****         enum class NSS
  63:../../libdaisy/src/per/spi.h ****         {
  64:../../libdaisy/src/per/spi.h ****             SOFT,
  65:../../libdaisy/src/per/spi.h ****             HARD_INPUT,
  66:../../libdaisy/src/per/spi.h ****             HARD_OUTPUT,
  67:../../libdaisy/src/per/spi.h ****         };
  68:../../libdaisy/src/per/spi.h **** 
  69:../../libdaisy/src/per/spi.h ****         enum class BaudPrescaler
  70:../../libdaisy/src/per/spi.h ****         {
  71:../../libdaisy/src/per/spi.h ****             PS_2,
  72:../../libdaisy/src/per/spi.h ****             PS_4,
  73:../../libdaisy/src/per/spi.h ****             PS_8,
ARM GAS  C:\Users\VINCIU~1\AppData\Local\Temp\ccI83ocg.s 			page 107


  74:../../libdaisy/src/per/spi.h ****             PS_16,
  75:../../libdaisy/src/per/spi.h ****             PS_32,
  76:../../libdaisy/src/per/spi.h ****             PS_64,
  77:../../libdaisy/src/per/spi.h ****             PS_128,
  78:../../libdaisy/src/per/spi.h ****             PS_256,
  79:../../libdaisy/src/per/spi.h ****         };
  80:../../libdaisy/src/per/spi.h **** 
  81:../../libdaisy/src/per/spi.h ****         struct
  82:../../libdaisy/src/per/spi.h ****         {
  83:../../libdaisy/src/per/spi.h ****             dsy_gpio_pin sclk; /**< & */
  84:../../libdaisy/src/per/spi.h ****             dsy_gpio_pin miso; /**< & */
  85:../../libdaisy/src/per/spi.h ****             dsy_gpio_pin mosi; /**< & */
  86:../../libdaisy/src/per/spi.h ****             dsy_gpio_pin nss;  /**< & */
  87:../../libdaisy/src/per/spi.h ****         } pin_config;
  88:../../libdaisy/src/per/spi.h **** 
  89:../../libdaisy/src/per/spi.h ****         Peripheral    periph;
  90:../../libdaisy/src/per/spi.h ****         Mode          mode;
  91:../../libdaisy/src/per/spi.h ****         Direction     direction;
  92:../../libdaisy/src/per/spi.h ****         unsigned long datasize;
  93:../../libdaisy/src/per/spi.h ****         ClockPolarity clock_polarity;
  94:../../libdaisy/src/per/spi.h ****         ClockPhase    clock_phase;
  95:../../libdaisy/src/per/spi.h ****         NSS           nss;
  96:../../libdaisy/src/per/spi.h ****         BaudPrescaler baud_prescaler;
  97:../../libdaisy/src/per/spi.h ****     };
  98:../../libdaisy/src/per/spi.h **** 
  99:../../libdaisy/src/per/spi.h ****     SpiHandle() : pimpl_(nullptr) {}
 3682              		.loc 13 99 33 view .LVU859
 3683 001a 8460     		str	r4, [r0, #8]
 3684              	.LBE696:
 3685              	.LBE695:
 3686              	.LBE694:
 3687              	.LBE693:
 3688              	.LBE692:
  16:../../libdaisy/src/hid/disp/oled_display.h ****     virtual ~OledDisplay() {}
 3689              		.loc 7 16 19 view .LVU860
 3690 001c 0360     		str	r3, [r0]
 3691              	.LVL304:
 3692              	.LBB699:
 3693              	.LBI692:
 132:../../libdaisy/src/dev/oled_ssd130x.h **** {
 3694              		.loc 9 132 7 is_stmt 1 view .LVU861
 3695              	.LBB698:
 3696              	.LBI693:
  60:../../libdaisy/src/dev/oled_ssd130x.h **** {
 3697              		.loc 9 60 7 view .LVU862
 3698              	.LBB697:
 3699              	.LBI694:
 3700              		.loc 13 99 5 view .LVU863
 3701              		.loc 13 99 5 is_stmt 0 view .LVU864
 3702              	.LBE697:
 3703              	.LBE698:
 3704              	.LBE699:
 3705              	.LBE700:
 3706              	.LBE701:
 3707              	.LBE702:
  15:metamorphic_project.cpp **** Menus      synthMenus;
 3708              		.loc 10 15 12 view .LVU865
ARM GAS  C:\Users\VINCIU~1\AppData\Local\Temp\ccI83ocg.s 			page 108


 3709 001e FFF7FEFF 		bl	__aeabi_atexit
 3710              	.LVL305:
 3711              	.LBB703:
 3712              	.LBI703:
  15:../../DaisySP/Source/Synthesis/oscillator.h ****     ~Oscillator() {}
 3713              		.loc 6 15 5 is_stmt 1 view .LVU866
  15:../../DaisySP/Source/Synthesis/oscillator.h ****     ~Oscillator() {}
 3714              		.loc 6 15 5 is_stmt 0 view .LVU867
 3715              	.LBE703:
  17:metamorphic_project.cpp **** 
 3716              		.loc 10 17 12 view .LVU868
 3717 0022 044A     		ldr	r2, .L290+4
 3718 0024 0849     		ldr	r1, .L290+24
 3719 0026 0948     		ldr	r0, .L290+28
 3720              	.LBE704:
 3721              	.LBE706:
 3722              		.loc 10 41 1 view .LVU869
 3723 0028 BDE81040 		pop	{r4, lr}
 3724              		.cfi_restore 14
 3725              		.cfi_restore 4
 3726              		.cfi_def_cfa_offset 0
 3727              	.LBB707:
 3728              	.LBB705:
  17:metamorphic_project.cpp **** 
 3729              		.loc 10 17 12 view .LVU870
 3730 002c FFF7FEBF 		b	__aeabi_atexit
 3731              	.LVL306:
 3732              	.L291:
 3733              		.align	2
 3734              	.L290:
 3735 0030 00000000 		.word	.LANCHOR2
 3736 0034 00000000 		.word	__dso_handle
 3737 0038 00000000 		.word	_ZN5daisy9DaisySeedD1Ev
 3738 003c 00000000 		.word	.LANCHOR1
 3739 0040 08000000 		.word	_ZTVN5daisy11OledDisplayINS_13SSD130xDriverILj128ELj64ENS_24SSD130x4WireSpiTransportEEEEE+8
 3740 0044 00000000 		.word	_ZN5daisy11OledDisplayINS_13SSD130xDriverILj128ELj64ENS_24SSD130x4WireSpiTransportEEEED1Ev
 3741 0048 00000000 		.word	_ZN7daisysp10OscillatorD1Ev
 3742 004c 00000000 		.word	.LANCHOR0
 3743              	.LBE705:
 3744              	.LBE707:
 3745              		.cfi_endproc
 3746              	.LFE4616:
 3748              		.section	.init_array,"aw",%init_array
 3749              		.align	2
 3750 0000 00000000 		.word	_GLOBAL__sub_I_hw(target1)
 3751              		.weak	_ZTSN5daisy21OneBitGraphicsDisplayE
 3752              		.section	.rodata._ZTSN5daisy21OneBitGraphicsDisplayE,"aG",%progbits,_ZTSN5daisy21OneBitGraphicsDis
 3753              		.align	2
 3756              	_ZTSN5daisy21OneBitGraphicsDisplayE:
 3757 0000 4E356461 		.ascii	"N5daisy21OneBitGraphicsDisplayE\000"
 3757      69737932 
 3757      314F6E65 
 3757      42697447 
 3757      72617068 
 3758              		.weak	_ZTIN5daisy21OneBitGraphicsDisplayE
 3759              		.section	.rodata._ZTIN5daisy21OneBitGraphicsDisplayE,"aG",%progbits,_ZTIN5daisy21OneBitGraphicsDis
 3760              		.align	2
ARM GAS  C:\Users\VINCIU~1\AppData\Local\Temp\ccI83ocg.s 			page 109


 3763              	_ZTIN5daisy21OneBitGraphicsDisplayE:
 3764 0000 08000000 		.word	_ZTVN10__cxxabiv117__class_type_infoE+8
 3765 0004 00000000 		.word	_ZTSN5daisy21OneBitGraphicsDisplayE
 3766              		.weak	_ZTSN5daisy25OneBitGraphicsDisplayImplINS_11OledDisplayINS_13SSD130xDriverILj128ELj64ENS_24S
 3767              		.section	.rodata._ZTSN5daisy25OneBitGraphicsDisplayImplINS_11OledDisplayINS_13SSD130xDriverILj128E
 3768              		.align	2
 3771              	_ZTSN5daisy25OneBitGraphicsDisplayImplINS_11OledDisplayINS_13SSD130xDriverILj128ELj64ENS_24SSD130x4
 3772 0000 4E356461 		.ascii	"N5daisy25OneBitGraphicsDisplayImplINS_11OledDisplay"
 3772      69737932 
 3772      354F6E65 
 3772      42697447 
 3772      72617068 
 3773 0033 494E535F 		.ascii	"INS_13SSD130xDriverILj128ELj64ENS_24SSD130x4WireSpi"
 3773      31335353 
 3773      44313330 
 3773      78447269 
 3773      76657249 
 3774 0066 5472616E 		.ascii	"TransportEEEEEEE\000"
 3774      73706F72 
 3774      74454545 
 3774      45454545 
 3774      00
 3775              		.weak	_ZTIN5daisy25OneBitGraphicsDisplayImplINS_11OledDisplayINS_13SSD130xDriverILj128ELj64ENS_24S
 3776              		.section	.rodata._ZTIN5daisy25OneBitGraphicsDisplayImplINS_11OledDisplayINS_13SSD130xDriverILj128E
 3777              		.align	2
 3780              	_ZTIN5daisy25OneBitGraphicsDisplayImplINS_11OledDisplayINS_13SSD130xDriverILj128ELj64ENS_24SSD130x4
 3781 0000 08000000 		.word	_ZTVN10__cxxabiv120__si_class_type_infoE+8
 3782 0004 00000000 		.word	_ZTSN5daisy25OneBitGraphicsDisplayImplINS_11OledDisplayINS_13SSD130xDriverILj128ELj64ENS_24S
 3783 0008 00000000 		.word	_ZTIN5daisy21OneBitGraphicsDisplayE
 3784              		.weak	_ZTSN5daisy11OledDisplayINS_13SSD130xDriverILj128ELj64ENS_24SSD130x4WireSpiTransportEEEEE
 3785              		.section	.rodata._ZTSN5daisy11OledDisplayINS_13SSD130xDriverILj128ELj64ENS_24SSD130x4WireSpiTransp
 3786              		.align	2
 3789              	_ZTSN5daisy11OledDisplayINS_13SSD130xDriverILj128ELj64ENS_24SSD130x4WireSpiTransportEEEEE:
 3790 0000 4E356461 		.ascii	"N5daisy11OledDisplayINS_13SSD130xDriverILj128ELj64E"
 3790      69737931 
 3790      314F6C65 
 3790      64446973 
 3790      706C6179 
 3791 0033 4E535F32 		.ascii	"NS_24SSD130x4WireSpiTransportEEEEE\000"
 3791      34535344 
 3791      31333078 
 3791      34576972 
 3791      65537069 
 3792              		.weak	_ZTIN5daisy11OledDisplayINS_13SSD130xDriverILj128ELj64ENS_24SSD130x4WireSpiTransportEEEEE
 3793              		.section	.rodata._ZTIN5daisy11OledDisplayINS_13SSD130xDriverILj128ELj64ENS_24SSD130x4WireSpiTransp
 3794              		.align	2
 3797              	_ZTIN5daisy11OledDisplayINS_13SSD130xDriverILj128ELj64ENS_24SSD130x4WireSpiTransportEEEEE:
 3798 0000 08000000 		.word	_ZTVN10__cxxabiv120__si_class_type_infoE+8
 3799 0004 00000000 		.word	_ZTSN5daisy11OledDisplayINS_13SSD130xDriverILj128ELj64ENS_24SSD130x4WireSpiTransportEEEEE
 3800 0008 00000000 		.word	_ZTIN5daisy25OneBitGraphicsDisplayImplINS_11OledDisplayINS_13SSD130xDriverILj128ELj64ENS_24S
 3801              		.weak	_ZTVN5daisy11OledDisplayINS_13SSD130xDriverILj128ELj64ENS_24SSD130x4WireSpiTransportEEEEE
 3802              		.section	.rodata._ZTVN5daisy11OledDisplayINS_13SSD130xDriverILj128ELj64ENS_24SSD130x4WireSpiTransp
 3803              		.align	2
 3806              	_ZTVN5daisy11OledDisplayINS_13SSD130xDriverILj128ELj64ENS_24SSD130x4WireSpiTransportEEEEE:
 3807 0000 00000000 		.word	0
 3808 0004 00000000 		.word	_ZTIN5daisy11OledDisplayINS_13SSD130xDriverILj128ELj64ENS_24SSD130x4WireSpiTransportEEEEE
 3809 0008 00000000 		.word	_ZN5daisy11OledDisplayINS_13SSD130xDriverILj128ELj64ENS_24SSD130x4WireSpiTransportEEEED1Ev
ARM GAS  C:\Users\VINCIU~1\AppData\Local\Temp\ccI83ocg.s 			page 110


 3810 000c 00000000 		.word	_ZN5daisy11OledDisplayINS_13SSD130xDriverILj128ELj64ENS_24SSD130x4WireSpiTransportEEEED0Ev
 3811 0010 00000000 		.word	_ZNK5daisy11OledDisplayINS_13SSD130xDriverILj128ELj64ENS_24SSD130x4WireSpiTransportEEEE6Heig
 3812 0014 00000000 		.word	_ZNK5daisy11OledDisplayINS_13SSD130xDriverILj128ELj64ENS_24SSD130x4WireSpiTransportEEEE5Widt
 3813 0018 00000000 		.word	_ZN5daisy11OledDisplayINS_13SSD130xDriverILj128ELj64ENS_24SSD130x4WireSpiTransportEEEE4FillE
 3814 001c 00000000 		.word	_ZN5daisy11OledDisplayINS_13SSD130xDriverILj128ELj64ENS_24SSD130x4WireSpiTransportEEEE9DrawP
 3815 0020 00000000 		.word	_ZN5daisy25OneBitGraphicsDisplayImplINS_11OledDisplayINS_13SSD130xDriverILj128ELj64ENS_24SSD
 3816 0024 00000000 		.word	_ZN5daisy25OneBitGraphicsDisplayImplINS_11OledDisplayINS_13SSD130xDriverILj128ELj64ENS_24SSD
 3817 0028 00000000 		.word	_ZN5daisy25OneBitGraphicsDisplayImplINS_11OledDisplayINS_13SSD130xDriverILj128ELj64ENS_24SSD
 3818 002c 00000000 		.word	_ZN5daisy25OneBitGraphicsDisplayImplINS_11OledDisplayINS_13SSD130xDriverILj128ELj64ENS_24SSD
 3819 0030 00000000 		.word	_ZN5daisy25OneBitGraphicsDisplayImplINS_11OledDisplayINS_13SSD130xDriverILj128ELj64ENS_24SSD
 3820 0034 00000000 		.word	_ZN5daisy11OledDisplayINS_13SSD130xDriverILj128ELj64ENS_24SSD130x4WireSpiTransportEEEE6Updat
 3821              		.global	osc
 3822              		.global	synthMenus
 3823              		.global	display
 3824              		.global	hw
 3825              		.section	.bss.display,"aw",%nobits
 3826              		.align	2
 3827              		.set	.LANCHOR1,. + 0
 3830              	display:
 3831 0000 00000000 		.space	1044
 3831      00000000 
 3831      00000000 
 3831      00000000 
 3831      00000000 
 3832              		.section	.bss.hw,"aw",%nobits
 3833              		.align	2
 3834              		.set	.LANCHOR2,. + 0
 3837              	hw:
 3838 0000 00000000 		.space	60
 3838      00000000 
 3838      00000000 
 3838      00000000 
 3838      00000000 
 3839              		.section	.bss.osc,"aw",%nobits
 3840              		.align	2
 3841              		.set	.LANCHOR0,. + 0
 3844              	osc:
 3845 0000 00000000 		.space	40
 3845      00000000 
 3845      00000000 
 3845      00000000 
 3845      00000000 
 3846              		.section	.bss.synthMenus,"aw",%nobits
 3847              		.align	2
 3848              		.set	.LANCHOR3,. + 0
 3851              	synthMenus:
 3852 0000 00000000 		.space	4
 3853              		.text
 3854              	.Letext0:
 3855              		.file 14 "c:\\users\\vin\355cius\\documents\\daisytoolchain-0.3.1\\windows\\arm-none-eabi\\include
 3856              		.file 15 "c:\\users\\vin\355cius\\documents\\daisytoolchain-0.3.1\\windows\\arm-none-eabi\\include
 3857              		.file 16 "c:\\users\\vin\355cius\\documents\\daisytoolchain-0.3.1\\windows\\arm-none-eabi\\include
 3858              		.file 17 "c:\\users\\vin\355cius\\documents\\daisytoolchain-0.3.1\\windows\\lib\\gcc\\arm-none-eab
 3859              		.file 18 "c:\\users\\vin\355cius\\documents\\daisytoolchain-0.3.1\\windows\\arm-none-eabi\\include
 3860              		.file 19 "c:\\users\\vin\355cius\\documents\\daisytoolchain-0.3.1\\windows\\arm-none-eabi\\include
 3861              		.file 20 "c:\\users\\vin\355cius\\documents\\daisytoolchain-0.3.1\\windows\\arm-none-eabi\\include
 3862              		.file 21 "c:\\users\\vin\355cius\\documents\\daisytoolchain-0.3.1\\windows\\arm-none-eabi\\include
ARM GAS  C:\Users\VINCIU~1\AppData\Local\Temp\ccI83ocg.s 			page 111


 3863              		.file 22 "c:\\users\\vin\355cius\\documents\\daisytoolchain-0.3.1\\windows\\arm-none-eabi\\include
 3864              		.file 23 "c:\\users\\vin\355cius\\documents\\daisytoolchain-0.3.1\\windows\\arm-none-eabi\\include
 3865              		.file 24 "c:\\users\\vin\355cius\\documents\\daisytoolchain-0.3.1\\windows\\arm-none-eabi\\include
 3866              		.file 25 "c:\\users\\vin\355cius\\documents\\daisytoolchain-0.3.1\\windows\\arm-none-eabi\\include
 3867              		.file 26 "c:\\users\\vin\355cius\\documents\\daisytoolchain-0.3.1\\windows\\arm-none-eabi\\include
 3868              		.file 27 "c:\\users\\vin\355cius\\documents\\daisytoolchain-0.3.1\\windows\\arm-none-eabi\\include
 3869              		.file 28 "c:\\users\\vin\355cius\\documents\\daisytoolchain-0.3.1\\windows\\arm-none-eabi\\include
 3870              		.file 29 "c:\\users\\vin\355cius\\documents\\daisytoolchain-0.3.1\\windows\\arm-none-eabi\\include
 3871              		.file 30 "c:\\users\\vin\355cius\\documents\\daisytoolchain-0.3.1\\windows\\arm-none-eabi\\include
 3872              		.file 31 "c:\\users\\vin\355cius\\documents\\daisytoolchain-0.3.1\\windows\\arm-none-eabi\\include
 3873              		.file 32 "c:\\users\\vin\355cius\\documents\\daisytoolchain-0.3.1\\windows\\arm-none-eabi\\include
 3874              		.file 33 "c:\\users\\vin\355cius\\documents\\daisytoolchain-0.3.1\\windows\\arm-none-eabi\\include
 3875              		.file 34 "c:\\users\\vin\355cius\\documents\\daisytoolchain-0.3.1\\windows\\arm-none-eabi\\include
 3876              		.file 35 "c:\\users\\vin\355cius\\documents\\daisytoolchain-0.3.1\\windows\\arm-none-eabi\\include
 3877              		.file 36 "c:\\users\\vin\355cius\\documents\\daisytoolchain-0.3.1\\windows\\arm-none-eabi\\include
 3878              		.file 37 "c:\\users\\vin\355cius\\documents\\daisytoolchain-0.3.1\\windows\\arm-none-eabi\\include
 3879              		.file 38 "c:\\users\\vin\355cius\\documents\\daisytoolchain-0.3.1\\windows\\arm-none-eabi\\include
 3880              		.file 39 "c:\\users\\vin\355cius\\documents\\daisytoolchain-0.3.1\\windows\\arm-none-eabi\\include
 3881              		.file 40 "c:\\users\\vin\355cius\\documents\\daisytoolchain-0.3.1\\windows\\arm-none-eabi\\include
 3882              		.file 41 "c:\\users\\vin\355cius\\documents\\daisytoolchain-0.3.1\\windows\\lib\\gcc\\arm-none-eab
 3883              		.file 42 "c:\\users\\vin\355cius\\documents\\daisytoolchain-0.3.1\\windows\\arm-none-eabi\\include
 3884              		.file 43 "c:\\users\\vin\355cius\\documents\\daisytoolchain-0.3.1\\windows\\arm-none-eabi\\include
 3885              		.file 44 "../../libdaisy/src/daisy_core.h"
 3886              		.file 45 "../../libdaisy/src/per/tim.h"
 3887              		.file 46 "../../libdaisy/src/per/sai.h"
 3888              		.file 47 "../../libdaisy/src/util/wav_format.h"
 3889              		.file 48 "../../libdaisy/src/per/qspi.h"
 3890              		.file 49 "../../libdaisy/src/per/gpio.h"
 3891              		.file 50 "../../libdaisy/src/dev/sdram.h"
 3892              		.file 51 "../../libdaisy/src/util/oled_fonts.h"
 3893              		.file 52 "../../DaisySP/Source/Control/adenv.h"
 3894              		.file 53 "../../DaisySP/Source/Utility/dsp.h"
 3895              		.file 54 "c:\\users\\vin\355cius\\documents\\daisytoolchain-0.3.1\\windows\\arm-none-eabi\\include
 3896              		.file 55 "c:\\users\\vin\355cius\\documents\\daisytoolchain-0.3.1\\windows\\arm-none-eabi\\include
 3897              		.file 56 "c:\\users\\vin\355cius\\documents\\daisytoolchain-0.3.1\\windows\\arm-none-eabi\\include
 3898              		.file 57 "menus.h"
 3899              		.file 58 "c:\\users\\vin\355cius\\documents\\daisytoolchain-0.3.1\\windows\\arm-none-eabi\\include
 3900              		.file 59 "globalFunc.h"
 3901              		.file 60 "<built-in>"
 3902              		.file 61 "../../libdaisy/src/hid/logger_impl.h"
 3903              		.file 62 "../../libdaisy/src/dev/sr_595.h"
ARM GAS  C:\Users\VINCIU~1\AppData\Local\Temp\ccI83ocg.s 			page 112


DEFINED SYMBOLS
                            *ABS*:00000000 metamorphic_project.cpp
C:\Users\VINCIU~1\AppData\Local\Temp\ccI83ocg.s:17     .text._ZN5daisy9DaisySeedD2Ev:00000000 $t
C:\Users\VINCIU~1\AppData\Local\Temp\ccI83ocg.s:26     .text._ZN5daisy9DaisySeedD2Ev:00000000 _ZN5daisy9DaisySeedD2Ev
C:\Users\VINCIU~1\AppData\Local\Temp\ccI83ocg.s:26     .text._ZN5daisy9DaisySeedD2Ev:00000000 _ZN5daisy9DaisySeedD1Ev
C:\Users\VINCIU~1\AppData\Local\Temp\ccI83ocg.s:67     .text._ZN7daisysp10OscillatorD2Ev:00000000 $t
C:\Users\VINCIU~1\AppData\Local\Temp\ccI83ocg.s:75     .text._ZN7daisysp10OscillatorD2Ev:00000000 _ZN7daisysp10OscillatorD2Ev
C:\Users\VINCIU~1\AppData\Local\Temp\ccI83ocg.s:75     .text._ZN7daisysp10OscillatorD2Ev:00000000 _ZN7daisysp10OscillatorD1Ev
C:\Users\VINCIU~1\AppData\Local\Temp\ccI83ocg.s:92     .text._ZN5daisy11OledDisplayINS_13SSD130xDriverILj128ELj64ENS_24SSD130x4WireSpiTransportEEEED2Ev:00000000 $t
C:\Users\VINCIU~1\AppData\Local\Temp\ccI83ocg.s:100    .text._ZN5daisy11OledDisplayINS_13SSD130xDriverILj128ELj64ENS_24SSD130x4WireSpiTransportEEEED2Ev:00000000 _ZN5daisy11OledDisplayINS_13SSD130xDriverILj128ELj64ENS_24SSD130x4WireSpiTransportEEEED2Ev
C:\Users\VINCIU~1\AppData\Local\Temp\ccI83ocg.s:100    .text._ZN5daisy11OledDisplayINS_13SSD130xDriverILj128ELj64ENS_24SSD130x4WireSpiTransportEEEED2Ev:00000000 _ZN5daisy11OledDisplayINS_13SSD130xDriverILj128ELj64ENS_24SSD130x4WireSpiTransportEEEED1Ev
C:\Users\VINCIU~1\AppData\Local\Temp\ccI83ocg.s:127    .text._ZNK5daisy11OledDisplayINS_13SSD130xDriverILj128ELj64ENS_24SSD130x4WireSpiTransportEEEE6HeightEv:00000000 $t
C:\Users\VINCIU~1\AppData\Local\Temp\ccI83ocg.s:135    .text._ZNK5daisy11OledDisplayINS_13SSD130xDriverILj128ELj64ENS_24SSD130x4WireSpiTransportEEEE6HeightEv:00000000 _ZNK5daisy11OledDisplayINS_13SSD130xDriverILj128ELj64ENS_24SSD130x4WireSpiTransportEEEE6HeightEv
C:\Users\VINCIU~1\AppData\Local\Temp\ccI83ocg.s:152    .text._ZNK5daisy11OledDisplayINS_13SSD130xDriverILj128ELj64ENS_24SSD130x4WireSpiTransportEEEE5WidthEv:00000000 $t
C:\Users\VINCIU~1\AppData\Local\Temp\ccI83ocg.s:160    .text._ZNK5daisy11OledDisplayINS_13SSD130xDriverILj128ELj64ENS_24SSD130x4WireSpiTransportEEEE5WidthEv:00000000 _ZNK5daisy11OledDisplayINS_13SSD130xDriverILj128ELj64ENS_24SSD130x4WireSpiTransportEEEE5WidthEv
C:\Users\VINCIU~1\AppData\Local\Temp\ccI83ocg.s:177    .text._ZN5daisy11OledDisplayINS_13SSD130xDriverILj128ELj64ENS_24SSD130x4WireSpiTransportEEEE4FillEb:00000000 $t
C:\Users\VINCIU~1\AppData\Local\Temp\ccI83ocg.s:185    .text._ZN5daisy11OledDisplayINS_13SSD130xDriverILj128ELj64ENS_24SSD130x4WireSpiTransportEEEE4FillEb:00000000 _ZN5daisy11OledDisplayINS_13SSD130xDriverILj128ELj64ENS_24SSD130x4WireSpiTransportEEEE4FillEb
C:\Users\VINCIU~1\AppData\Local\Temp\ccI83ocg.s:217    .text._Z13AudioCallbackPKPKfPPfj:00000000 $t
C:\Users\VINCIU~1\AppData\Local\Temp\ccI83ocg.s:225    .text._Z13AudioCallbackPKPKfPPfj:00000000 _Z13AudioCallbackPKPKfPPfj
C:\Users\VINCIU~1\AppData\Local\Temp\ccI83ocg.s:295    .text._Z13AudioCallbackPKPKfPPfj:00000030 $d
C:\Users\VINCIU~1\AppData\Local\Temp\ccI83ocg.s:300    .text._ZN5daisy11OledDisplayINS_13SSD130xDriverILj128ELj64ENS_24SSD130x4WireSpiTransportEEEED0Ev:00000000 $t
C:\Users\VINCIU~1\AppData\Local\Temp\ccI83ocg.s:308    .text._ZN5daisy11OledDisplayINS_13SSD130xDriverILj128ELj64ENS_24SSD130x4WireSpiTransportEEEED0Ev:00000000 _ZN5daisy11OledDisplayINS_13SSD130xDriverILj128ELj64ENS_24SSD130x4WireSpiTransportEEEED0Ev
C:\Users\VINCIU~1\AppData\Local\Temp\ccI83ocg.s:348    .text._ZN5daisy11OledDisplayINS_13SSD130xDriverILj128ELj64ENS_24SSD130x4WireSpiTransportEEEE6UpdateEv:00000000 $t
C:\Users\VINCIU~1\AppData\Local\Temp\ccI83ocg.s:356    .text._ZN5daisy11OledDisplayINS_13SSD130xDriverILj128ELj64ENS_24SSD130x4WireSpiTransportEEEE6UpdateEv:00000000 _ZN5daisy11OledDisplayINS_13SSD130xDriverILj128ELj64ENS_24SSD130x4WireSpiTransportEEEE6UpdateEv
C:\Users\VINCIU~1\AppData\Local\Temp\ccI83ocg.s:543    .text._ZN5daisy25OneBitGraphicsDisplayImplINS_11OledDisplayINS_13SSD130xDriverILj128ELj64ENS_24SSD130x4WireSpiTransportEEEEEE9WriteCharEc7FontDefb:00000000 $t
C:\Users\VINCIU~1\AppData\Local\Temp\ccI83ocg.s:551    .text._ZN5daisy25OneBitGraphicsDisplayImplINS_11OledDisplayINS_13SSD130xDriverILj128ELj64ENS_24SSD130x4WireSpiTransportEEEEEE9WriteCharEc7FontDefb:00000000 _ZN5daisy25OneBitGraphicsDisplayImplINS_11OledDisplayINS_13SSD130xDriverILj128ELj64ENS_24SSD130x4WireSpiTransportEEEEEE9WriteCharEc7FontDefb
C:\Users\VINCIU~1\AppData\Local\Temp\ccI83ocg.s:977    .text._ZN5daisy25OneBitGraphicsDisplayImplINS_11OledDisplayINS_13SSD130xDriverILj128ELj64ENS_24SSD130x4WireSpiTransportEEEEEE9WriteCharEc7FontDefb:00000198 $d
C:\Users\VINCIU~1\AppData\Local\Temp\ccI83ocg.s:985    .text._ZN5daisy25OneBitGraphicsDisplayImplINS_11OledDisplayINS_13SSD130xDriverILj128ELj64ENS_24SSD130x4WireSpiTransportEEEEEE11WriteStringEPKc7FontDefb:00000000 $t
C:\Users\VINCIU~1\AppData\Local\Temp\ccI83ocg.s:993    .text._ZN5daisy25OneBitGraphicsDisplayImplINS_11OledDisplayINS_13SSD130xDriverILj128ELj64ENS_24SSD130x4WireSpiTransportEEEEEE11WriteStringEPKc7FontDefb:00000000 _ZN5daisy25OneBitGraphicsDisplayImplINS_11OledDisplayINS_13SSD130xDriverILj128ELj64ENS_24SSD130x4WireSpiTransportEEEEEE11WriteStringEPKc7FontDefb
C:\Users\VINCIU~1\AppData\Local\Temp\ccI83ocg.s:1067   .text._ZN5daisy11OledDisplayINS_13SSD130xDriverILj128ELj64ENS_24SSD130x4WireSpiTransportEEEE9DrawPixelEjjb:00000000 $t
C:\Users\VINCIU~1\AppData\Local\Temp\ccI83ocg.s:1075   .text._ZN5daisy11OledDisplayINS_13SSD130xDriverILj128ELj64ENS_24SSD130x4WireSpiTransportEEEE9DrawPixelEjjb:00000000 _ZN5daisy11OledDisplayINS_13SSD130xDriverILj128ELj64ENS_24SSD130x4WireSpiTransportEEEE9DrawPixelEjjb
C:\Users\VINCIU~1\AppData\Local\Temp\ccI83ocg.s:1152   .text._ZN5daisy25OneBitGraphicsDisplayImplINS_11OledDisplayINS_13SSD130xDriverILj128ELj64ENS_24SSD130x4WireSpiTransportEEEEEE8DrawLineEjjjjb:00000000 $t
C:\Users\VINCIU~1\AppData\Local\Temp\ccI83ocg.s:1160   .text._ZN5daisy25OneBitGraphicsDisplayImplINS_11OledDisplayINS_13SSD130xDriverILj128ELj64ENS_24SSD130x4WireSpiTransportEEEEEE8DrawLineEjjjjb:00000000 _ZN5daisy25OneBitGraphicsDisplayImplINS_11OledDisplayINS_13SSD130xDriverILj128ELj64ENS_24SSD130x4WireSpiTransportEEEEEE8DrawLineEjjjjb
C:\Users\VINCIU~1\AppData\Local\Temp\ccI83ocg.s:1445   .text._ZN5daisy25OneBitGraphicsDisplayImplINS_11OledDisplayINS_13SSD130xDriverILj128ELj64ENS_24SSD130x4WireSpiTransportEEEEEE7DrawArcEjjjiib:00000000 $t
C:\Users\VINCIU~1\AppData\Local\Temp\ccI83ocg.s:1453   .text._ZN5daisy25OneBitGraphicsDisplayImplINS_11OledDisplayINS_13SSD130xDriverILj128ELj64ENS_24SSD130x4WireSpiTransportEEEEEE7DrawArcEjjjiib:00000000 _ZN5daisy25OneBitGraphicsDisplayImplINS_11OledDisplayINS_13SSD130xDriverILj128ELj64ENS_24SSD130x4WireSpiTransportEEEEEE7DrawArcEjjjiib
C:\Users\VINCIU~1\AppData\Local\Temp\ccI83ocg.s:2138   .text._ZN5daisy25OneBitGraphicsDisplayImplINS_11OledDisplayINS_13SSD130xDriverILj128ELj64ENS_24SSD130x4WireSpiTransportEEEEEE7DrawArcEjjjiib:00000368 $d
C:\Users\VINCIU~1\AppData\Local\Temp\ccI83ocg.s:2152   .text._ZN5daisy25OneBitGraphicsDisplayImplINS_11OledDisplayINS_13SSD130xDriverILj128ELj64ENS_24SSD130x4WireSpiTransportEEEEEE7DrawArcEjjjiib:00000378 $t
C:\Users\VINCIU~1\AppData\Local\Temp\ccI83ocg.s:2378   .text._ZN5daisy25OneBitGraphicsDisplayImplINS_11OledDisplayINS_13SSD130xDriverILj128ELj64ENS_24SSD130x4WireSpiTransportEEEEEE8DrawRectEjjjjbb:00000000 $t
C:\Users\VINCIU~1\AppData\Local\Temp\ccI83ocg.s:2386   .text._ZN5daisy25OneBitGraphicsDisplayImplINS_11OledDisplayINS_13SSD130xDriverILj128ELj64ENS_24SSD130x4WireSpiTransportEEEEEE8DrawRectEjjjjbb:00000000 _ZN5daisy25OneBitGraphicsDisplayImplINS_11OledDisplayINS_13SSD130xDriverILj128ELj64ENS_24SSD130x4WireSpiTransportEEEEEE8DrawRectEjjjjbb
C:\Users\VINCIU~1\AppData\Local\Temp\ccI83ocg.s:3496   .text.startup.main:00000000 $t
C:\Users\VINCIU~1\AppData\Local\Temp\ccI83ocg.s:3504   .text.startup.main:00000000 main
C:\Users\VINCIU~1\AppData\Local\Temp\ccI83ocg.s:3543   .text.startup.main:00000020 $d
C:\Users\VINCIU~1\AppData\Local\Temp\ccI83ocg.s:3552   .text.startup._GLOBAL__sub_I_hw:00000000 $t
C:\Users\VINCIU~1\AppData\Local\Temp\ccI83ocg.s:3559   .text.startup._GLOBAL__sub_I_hw:00000000 _GLOBAL__sub_I_hw
C:\Users\VINCIU~1\AppData\Local\Temp\ccI83ocg.s:3735   .text.startup._GLOBAL__sub_I_hw:00000030 $d
C:\Users\VINCIU~1\AppData\Local\Temp\ccI83ocg.s:3806   .rodata._ZTVN5daisy11OledDisplayINS_13SSD130xDriverILj128ELj64ENS_24SSD130x4WireSpiTransportEEEEE:00000000 _ZTVN5daisy11OledDisplayINS_13SSD130xDriverILj128ELj64ENS_24SSD130x4WireSpiTransportEEEEE
C:\Users\VINCIU~1\AppData\Local\Temp\ccI83ocg.s:3749   .init_array:00000000 $d
C:\Users\VINCIU~1\AppData\Local\Temp\ccI83ocg.s:3756   .rodata._ZTSN5daisy21OneBitGraphicsDisplayE:00000000 _ZTSN5daisy21OneBitGraphicsDisplayE
C:\Users\VINCIU~1\AppData\Local\Temp\ccI83ocg.s:3753   .rodata._ZTSN5daisy21OneBitGraphicsDisplayE:00000000 $d
C:\Users\VINCIU~1\AppData\Local\Temp\ccI83ocg.s:3763   .rodata._ZTIN5daisy21OneBitGraphicsDisplayE:00000000 _ZTIN5daisy21OneBitGraphicsDisplayE
C:\Users\VINCIU~1\AppData\Local\Temp\ccI83ocg.s:3760   .rodata._ZTIN5daisy21OneBitGraphicsDisplayE:00000000 $d
C:\Users\VINCIU~1\AppData\Local\Temp\ccI83ocg.s:3771   .rodata._ZTSN5daisy25OneBitGraphicsDisplayImplINS_11OledDisplayINS_13SSD130xDriverILj128ELj64ENS_24SSD130x4WireSpiTransportEEEEEEE:00000000 _ZTSN5daisy25OneBitGraphicsDisplayImplINS_11OledDisplayINS_13SSD130xDriverILj128ELj64ENS_24SSD130x4WireSpiTransportEEEEEEE
C:\Users\VINCIU~1\AppData\Local\Temp\ccI83ocg.s:3768   .rodata._ZTSN5daisy25OneBitGraphicsDisplayImplINS_11OledDisplayINS_13SSD130xDriverILj128ELj64ENS_24SSD130x4WireSpiTransportEEEEEEE:00000000 $d
C:\Users\VINCIU~1\AppData\Local\Temp\ccI83ocg.s:3780   .rodata._ZTIN5daisy25OneBitGraphicsDisplayImplINS_11OledDisplayINS_13SSD130xDriverILj128ELj64ENS_24SSD130x4WireSpiTransportEEEEEEE:00000000 _ZTIN5daisy25OneBitGraphicsDisplayImplINS_11OledDisplayINS_13SSD130xDriverILj128ELj64ENS_24SSD130x4WireSpiTransportEEEEEEE
C:\Users\VINCIU~1\AppData\Local\Temp\ccI83ocg.s:3777   .rodata._ZTIN5daisy25OneBitGraphicsDisplayImplINS_11OledDisplayINS_13SSD130xDriverILj128ELj64ENS_24SSD130x4WireSpiTransportEEEEEEE:00000000 $d
C:\Users\VINCIU~1\AppData\Local\Temp\ccI83ocg.s:3789   .rodata._ZTSN5daisy11OledDisplayINS_13SSD130xDriverILj128ELj64ENS_24SSD130x4WireSpiTransportEEEEE:00000000 _ZTSN5daisy11OledDisplayINS_13SSD130xDriverILj128ELj64ENS_24SSD130x4WireSpiTransportEEEEE
C:\Users\VINCIU~1\AppData\Local\Temp\ccI83ocg.s:3786   .rodata._ZTSN5daisy11OledDisplayINS_13SSD130xDriverILj128ELj64ENS_24SSD130x4WireSpiTransportEEEEE:00000000 $d
ARM GAS  C:\Users\VINCIU~1\AppData\Local\Temp\ccI83ocg.s 			page 113


C:\Users\VINCIU~1\AppData\Local\Temp\ccI83ocg.s:3797   .rodata._ZTIN5daisy11OledDisplayINS_13SSD130xDriverILj128ELj64ENS_24SSD130x4WireSpiTransportEEEEE:00000000 _ZTIN5daisy11OledDisplayINS_13SSD130xDriverILj128ELj64ENS_24SSD130x4WireSpiTransportEEEEE
C:\Users\VINCIU~1\AppData\Local\Temp\ccI83ocg.s:3794   .rodata._ZTIN5daisy11OledDisplayINS_13SSD130xDriverILj128ELj64ENS_24SSD130x4WireSpiTransportEEEEE:00000000 $d
C:\Users\VINCIU~1\AppData\Local\Temp\ccI83ocg.s:3803   .rodata._ZTVN5daisy11OledDisplayINS_13SSD130xDriverILj128ELj64ENS_24SSD130x4WireSpiTransportEEEEE:00000000 $d
C:\Users\VINCIU~1\AppData\Local\Temp\ccI83ocg.s:3844   .bss.osc:00000000 osc
C:\Users\VINCIU~1\AppData\Local\Temp\ccI83ocg.s:3851   .bss.synthMenus:00000000 synthMenus
C:\Users\VINCIU~1\AppData\Local\Temp\ccI83ocg.s:3830   .bss.display:00000000 display
C:\Users\VINCIU~1\AppData\Local\Temp\ccI83ocg.s:3837   .bss.hw:00000000 hw
C:\Users\VINCIU~1\AppData\Local\Temp\ccI83ocg.s:3826   .bss.display:00000000 $d
C:\Users\VINCIU~1\AppData\Local\Temp\ccI83ocg.s:3833   .bss.hw:00000000 $d
C:\Users\VINCIU~1\AppData\Local\Temp\ccI83ocg.s:3840   .bss.osc:00000000 $d
C:\Users\VINCIU~1\AppData\Local\Temp\ccI83ocg.s:3847   .bss.synthMenus:00000000 $d
                           .group:00000000 _ZN5daisy9DaisySeedD5Ev
                           .group:00000000 _ZN7daisysp10OscillatorD5Ev
                           .group:00000000 _ZN5daisy11OledDisplayINS_13SSD130xDriverILj128ELj64ENS_24SSD130x4WireSpiTransportEEEED5Ev

UNDEFINED SYMBOLS
memset
_ZN7daisysp10Oscillator7ProcessEv
_ZdlPvj
dsy_gpio_write
_ZN5daisy9SpiHandle16BlockingTransmitEPhjm
cosf
sinf
_Z9SynthInitPN5daisy9DaisySeedEPNS_11OledDisplayINS_13SSD130xDriverILj128ELj64ENS_24SSD130x4WireSpiTransportEEEEEPN7daisysp10OscillatorE
_ZN5daisy9DaisySeed10StartAudioEPFvPKPKfPPfjE
_ZN5Menus12SplashScreenEPN5daisy11OledDisplayINS0_13SSD130xDriverILj128ELj64ENS0_24SSD130x4WireSpiTransportEEEEE
__aeabi_atexit
__dso_handle
_ZTVN10__cxxabiv117__class_type_infoE
_ZTVN10__cxxabiv120__si_class_type_infoE
